
HCF700.elf:     file format elf32-avr

Sections:
Idx Name          Size      VMA       LMA       File off  Algn
  0 .data         00000022  00800100  000057c4  00005858  2**0
                  CONTENTS, ALLOC, LOAD, DATA
  1 .text         000057c4  00000000  00000000  00000094  2**1
                  CONTENTS, ALLOC, LOAD, READONLY, CODE
  2 .bss          000003b2  00800122  00800122  0000587a  2**0
                  ALLOC
  3 .comment      0000005c  00000000  00000000  0000587a  2**0
                  CONTENTS, READONLY
  4 .note.gnu.avr.deviceinfo 00000040  00000000  00000000  000058d8  2**2
                  CONTENTS, READONLY
  5 .debug_aranges 00000268  00000000  00000000  00005918  2**0
                  CONTENTS, READONLY, DEBUGGING
  6 .debug_info   00003f18  00000000  00000000  00005b80  2**0
                  CONTENTS, READONLY, DEBUGGING
  7 .debug_abbrev 000010fb  00000000  00000000  00009a98  2**0
                  CONTENTS, READONLY, DEBUGGING
  8 .debug_line   0000286f  00000000  00000000  0000ab93  2**0
                  CONTENTS, READONLY, DEBUGGING
  9 .debug_frame  00000830  00000000  00000000  0000d404  2**2
                  CONTENTS, READONLY, DEBUGGING
 10 .debug_str    00000c87  00000000  00000000  0000dc34  2**0
                  CONTENTS, READONLY, DEBUGGING
 11 .debug_loc    00002b93  00000000  00000000  0000e8bb  2**0
                  CONTENTS, READONLY, DEBUGGING
 12 .debug_ranges 00000260  00000000  00000000  0001144e  2**0
                  CONTENTS, READONLY, DEBUGGING

Disassembly of section .text:

00000000 <__vectors>:
       0:	0c 94 7c 01 	jmp	0x2f8	; 0x2f8 <__ctors_end>
       4:	0c 94 99 01 	jmp	0x332	; 0x332 <__bad_interrupt>
       8:	0c 94 99 01 	jmp	0x332	; 0x332 <__bad_interrupt>
       c:	0c 94 99 01 	jmp	0x332	; 0x332 <__bad_interrupt>
      10:	0c 94 99 01 	jmp	0x332	; 0x332 <__bad_interrupt>
      14:	0c 94 99 01 	jmp	0x332	; 0x332 <__bad_interrupt>
      18:	0c 94 99 01 	jmp	0x332	; 0x332 <__bad_interrupt>
      1c:	0c 94 99 01 	jmp	0x332	; 0x332 <__bad_interrupt>
      20:	0c 94 99 01 	jmp	0x332	; 0x332 <__bad_interrupt>
      24:	0c 94 99 01 	jmp	0x332	; 0x332 <__bad_interrupt>
      28:	0c 94 99 01 	jmp	0x332	; 0x332 <__bad_interrupt>
      2c:	0c 94 99 01 	jmp	0x332	; 0x332 <__bad_interrupt>
      30:	0c 94 99 01 	jmp	0x332	; 0x332 <__bad_interrupt>
      34:	0c 94 9a 21 	jmp	0x4334	; 0x4334 <__vector_13>
      38:	0c 94 99 01 	jmp	0x332	; 0x332 <__bad_interrupt>
      3c:	0c 94 99 01 	jmp	0x332	; 0x332 <__bad_interrupt>
      40:	0c 94 99 01 	jmp	0x332	; 0x332 <__bad_interrupt>
      44:	0c 94 99 01 	jmp	0x332	; 0x332 <__bad_interrupt>
      48:	0c 94 b1 22 	jmp	0x4562	; 0x4562 <__vector_18>
      4c:	0c 94 99 01 	jmp	0x332	; 0x332 <__bad_interrupt>
      50:	0c 94 99 01 	jmp	0x332	; 0x332 <__bad_interrupt>
      54:	0c 94 99 01 	jmp	0x332	; 0x332 <__bad_interrupt>
      58:	0c 94 99 01 	jmp	0x332	; 0x332 <__bad_interrupt>
      5c:	0c 94 99 01 	jmp	0x332	; 0x332 <__bad_interrupt>
      60:	0c 94 99 01 	jmp	0x332	; 0x332 <__bad_interrupt>
      64:	0c 94 99 01 	jmp	0x332	; 0x332 <__bad_interrupt>
      68:	87 20       	and	r8, r7
      6a:	8a 20       	and	r8, r10
      6c:	e5 20       	and	r14, r5
      6e:	94 20       	and	r9, r4
      70:	e5 20       	and	r14, r5
      72:	e5 20       	and	r14, r5
      74:	e5 20       	and	r14, r5
      76:	e5 20       	and	r14, r5
      78:	e5 20       	and	r14, r5
      7a:	e5 20       	and	r14, r5
      7c:	e5 20       	and	r14, r5
      7e:	e5 20       	and	r14, r5
      80:	e5 20       	and	r14, r5
      82:	a2 20       	and	r10, r2
      84:	e5 20       	and	r14, r5
      86:	e5 20       	and	r14, r5
      88:	e5 20       	and	r14, r5
      8a:	e5 20       	and	r14, r5
      8c:	e5 20       	and	r14, r5
      8e:	e5 20       	and	r14, r5
      90:	e5 20       	and	r14, r5
      92:	e5 20       	and	r14, r5
      94:	e5 20       	and	r14, r5
      96:	e5 20       	and	r14, r5
      98:	e5 20       	and	r14, r5
      9a:	e5 20       	and	r14, r5
      9c:	e5 20       	and	r14, r5
      9e:	e5 20       	and	r14, r5
      a0:	e5 20       	and	r14, r5
      a2:	e5 20       	and	r14, r5
      a4:	e5 20       	and	r14, r5
      a6:	e5 20       	and	r14, r5
      a8:	e5 20       	and	r14, r5
      aa:	e5 20       	and	r14, r5
      ac:	e5 20       	and	r14, r5
      ae:	e5 20       	and	r14, r5
      b0:	e5 20       	and	r14, r5
      b2:	e5 20       	and	r14, r5
      b4:	e5 20       	and	r14, r5
      b6:	e5 20       	and	r14, r5
      b8:	e5 20       	and	r14, r5
      ba:	e5 20       	and	r14, r5
      bc:	e5 20       	and	r14, r5
      be:	e5 20       	and	r14, r5
      c0:	e5 20       	and	r14, r5
      c2:	e5 20       	and	r14, r5
      c4:	e5 20       	and	r14, r5
      c6:	e5 20       	and	r14, r5
      c8:	e5 20       	and	r14, r5
      ca:	e5 20       	and	r14, r5
      cc:	e5 20       	and	r14, r5
      ce:	e5 20       	and	r14, r5
      d0:	e5 20       	and	r14, r5
      d2:	e5 20       	and	r14, r5
      d4:	e5 20       	and	r14, r5
      d6:	e5 20       	and	r14, r5
      d8:	e5 20       	and	r14, r5
      da:	e5 20       	and	r14, r5
      dc:	e5 20       	and	r14, r5
      de:	e5 20       	and	r14, r5
      e0:	e5 20       	and	r14, r5
      e2:	ac 20       	and	r10, r12
      e4:	af 20       	and	r10, r15
      e6:	bd 20       	and	r11, r13
      e8:	c7 20       	and	r12, r7
      ea:	c7 20       	and	r12, r7
      ec:	c7 20       	and	r12, r7
      ee:	c7 20       	and	r12, r7
      f0:	c7 20       	and	r12, r7
      f2:	c7 20       	and	r12, r7
      f4:	d5 20       	and	r13, r5
      f6:	e5 20       	and	r14, r5
      f8:	e5 20       	and	r14, r5
      fa:	e5 20       	and	r14, r5
      fc:	e5 20       	and	r14, r5
      fe:	e5 20       	and	r14, r5
     100:	e5 20       	and	r14, r5
     102:	e5 20       	and	r14, r5
     104:	e5 20       	and	r14, r5
     106:	e5 20       	and	r14, r5
     108:	e5 20       	and	r14, r5
     10a:	e5 20       	and	r14, r5
     10c:	e5 20       	and	r14, r5
     10e:	e5 20       	and	r14, r5
     110:	e5 20       	and	r14, r5
     112:	e5 20       	and	r14, r5
     114:	e5 20       	and	r14, r5
     116:	e5 20       	and	r14, r5
     118:	e5 20       	and	r14, r5
     11a:	e5 20       	and	r14, r5
     11c:	e5 20       	and	r14, r5
     11e:	e5 20       	and	r14, r5
     120:	e5 20       	and	r14, r5
     122:	e5 20       	and	r14, r5
     124:	e5 20       	and	r14, r5
     126:	e5 20       	and	r14, r5
     128:	e5 20       	and	r14, r5
     12a:	e5 20       	and	r14, r5
     12c:	e5 20       	and	r14, r5
     12e:	d8 20       	and	r13, r8
     130:	e5 20       	and	r14, r5
     132:	db 20       	and	r13, r11
     134:	07 63       	ori	r16, 0x37	; 55
     136:	42 36       	cpi	r20, 0x62	; 98
     138:	b7 9b       	sbis	0x16, 7	; 22
     13a:	d8 a7       	std	Y+40, r29	; 0x28
     13c:	1a 39       	cpi	r17, 0x9A	; 154
     13e:	68 56       	subi	r22, 0x68	; 104
     140:	18 ae       	std	Y+56, r1	; 0x38
     142:	ba ab       	std	Y+50, r27	; 0x32
     144:	55 8c       	ldd	r5, Z+29	; 0x1d
     146:	1d 3c       	cpi	r17, 0xCD	; 205
     148:	b7 cc       	rjmp	.-1682   	; 0xfffffab8 <__eeprom_end+0xff7efab8>
     14a:	57 63       	ori	r21, 0x37	; 55
     14c:	bd 6d       	ori	r27, 0xDD	; 221
     14e:	ed fd       	.word	0xfded	; ????
     150:	75 3e       	cpi	r23, 0xE5	; 229
     152:	f6 17       	cp	r31, r22
     154:	72 31       	cpi	r23, 0x12	; 18
     156:	bf 00       	.word	0x00bf	; ????
     158:	00 00       	nop
     15a:	80 3f       	cpi	r24, 0xF0	; 240
     15c:	08 00       	.word	0x0008	; ????
     15e:	00 00       	nop
     160:	be 92       	st	-X, r11
     162:	24 49       	sbci	r18, 0x94	; 148
     164:	12 3e       	cpi	r17, 0xE2	; 226
     166:	ab aa       	std	Y+51, r10	; 0x33
     168:	aa 2a       	or	r10, r26
     16a:	be cd       	rjmp	.-1156   	; 0xfffffce8 <__eeprom_end+0xff7efce8>
     16c:	cc cc       	rjmp	.-1640   	; 0xfffffb06 <__eeprom_end+0xff7efb06>
     16e:	4c 3e       	cpi	r20, 0xEC	; 236
     170:	00 00       	nop
     172:	00 80       	ld	r0, Z
     174:	be ab       	std	Y+54, r27	; 0x36
     176:	aa aa       	std	Y+50, r10	; 0x32
     178:	aa 3e       	cpi	r26, 0xEA	; 234
     17a:	00 00       	nop
     17c:	00 00       	nop
     17e:	bf 00       	.word	0x00bf	; ????
     180:	00 00       	nop
     182:	80 3f       	cpi	r24, 0xF0	; 240
     184:	00 00       	nop
     186:	00 00       	nop
     188:	00 08       	sbc	r0, r0
     18a:	41 78       	andi	r20, 0x81	; 129
     18c:	d3 bb       	out	0x13, r29	; 19
     18e:	43 87       	std	Z+11, r20	; 0x0b
     190:	d1 13       	cpse	r29, r17
     192:	3d 19       	sub	r19, r13
     194:	0e 3c       	cpi	r16, 0xCE	; 206
     196:	c3 bd       	out	0x23, r28	; 35
     198:	42 82       	std	Z+2, r4	; 0x02
     19a:	ad 2b       	or	r26, r29
     19c:	3e 68       	ori	r19, 0x8E	; 142
     19e:	ec 82       	std	Y+4, r14	; 0x04
     1a0:	76 be       	out	0x36, r7	; 54
     1a2:	d9 8f       	std	Y+25, r29	; 0x19
     1a4:	e1 a9       	ldd	r30, Z+49	; 0x31
     1a6:	3e 4c       	sbci	r19, 0xCE	; 206
     1a8:	80 ef       	ldi	r24, 0xF0	; 240
     1aa:	ff be       	out	0x3f, r15	; 63
     1ac:	01 c4       	rjmp	.+2050   	; 0x9b0 <ADCSmaple+0x78>
     1ae:	ff 7f       	andi	r31, 0xFF	; 255
     1b0:	3f 00       	.word	0x003f	; ????
     1b2:	00 00       	nop
	...

000001b6 <__trampolines_end>:
     1b6:	6e 61       	ori	r22, 0x1E	; 30
     1b8:	6e 00       	.word	0x006e	; ????

000001ba <__c.2332>:
     1ba:	69 6e 66 00 00 40 7a 10 f3 5a 00 a0 72 4e 18 09     inf..@z..Z..rN..
     1ca:	00 10 a5 d4 e8 00 00 e8 76 48 17 00 00 e4 0b 54     ........vH.....T
     1da:	02 00 00 ca 9a 3b 00 00 00 e1 f5 05 00 00 80 96     .....;..........
     1ea:	98 00 00 00 40 42 0f 00 00 00 a0 86 01 00 00 00     ....@B..........
     1fa:	10 27 00 00 00 00 e8 03 00 00 00 00 64 00 00 00     .'..........d...
     20a:	00 00 0a 00 00 00 00 00 01 00 00 00 00 00 2c 76     ..............,v
     21a:	d8 88 dc 67 4f 08 23 df c1 df ae 59 e1 b1 b7 96     ...gO.#....Y....
     22a:	e5 e3 e4 53 c6 3a e6 51 99 76 96 e8 e6 c2 84 26     ...S.:.Q.v.....&
     23a:	eb 89 8c 9b 62 ed 40 7c 6f fc ef bc 9c 9f 40 f2     ....b.@|o.....@.
     24a:	ba a5 6f a5 f4 90 05 5a 2a f7 5c 93 6b 6c f9 67     ..o....Z*.\.kl.g
     25a:	6d c1 1b fc e0 e4 0d 47 fe f5 20 e6 b5 00 d0 ed     m......G.. .....
     26a:	90 2e 03 00 94 35 77 05 00 80 84 1e 08 00 00 20     .....5w........ 
     27a:	4e 0a 00 00 00 c8 0c 33 33 33 33 0f 98 6e 12 83     N......3333..n..
     28a:	11 41 ef 8d 21 14 89 3b e6 55 16 cf fe e6 db 18     .A..!..;.U......
     29a:	d1 84 4b 38 1b f7 7c 1d 90 1d a4 bb e4 24 20 32     ..K8..|......$ 2
     2aa:	84 72 5e 22 81 00 c9 f1 24 ec a1 e5 3d 27           .r^"....$...='

000002b8 <__progmem_smartbow_start>:
     2b8:	26 26 53 55 50 45 52 48 48 48 31 31 31 34 30 31     &&SUPERHHH111401
     2c8:	26 26 32 00 00 00 00 00 00 00 00 00 00 00 00 00     &&2.............
	...

000002f8 <__ctors_end>:
     2f8:	11 24       	eor	r1, r1
     2fa:	1f be       	out	0x3f, r1	; 63
     2fc:	cf ef       	ldi	r28, 0xFF	; 255
     2fe:	d8 e0       	ldi	r29, 0x08	; 8
     300:	de bf       	out	0x3e, r29	; 62
     302:	cd bf       	out	0x3d, r28	; 61

00000304 <__do_copy_data>:
     304:	11 e0       	ldi	r17, 0x01	; 1
     306:	a0 e0       	ldi	r26, 0x00	; 0
     308:	b1 e0       	ldi	r27, 0x01	; 1
     30a:	e4 ec       	ldi	r30, 0xC4	; 196
     30c:	f7 e5       	ldi	r31, 0x57	; 87
     30e:	02 c0       	rjmp	.+4      	; 0x314 <__do_copy_data+0x10>
     310:	05 90       	lpm	r0, Z+
     312:	0d 92       	st	X+, r0
     314:	a2 32       	cpi	r26, 0x22	; 34
     316:	b1 07       	cpc	r27, r17
     318:	d9 f7       	brne	.-10     	; 0x310 <__do_copy_data+0xc>

0000031a <__do_clear_bss>:
     31a:	24 e0       	ldi	r18, 0x04	; 4
     31c:	a2 e2       	ldi	r26, 0x22	; 34
     31e:	b1 e0       	ldi	r27, 0x01	; 1
     320:	01 c0       	rjmp	.+2      	; 0x324 <.do_clear_bss_start>

00000322 <.do_clear_bss_loop>:
     322:	1d 92       	st	X+, r1

00000324 <.do_clear_bss_start>:
     324:	a4 3d       	cpi	r26, 0xD4	; 212
     326:	b2 07       	cpc	r27, r18
     328:	e1 f7       	brne	.-8      	; 0x322 <.do_clear_bss_loop>
     32a:	0e 94 fb 1f 	call	0x3ff6	; 0x3ff6 <main>
     32e:	0c 94 e0 2b 	jmp	0x57c0	; 0x57c0 <_exit>

00000332 <__bad_interrupt>:
     332:	0c 94 00 00 	jmp	0	; 0x0 <__vectors>

00000336 <ADS8325_Start>:
	ADS8325_CS_L;
}
void ADS8325_Reset(void)
{
	ADS8325_SCK_L;
	ADS8325_CS_H;
     336:	41 98       	cbi	0x08, 1	; 8
     338:	42 9a       	sbi	0x08, 2	; 8
     33a:	08 95       	ret

0000033c <ADS8325_GetData>:
uint16_t ADS8325_GetData(void)
{
		uint8_t i,j;
		uint32_t raw_data = 0;

			ADS8325_CS_L;
     33c:	42 98       	cbi	0x08, 2	; 8
     33e:	84 e1       	ldi	r24, 0x14	; 20
			// Clock 0~5 for sample, clock 6~21 for conversion and data output
			for(j=0;j<20;j++){ __asm("nop");}
     340:	00 00       	nop
     342:	81 50       	subi	r24, 0x01	; 1
     344:	e9 f7       	brne	.-6      	; 0x340 <ADS8325_GetData+0x4>
     346:	26 e1       	ldi	r18, 0x16	; 22
     348:	40 e0       	ldi	r20, 0x00	; 0
     34a:	50 e0       	ldi	r21, 0x00	; 0
     34c:	ba 01       	movw	r22, r20
			for (i = 0; i < 22; i++)
			{		
				ADS8325_SCK_H;
     34e:	41 9a       	sbi	0x08, 1	; 8
     350:	94 e1       	ldi	r25, 0x14	; 20
				for(j=0;j<20;j++){ __asm("nop");}
     352:	00 00       	nop
     354:	91 50       	subi	r25, 0x01	; 1
     356:	e9 f7       	brne	.-6      	; 0x352 <ADS8325_GetData+0x16>
				raw_data <<=1;
     358:	44 0f       	add	r20, r20
     35a:	55 1f       	adc	r21, r21
     35c:	66 1f       	adc	r22, r22
     35e:	77 1f       	adc	r23, r23
				raw_data |= ReadADS8325;	// Read a byte from data out
     360:	86 b1       	in	r24, 0x06	; 6
     362:	81 70       	andi	r24, 0x01	; 1
     364:	48 2b       	or	r20, r24
				ADS8325_SCK_L;
     366:	41 98       	cbi	0x08, 1	; 8
     368:	94 e1       	ldi	r25, 0x14	; 20
				for(j=0;j<20;j++){ __asm("nop");}
     36a:	00 00       	nop
     36c:	91 50       	subi	r25, 0x01	; 1
     36e:	e9 f7       	brne	.-6      	; 0x36a <ADS8325_GetData+0x2e>
     370:	21 50       	subi	r18, 0x01	; 1
		uint32_t raw_data = 0;

			ADS8325_CS_L;
			// Clock 0~5 for sample, clock 6~21 for conversion and data output
			for(j=0;j<20;j++){ __asm("nop");}
			for (i = 0; i < 22; i++)
     372:	69 f7       	brne	.-38     	; 0x34e <ADS8325_GetData+0x12>
				raw_data <<=1;
				raw_data |= ReadADS8325;	// Read a byte from data out
				ADS8325_SCK_L;
				for(j=0;j<20;j++){ __asm("nop");}
			}
			ADS8325_CS_H;
     374:	42 9a       	sbi	0x08, 2	; 8
     376:	83 e0       	ldi	r24, 0x03	; 3
			for(i = 0;i < 3;i++)
			{
				ADS8325_SCK_H;
     378:	41 9a       	sbi	0x08, 1	; 8
     37a:	94 e1       	ldi	r25, 0x14	; 20
				for(j=0;j<20;j++){ __asm("nop");}
     37c:	00 00       	nop
     37e:	91 50       	subi	r25, 0x01	; 1
     380:	e9 f7       	brne	.-6      	; 0x37c <ADS8325_GetData+0x40>
				ADS8325_SCK_L;
     382:	41 98       	cbi	0x08, 1	; 8
     384:	94 e1       	ldi	r25, 0x14	; 20
				for(j=0;j<20;j++){ __asm("nop");}
     386:	00 00       	nop
     388:	91 50       	subi	r25, 0x01	; 1
     38a:	e9 f7       	brne	.-6      	; 0x386 <ADS8325_GetData+0x4a>
     38c:	81 50       	subi	r24, 0x01	; 1
				raw_data |= ReadADS8325;	// Read a byte from data out
				ADS8325_SCK_L;
				for(j=0;j<20;j++){ __asm("nop");}
			}
			ADS8325_CS_H;
			for(i = 0;i < 3;i++)
     38e:	a1 f7       	brne	.-24     	; 0x378 <ADS8325_GetData+0x3c>
				ADS8325_SCK_L;
				for(j=0;j<20;j++){ __asm("nop");}
			}
			
		return raw_data & 0xffff;
}
     390:	ca 01       	movw	r24, r20
     392:	08 95       	ret

00000394 <TWI_init>:
	if (TWIGetStatus() != 0x58)
	return ERROR;
	TWIStop();
	//Delay_ms(5);
	return SUCCESS;
}
     394:	81 e4       	ldi	r24, 0x41	; 65
     396:	80 93 b8 00 	sts	0x00B8, r24	; 0x8000b8 <__TEXT_REGION_LENGTH__+0x7e00b8>
     39a:	10 92 b9 00 	sts	0x00B9, r1	; 0x8000b9 <__TEXT_REGION_LENGTH__+0x7e00b9>
     39e:	84 e0       	ldi	r24, 0x04	; 4
     3a0:	80 93 bc 00 	sts	0x00BC, r24	; 0x8000bc <__TEXT_REGION_LENGTH__+0x7e00bc>
     3a4:	08 95       	ret

000003a6 <TWIStart>:
     3a6:	84 ea       	ldi	r24, 0xA4	; 164
     3a8:	80 93 bc 00 	sts	0x00BC, r24	; 0x8000bc <__TEXT_REGION_LENGTH__+0x7e00bc>
     3ac:	ec eb       	ldi	r30, 0xBC	; 188
     3ae:	f0 e0       	ldi	r31, 0x00	; 0
     3b0:	80 81       	ld	r24, Z
     3b2:	88 23       	and	r24, r24
     3b4:	ec f7       	brge	.-6      	; 0x3b0 <TWIStart+0xa>
     3b6:	08 95       	ret

000003b8 <TWIStop>:
     3b8:	84 e9       	ldi	r24, 0x94	; 148
     3ba:	80 93 bc 00 	sts	0x00BC, r24	; 0x8000bc <__TEXT_REGION_LENGTH__+0x7e00bc>
     3be:	ec eb       	ldi	r30, 0xBC	; 188
     3c0:	f0 e0       	ldi	r31, 0x00	; 0
     3c2:	80 81       	ld	r24, Z
     3c4:	84 fd       	sbrc	r24, 4
     3c6:	fd cf       	rjmp	.-6      	; 0x3c2 <TWIStop+0xa>
     3c8:	08 95       	ret

000003ca <TWIWrite>:
     3ca:	80 93 bb 00 	sts	0x00BB, r24	; 0x8000bb <__TEXT_REGION_LENGTH__+0x7e00bb>
     3ce:	84 e8       	ldi	r24, 0x84	; 132
     3d0:	80 93 bc 00 	sts	0x00BC, r24	; 0x8000bc <__TEXT_REGION_LENGTH__+0x7e00bc>
     3d4:	ec eb       	ldi	r30, 0xBC	; 188
     3d6:	f0 e0       	ldi	r31, 0x00	; 0
     3d8:	80 81       	ld	r24, Z
     3da:	88 23       	and	r24, r24
     3dc:	ec f7       	brge	.-6      	; 0x3d8 <TWIWrite+0xe>
     3de:	08 95       	ret

000003e0 <TWIReadACK>:
     3e0:	84 ec       	ldi	r24, 0xC4	; 196
     3e2:	80 93 bc 00 	sts	0x00BC, r24	; 0x8000bc <__TEXT_REGION_LENGTH__+0x7e00bc>
     3e6:	ec eb       	ldi	r30, 0xBC	; 188
     3e8:	f0 e0       	ldi	r31, 0x00	; 0
     3ea:	80 81       	ld	r24, Z
     3ec:	88 23       	and	r24, r24
     3ee:	ec f7       	brge	.-6      	; 0x3ea <TWIReadACK+0xa>
     3f0:	80 91 bb 00 	lds	r24, 0x00BB	; 0x8000bb <__TEXT_REGION_LENGTH__+0x7e00bb>
     3f4:	08 95       	ret

000003f6 <TWIReadNACK>:
     3f6:	84 e8       	ldi	r24, 0x84	; 132
     3f8:	80 93 bc 00 	sts	0x00BC, r24	; 0x8000bc <__TEXT_REGION_LENGTH__+0x7e00bc>
     3fc:	ec eb       	ldi	r30, 0xBC	; 188
     3fe:	f0 e0       	ldi	r31, 0x00	; 0
     400:	80 81       	ld	r24, Z
     402:	88 23       	and	r24, r24
     404:	ec f7       	brge	.-6      	; 0x400 <__LOCK_REGION_LENGTH__>
     406:	80 91 bb 00 	lds	r24, 0x00BB	; 0x8000bb <__TEXT_REGION_LENGTH__+0x7e00bb>
     40a:	08 95       	ret

0000040c <EEWritePage>:
* Input          : None
* Output         : None
* Return         : None
*******************************************************************************/
uint8_t EEWritePage(unsigned short addr, unsigned char *pdata,unsigned char length)
{
     40c:	ef 92       	push	r14
     40e:	ff 92       	push	r15
     410:	0f 93       	push	r16
     412:	1f 93       	push	r17
     414:	cf 93       	push	r28
     416:	df 93       	push	r29
     418:	08 2f       	mov	r16, r24
     41a:	19 2f       	mov	r17, r25
     41c:	eb 01       	movw	r28, r22
     41e:	f4 2e       	mov	r15, r20
	//calculate page address
	TWIStart();
     420:	0e 94 d3 01 	call	0x3a6	; 0x3a6 <TWIStart>

uint8_t TWIGetStatus(void)
{
	uint8_t status;
	//mask status
	status = TWSR & 0xF8;
     424:	80 91 b9 00 	lds	r24, 0x00B9	; 0x8000b9 <__TEXT_REGION_LENGTH__+0x7e00b9>
*******************************************************************************/
uint8_t EEWritePage(unsigned short addr, unsigned char *pdata,unsigned char length)
{
	//calculate page address
	TWIStart();
	if (TWIGetStatus() != 0x08)
     428:	88 7f       	andi	r24, 0xF8	; 248
     42a:	88 30       	cpi	r24, 0x08	; 8
     42c:	b1 f5       	brne	.+108    	; 0x49a <EEWritePage+0x8e>
	return ERROR;
	//select page start address and send A2 A1 A0 bits send write command
	TWIWrite(EEDEVADR&0XFE);
     42e:	80 ea       	ldi	r24, 0xA0	; 160
     430:	0e 94 e5 01 	call	0x3ca	; 0x3ca <TWIWrite>

uint8_t TWIGetStatus(void)
{
	uint8_t status;
	//mask status
	status = TWSR & 0xF8;
     434:	80 91 b9 00 	lds	r24, 0x00B9	; 0x8000b9 <__TEXT_REGION_LENGTH__+0x7e00b9>
	TWIStart();
	if (TWIGetStatus() != 0x08)
	return ERROR;
	//select page start address and send A2 A1 A0 bits send write command
	TWIWrite(EEDEVADR&0XFE);
	if (TWIGetStatus() != 0x18)
     438:	88 7f       	andi	r24, 0xF8	; 248
     43a:	88 31       	cpi	r24, 0x18	; 24
     43c:	81 f5       	brne	.+96     	; 0x49e <EEWritePage+0x92>
	return ERROR;
	//send the rest of address
	TWIWrite( ((uint8_t)(addr>>8)) );
     43e:	81 2f       	mov	r24, r17
     440:	0e 94 e5 01 	call	0x3ca	; 0x3ca <TWIWrite>

uint8_t TWIGetStatus(void)
{
	uint8_t status;
	//mask status
	status = TWSR & 0xF8;
     444:	80 91 b9 00 	lds	r24, 0x00B9	; 0x8000b9 <__TEXT_REGION_LENGTH__+0x7e00b9>
	TWIWrite(EEDEVADR&0XFE);
	if (TWIGetStatus() != 0x18)
	return ERROR;
	//send the rest of address
	TWIWrite( ((uint8_t)(addr>>8)) );
	if (TWIGetStatus() != 0x28)
     448:	88 7f       	andi	r24, 0xF8	; 248
     44a:	88 32       	cpi	r24, 0x28	; 40
     44c:	51 f5       	brne	.+84     	; 0x4a2 <EEWritePage+0x96>
	return ERROR;
	TWIWrite( ((uint8_t)(addr)) );
     44e:	80 2f       	mov	r24, r16
     450:	0e 94 e5 01 	call	0x3ca	; 0x3ca <TWIWrite>

uint8_t TWIGetStatus(void)
{
	uint8_t status;
	//mask status
	status = TWSR & 0xF8;
     454:	80 91 b9 00 	lds	r24, 0x00B9	; 0x8000b9 <__TEXT_REGION_LENGTH__+0x7e00b9>
	//send the rest of address
	TWIWrite( ((uint8_t)(addr>>8)) );
	if (TWIGetStatus() != 0x28)
	return ERROR;
	TWIWrite( ((uint8_t)(addr)) );
	if (TWIGetStatus() != 0x28)
     458:	88 7f       	andi	r24, 0xF8	; 248
     45a:	88 32       	cpi	r24, 0x28	; 40
     45c:	21 f5       	brne	.+72     	; 0x4a6 <EEWritePage+0x9a>
     45e:	8e 01       	movw	r16, r28
     460:	cf 0d       	add	r28, r15
     462:	d1 1d       	adc	r29, r1

uint8_t TWIGetStatus(void)
{
	uint8_t status;
	//mask status
	status = TWSR & 0xF8;
     464:	0f 2e       	mov	r0, r31
     466:	f9 eb       	ldi	r31, 0xB9	; 185
     468:	ef 2e       	mov	r14, r31
     46a:	f1 2c       	mov	r15, r1
     46c:	f0 2d       	mov	r31, r0
     46e:	0a c0       	rjmp	.+20     	; 0x484 <EEWritePage+0x78>
	return ERROR;
	
	//write page to eeprom
	while(length--)
	{
		TWIWrite(*pdata++);
     470:	f8 01       	movw	r30, r16
     472:	81 91       	ld	r24, Z+
     474:	8f 01       	movw	r16, r30
     476:	0e 94 e5 01 	call	0x3ca	; 0x3ca <TWIWrite>

uint8_t TWIGetStatus(void)
{
	uint8_t status;
	//mask status
	status = TWSR & 0xF8;
     47a:	f7 01       	movw	r30, r14
     47c:	80 81       	ld	r24, Z
	
	//write page to eeprom
	while(length--)
	{
		TWIWrite(*pdata++);
		if (TWIGetStatus() != 0x28)
     47e:	88 7f       	andi	r24, 0xF8	; 248
     480:	88 32       	cpi	r24, 0x28	; 40
     482:	99 f4       	brne	.+38     	; 0x4aa <EEWritePage+0x9e>
	TWIWrite( ((uint8_t)(addr)) );
	if (TWIGetStatus() != 0x28)
	return ERROR;
	
	//write page to eeprom
	while(length--)
     484:	0c 17       	cp	r16, r28
     486:	1d 07       	cpc	r17, r29
     488:	99 f7       	brne	.-26     	; 0x470 <EEWritePage+0x64>
	{
		TWIWrite(*pdata++);
		if (TWIGetStatus() != 0x28)
		return ERROR;
	}
	TWIStop();
     48a:	0e 94 dc 01 	call	0x3b8	; 0x3b8 <TWIStop>
	Delay_ms(5);
     48e:	85 e0       	ldi	r24, 0x05	; 5
     490:	90 e0       	ldi	r25, 0x00	; 0
     492:	0e 94 a1 03 	call	0x742	; 0x742 <Delay_ms>
	return SUCCESS;
     496:	81 e0       	ldi	r24, 0x01	; 1
     498:	09 c0       	rjmp	.+18     	; 0x4ac <EEWritePage+0xa0>
uint8_t EEWritePage(unsigned short addr, unsigned char *pdata,unsigned char length)
{
	//calculate page address
	TWIStart();
	if (TWIGetStatus() != 0x08)
	return ERROR;
     49a:	80 e0       	ldi	r24, 0x00	; 0
     49c:	07 c0       	rjmp	.+14     	; 0x4ac <EEWritePage+0xa0>
	//select page start address and send A2 A1 A0 bits send write command
	TWIWrite(EEDEVADR&0XFE);
	if (TWIGetStatus() != 0x18)
	return ERROR;
     49e:	80 e0       	ldi	r24, 0x00	; 0
     4a0:	05 c0       	rjmp	.+10     	; 0x4ac <EEWritePage+0xa0>
	//send the rest of address
	TWIWrite( ((uint8_t)(addr>>8)) );
	if (TWIGetStatus() != 0x28)
	return ERROR;
     4a2:	80 e0       	ldi	r24, 0x00	; 0
     4a4:	03 c0       	rjmp	.+6      	; 0x4ac <EEWritePage+0xa0>
	TWIWrite( ((uint8_t)(addr)) );
	if (TWIGetStatus() != 0x28)
	return ERROR;
     4a6:	80 e0       	ldi	r24, 0x00	; 0
     4a8:	01 c0       	rjmp	.+2      	; 0x4ac <EEWritePage+0xa0>
	//write page to eeprom
	while(length--)
	{
		TWIWrite(*pdata++);
		if (TWIGetStatus() != 0x28)
		return ERROR;
     4aa:	80 e0       	ldi	r24, 0x00	; 0
	}
	TWIStop();
	Delay_ms(5);
	return SUCCESS;
}
     4ac:	df 91       	pop	r29
     4ae:	cf 91       	pop	r28
     4b0:	1f 91       	pop	r17
     4b2:	0f 91       	pop	r16
     4b4:	ff 90       	pop	r15
     4b6:	ef 90       	pop	r14
     4b8:	08 95       	ret

000004ba <EEWrite>:
* Input          : None
* Output         : None
* Return         : None
*******************************************************************************/
uint8_t EEWrite(unsigned short addr, unsigned char *pbuff,unsigned short length)
{
     4ba:	cf 92       	push	r12
     4bc:	df 92       	push	r13
     4be:	ef 92       	push	r14
     4c0:	ff 92       	push	r15
     4c2:	0f 93       	push	r16
     4c4:	1f 93       	push	r17
     4c6:	cf 93       	push	r28
     4c8:	df 93       	push	r29
     4ca:	8c 01       	movw	r16, r24
     4cc:	7b 01       	movw	r14, r22
     4ce:	ea 01       	movw	r28, r20
	unsigned char temp;
	temp=addr%I2C_PAGESIZE;
     4d0:	8f 71       	andi	r24, 0x1F	; 31
	if(temp)
     4d2:	81 f0       	breq	.+32     	; 0x4f4 <EEWrite+0x3a>
	{
		temp=I2C_PAGESIZE-temp;
     4d4:	40 e2       	ldi	r20, 0x20	; 32
     4d6:	48 1b       	sub	r20, r24
		if(length>=temp)
     4d8:	c4 2e       	mov	r12, r20
     4da:	d1 2c       	mov	r13, r1
     4dc:	cc 15       	cp	r28, r12
     4de:	dd 05       	cpc	r29, r13
     4e0:	68 f0       	brcs	.+26     	; 0x4fc <EEWrite+0x42>
		{
			EEWritePage(addr,pbuff,temp);
     4e2:	c8 01       	movw	r24, r16
     4e4:	0e 94 06 02 	call	0x40c	; 0x40c <EEWritePage>
			length -= temp;
     4e8:	cc 19       	sub	r28, r12
     4ea:	dd 09       	sbc	r29, r13
			addr += temp;
     4ec:	0c 0d       	add	r16, r12
     4ee:	1d 1d       	adc	r17, r13
			pbuff += temp;
     4f0:	ec 0c       	add	r14, r12
     4f2:	fd 1c       	adc	r15, r13
			if(EEWritePage(addr,pbuff,length) == ERROR)return ERROR;
			length=0;
		}
	}
	
	while(length)
     4f4:	20 97       	sbiw	r28, 0x00	; 0
     4f6:	59 f4       	brne	.+22     	; 0x50e <EEWrite+0x54>
		{
			if(EEWritePage(addr,pbuff,length) == ERROR)return ERROR;
			length=0;
		}
	}
	return SUCCESS;
     4f8:	91 e0       	ldi	r25, 0x01	; 1
     4fa:	27 c0       	rjmp	.+78     	; 0x54a <EEWrite+0x90>
			addr += temp;
			pbuff += temp;
		}
		else
		{
			if(EEWritePage(addr,pbuff,length) == ERROR)return ERROR;
     4fc:	4c 2f       	mov	r20, r28
     4fe:	c8 01       	movw	r24, r16
     500:	0e 94 06 02 	call	0x40c	; 0x40c <EEWritePage>
     504:	91 e0       	ldi	r25, 0x01	; 1
     506:	81 11       	cpse	r24, r1
     508:	20 c0       	rjmp	.+64     	; 0x54a <EEWrite+0x90>
     50a:	90 e0       	ldi	r25, 0x00	; 0
     50c:	1e c0       	rjmp	.+60     	; 0x54a <EEWrite+0x90>
		}
	}
	
	while(length)
	{
		if(length>=I2C_PAGESIZE)
     50e:	c0 32       	cpi	r28, 0x20	; 32
     510:	d1 05       	cpc	r29, r1
     512:	90 f0       	brcs	.+36     	; 0x538 <EEWrite+0x7e>
		{
			if(EEWritePage(addr,pbuff,I2C_PAGESIZE) == ERROR)return ERROR;
     514:	40 e2       	ldi	r20, 0x20	; 32
     516:	b7 01       	movw	r22, r14
     518:	c8 01       	movw	r24, r16
     51a:	0e 94 06 02 	call	0x40c	; 0x40c <EEWritePage>
     51e:	98 2f       	mov	r25, r24
     520:	88 23       	and	r24, r24
     522:	99 f0       	breq	.+38     	; 0x54a <EEWrite+0x90>
			length-=I2C_PAGESIZE;
     524:	a0 97       	sbiw	r28, 0x20	; 32
			addr+=I2C_PAGESIZE;
     526:	00 5e       	subi	r16, 0xE0	; 224
     528:	1f 4f       	sbci	r17, 0xFF	; 255
			pbuff+=I2C_PAGESIZE;
     52a:	80 e2       	ldi	r24, 0x20	; 32
     52c:	e8 0e       	add	r14, r24
     52e:	f1 1c       	adc	r15, r1
			if(EEWritePage(addr,pbuff,length) == ERROR)return ERROR;
			length=0;
		}
	}
	
	while(length)
     530:	20 97       	sbiw	r28, 0x00	; 0
     532:	69 f7       	brne	.-38     	; 0x50e <EEWrite+0x54>
		{
			if(EEWritePage(addr,pbuff,length) == ERROR)return ERROR;
			length=0;
		}
	}
	return SUCCESS;
     534:	91 e0       	ldi	r25, 0x01	; 1
     536:	09 c0       	rjmp	.+18     	; 0x54a <EEWrite+0x90>
			addr+=I2C_PAGESIZE;
			pbuff+=I2C_PAGESIZE;
		}
		else
		{
			if(EEWritePage(addr,pbuff,length) == ERROR)return ERROR;
     538:	4c 2f       	mov	r20, r28
     53a:	b7 01       	movw	r22, r14
     53c:	c8 01       	movw	r24, r16
     53e:	0e 94 06 02 	call	0x40c	; 0x40c <EEWritePage>
			addr += temp;
			pbuff += temp;
		}
		else
		{
			if(EEWritePage(addr,pbuff,length) == ERROR)return ERROR;
     542:	91 e0       	ldi	r25, 0x01	; 1
     544:	81 11       	cpse	r24, r1
     546:	01 c0       	rjmp	.+2      	; 0x54a <EEWrite+0x90>
     548:	90 e0       	ldi	r25, 0x00	; 0
			if(EEWritePage(addr,pbuff,length) == ERROR)return ERROR;
			length=0;
		}
	}
	return SUCCESS;
}
     54a:	89 2f       	mov	r24, r25
     54c:	df 91       	pop	r29
     54e:	cf 91       	pop	r28
     550:	1f 91       	pop	r17
     552:	0f 91       	pop	r16
     554:	ff 90       	pop	r15
     556:	ef 90       	pop	r14
     558:	df 90       	pop	r13
     55a:	cf 90       	pop	r12
     55c:	08 95       	ret

0000055e <EEWrite_E>:
* Input          : None
* Output         : None
* Return         : None
*******************************************************************************/
uint8_t EEWrite_E(unsigned short addr, unsigned char *pbuff,unsigned short length)
{
     55e:	cf 92       	push	r12
     560:	df 92       	push	r13
     562:	ef 92       	push	r14
     564:	ff 92       	push	r15
     566:	0f 93       	push	r16
     568:	1f 93       	push	r17
     56a:	cf 93       	push	r28
     56c:	df 93       	push	r29
     56e:	8c 01       	movw	r16, r24
     570:	7b 01       	movw	r14, r22
     572:	ea 01       	movw	r28, r20
	unsigned char temp;
	temp=addr%I2C_PAGESIZE;
     574:	8f 71       	andi	r24, 0x1F	; 31
	if(temp)
     576:	71 f0       	breq	.+28     	; 0x594 <EEWrite_E+0x36>
	{
		temp=I2C_PAGESIZE-temp;
     578:	40 e2       	ldi	r20, 0x20	; 32
     57a:	48 1b       	sub	r20, r24
		if(length>=temp)
     57c:	c4 2e       	mov	r12, r20
     57e:	d1 2c       	mov	r13, r1
     580:	cc 15       	cp	r28, r12
     582:	dd 05       	cpc	r29, r13
     584:	58 f0       	brcs	.+22     	; 0x59c <EEWrite_E+0x3e>
		{
			EEWritePage(addr,pbuff,temp);
     586:	c8 01       	movw	r24, r16
     588:	0e 94 06 02 	call	0x40c	; 0x40c <EEWritePage>
			length -= temp;
     58c:	cc 19       	sub	r28, r12
     58e:	dd 09       	sbc	r29, r13
			addr += temp;
     590:	0c 0d       	add	r16, r12
     592:	1d 1d       	adc	r17, r13
			if(EEWritePage(addr,pbuff,length) == ERROR)return ERROR;
			length=0;
		}
	}
	
	while(length)
     594:	20 97       	sbiw	r28, 0x00	; 0
     596:	59 f4       	brne	.+22     	; 0x5ae <EEWrite_E+0x50>
		{
			if(EEWritePage(addr,pbuff,length) == ERROR)return ERROR;
			length=0;
		}
	}
	return SUCCESS;
     598:	91 e0       	ldi	r25, 0x01	; 1
     59a:	24 c0       	rjmp	.+72     	; 0x5e4 <EEWrite_E+0x86>
			addr += temp;
			//pbuff += temp;
		}
		else
		{
			if(EEWritePage(addr,pbuff,length) == ERROR)return ERROR;
     59c:	4c 2f       	mov	r20, r28
     59e:	c8 01       	movw	r24, r16
     5a0:	0e 94 06 02 	call	0x40c	; 0x40c <EEWritePage>
     5a4:	91 e0       	ldi	r25, 0x01	; 1
     5a6:	81 11       	cpse	r24, r1
     5a8:	1d c0       	rjmp	.+58     	; 0x5e4 <EEWrite_E+0x86>
     5aa:	90 e0       	ldi	r25, 0x00	; 0
     5ac:	1b c0       	rjmp	.+54     	; 0x5e4 <EEWrite_E+0x86>
		}
	}
	
	while(length)
	{
		if(length>=I2C_PAGESIZE)
     5ae:	c0 32       	cpi	r28, 0x20	; 32
     5b0:	d1 05       	cpc	r29, r1
     5b2:	78 f0       	brcs	.+30     	; 0x5d2 <EEWrite_E+0x74>
		{
			if(EEWritePage(addr,pbuff,I2C_PAGESIZE) == ERROR)return ERROR;
     5b4:	40 e2       	ldi	r20, 0x20	; 32
     5b6:	b7 01       	movw	r22, r14
     5b8:	c8 01       	movw	r24, r16
     5ba:	0e 94 06 02 	call	0x40c	; 0x40c <EEWritePage>
     5be:	98 2f       	mov	r25, r24
     5c0:	88 23       	and	r24, r24
     5c2:	81 f0       	breq	.+32     	; 0x5e4 <EEWrite_E+0x86>
			length-=I2C_PAGESIZE;
     5c4:	a0 97       	sbiw	r28, 0x20	; 32
			addr+=I2C_PAGESIZE;
     5c6:	00 5e       	subi	r16, 0xE0	; 224
     5c8:	1f 4f       	sbci	r17, 0xFF	; 255
			if(EEWritePage(addr,pbuff,length) == ERROR)return ERROR;
			length=0;
		}
	}
	
	while(length)
     5ca:	20 97       	sbiw	r28, 0x00	; 0
     5cc:	81 f7       	brne	.-32     	; 0x5ae <EEWrite_E+0x50>
		{
			if(EEWritePage(addr,pbuff,length) == ERROR)return ERROR;
			length=0;
		}
	}
	return SUCCESS;
     5ce:	91 e0       	ldi	r25, 0x01	; 1
     5d0:	09 c0       	rjmp	.+18     	; 0x5e4 <EEWrite_E+0x86>
			addr+=I2C_PAGESIZE;
			//pbuff+=I2C_PAGESIZE;
		}
		else
		{
			if(EEWritePage(addr,pbuff,length) == ERROR)return ERROR;
     5d2:	4c 2f       	mov	r20, r28
     5d4:	b7 01       	movw	r22, r14
     5d6:	c8 01       	movw	r24, r16
     5d8:	0e 94 06 02 	call	0x40c	; 0x40c <EEWritePage>
			addr += temp;
			//pbuff += temp;
		}
		else
		{
			if(EEWritePage(addr,pbuff,length) == ERROR)return ERROR;
     5dc:	91 e0       	ldi	r25, 0x01	; 1
     5de:	81 11       	cpse	r24, r1
     5e0:	01 c0       	rjmp	.+2      	; 0x5e4 <EEWrite_E+0x86>
     5e2:	90 e0       	ldi	r25, 0x00	; 0
			if(EEWritePage(addr,pbuff,length) == ERROR)return ERROR;
			length=0;
		}
	}
	return SUCCESS;
}
     5e4:	89 2f       	mov	r24, r25
     5e6:	df 91       	pop	r29
     5e8:	cf 91       	pop	r28
     5ea:	1f 91       	pop	r17
     5ec:	0f 91       	pop	r16
     5ee:	ff 90       	pop	r15
     5f0:	ef 90       	pop	r14
     5f2:	df 90       	pop	r13
     5f4:	cf 90       	pop	r12
     5f6:	08 95       	ret

000005f8 <EERead>:
* Input          : None
* Output         : None
* Return         : None
*******************************************************************************/
uint8_t EERead(unsigned short addr, unsigned char *pbuff,unsigned short length)
{
     5f8:	ef 92       	push	r14
     5fa:	ff 92       	push	r15
     5fc:	0f 93       	push	r16
     5fe:	1f 93       	push	r17
     600:	cf 93       	push	r28
     602:	df 93       	push	r29
     604:	d8 2f       	mov	r29, r24
     606:	c9 2f       	mov	r28, r25
     608:	7b 01       	movw	r14, r22
     60a:	8a 01       	movw	r16, r20
	//calculate page address
	TWIStart();
     60c:	0e 94 d3 01 	call	0x3a6	; 0x3a6 <TWIStart>

uint8_t TWIGetStatus(void)
{
	uint8_t status;
	//mask status
	status = TWSR & 0xF8;
     610:	80 91 b9 00 	lds	r24, 0x00B9	; 0x8000b9 <__TEXT_REGION_LENGTH__+0x7e00b9>
*******************************************************************************/
uint8_t EERead(unsigned short addr, unsigned char *pbuff,unsigned short length)
{
	//calculate page address
	TWIStart();
	if (TWIGetStatus() != 0x08)
     614:	88 7f       	andi	r24, 0xF8	; 248
     616:	88 30       	cpi	r24, 0x08	; 8
     618:	09 f0       	breq	.+2      	; 0x61c <EERead+0x24>
     61a:	54 c0       	rjmp	.+168    	; 0x6c4 <EERead+0xcc>
	return ERROR;
	//select page start address and send A2 A1 A0 bits send write command
	TWIWrite(EEDEVADR&0XFE);
     61c:	80 ea       	ldi	r24, 0xA0	; 160
     61e:	0e 94 e5 01 	call	0x3ca	; 0x3ca <TWIWrite>

uint8_t TWIGetStatus(void)
{
	uint8_t status;
	//mask status
	status = TWSR & 0xF8;
     622:	80 91 b9 00 	lds	r24, 0x00B9	; 0x8000b9 <__TEXT_REGION_LENGTH__+0x7e00b9>
	TWIStart();
	if (TWIGetStatus() != 0x08)
	return ERROR;
	//select page start address and send A2 A1 A0 bits send write command
	TWIWrite(EEDEVADR&0XFE);
	if (TWIGetStatus() != 0x18)
     626:	88 7f       	andi	r24, 0xF8	; 248
     628:	88 31       	cpi	r24, 0x18	; 24
     62a:	09 f0       	breq	.+2      	; 0x62e <EERead+0x36>
     62c:	4d c0       	rjmp	.+154    	; 0x6c8 <EERead+0xd0>
	return ERROR;
	//send the rest of address
	TWIWrite( ((uint8_t)(addr>>8)) );
     62e:	8c 2f       	mov	r24, r28
     630:	0e 94 e5 01 	call	0x3ca	; 0x3ca <TWIWrite>

uint8_t TWIGetStatus(void)
{
	uint8_t status;
	//mask status
	status = TWSR & 0xF8;
     634:	80 91 b9 00 	lds	r24, 0x00B9	; 0x8000b9 <__TEXT_REGION_LENGTH__+0x7e00b9>
	TWIWrite(EEDEVADR&0XFE);
	if (TWIGetStatus() != 0x18)
	return ERROR;
	//send the rest of address
	TWIWrite( ((uint8_t)(addr>>8)) );
	if (TWIGetStatus() != 0x28)
     638:	88 7f       	andi	r24, 0xF8	; 248
     63a:	88 32       	cpi	r24, 0x28	; 40
     63c:	09 f0       	breq	.+2      	; 0x640 <EERead+0x48>
     63e:	46 c0       	rjmp	.+140    	; 0x6cc <EERead+0xd4>
	return ERROR;
	TWIWrite( ((uint8_t)(addr)) );
     640:	8d 2f       	mov	r24, r29
     642:	0e 94 e5 01 	call	0x3ca	; 0x3ca <TWIWrite>

uint8_t TWIGetStatus(void)
{
	uint8_t status;
	//mask status
	status = TWSR & 0xF8;
     646:	80 91 b9 00 	lds	r24, 0x00B9	; 0x8000b9 <__TEXT_REGION_LENGTH__+0x7e00b9>
	//send the rest of address
	TWIWrite( ((uint8_t)(addr>>8)) );
	if (TWIGetStatus() != 0x28)
	return ERROR;
	TWIWrite( ((uint8_t)(addr)) );
	if (TWIGetStatus() != 0x28)
     64a:	88 7f       	andi	r24, 0xF8	; 248
     64c:	88 32       	cpi	r24, 0x28	; 40
     64e:	09 f0       	breq	.+2      	; 0x652 <EERead+0x5a>
     650:	3f c0       	rjmp	.+126    	; 0x6d0 <EERead+0xd8>
	return ERROR;
	//send start
	TWIStart();
     652:	0e 94 d3 01 	call	0x3a6	; 0x3a6 <TWIStart>

uint8_t TWIGetStatus(void)
{
	uint8_t status;
	//mask status
	status = TWSR & 0xF8;
     656:	80 91 b9 00 	lds	r24, 0x00B9	; 0x8000b9 <__TEXT_REGION_LENGTH__+0x7e00b9>
	TWIWrite( ((uint8_t)(addr)) );
	if (TWIGetStatus() != 0x28)
	return ERROR;
	//send start
	TWIStart();
	if (TWIGetStatus() != 0x10)
     65a:	88 7f       	andi	r24, 0xF8	; 248
     65c:	80 31       	cpi	r24, 0x10	; 16
     65e:	d1 f5       	brne	.+116    	; 0x6d4 <EERead+0xdc>
	return ERROR;
	//select devise and send read bit
	TWIWrite(((EEDEVADR)|0X01));
     660:	81 ea       	ldi	r24, 0xA1	; 161
     662:	0e 94 e5 01 	call	0x3ca	; 0x3ca <TWIWrite>

uint8_t TWIGetStatus(void)
{
	uint8_t status;
	//mask status
	status = TWSR & 0xF8;
     666:	80 91 b9 00 	lds	r24, 0x00B9	; 0x8000b9 <__TEXT_REGION_LENGTH__+0x7e00b9>
	TWIStart();
	if (TWIGetStatus() != 0x10)
	return ERROR;
	//select devise and send read bit
	TWIWrite(((EEDEVADR)|0X01));
	if (TWIGetStatus() != 0x40)
     66a:	88 7f       	andi	r24, 0xF8	; 248
     66c:	80 34       	cpi	r24, 0x40	; 64
     66e:	a1 f5       	brne	.+104    	; 0x6d8 <EERead+0xe0>
	return ERROR;
	while(length)
     670:	01 15       	cp	r16, r1
     672:	11 05       	cpc	r17, r1
     674:	99 f1       	breq	.+102    	; 0x6dc <EERead+0xe4>
	{
		if(length==1)
     676:	01 30       	cpi	r16, 0x01	; 1
     678:	11 05       	cpc	r17, r1
     67a:	31 f0       	breq	.+12     	; 0x688 <EERead+0x90>

uint8_t TWIGetStatus(void)
{
	uint8_t status;
	//mask status
	status = TWSR & 0xF8;
     67c:	c9 eb       	ldi	r28, 0xB9	; 185
     67e:	d0 e0       	ldi	r29, 0x00	; 0
     680:	10 c0       	rjmp	.+32     	; 0x6a2 <EERead+0xaa>
	TWIWrite(((EEDEVADR)|0X01));
	if (TWIGetStatus() != 0x40)
	return ERROR;
	while(length)
	{
		if(length==1)
     682:	01 30       	cpi	r16, 0x01	; 1
     684:	11 05       	cpc	r17, r1
     686:	69 f4       	brne	.+26     	; 0x6a2 <EERead+0xaa>
		{
			*pbuff=TWIReadNACK();
     688:	0e 94 fb 01 	call	0x3f6	; 0x3f6 <TWIReadNACK>
     68c:	f7 01       	movw	r30, r14
     68e:	80 83       	st	Z, r24

uint8_t TWIGetStatus(void)
{
	uint8_t status;
	//mask status
	status = TWSR & 0xF8;
     690:	80 91 b9 00 	lds	r24, 0x00B9	; 0x8000b9 <__TEXT_REGION_LENGTH__+0x7e00b9>
	while(length)
	{
		if(length==1)
		{
			*pbuff=TWIReadNACK();
			if (TWIGetStatus() != 0x58)
     694:	88 7f       	andi	r24, 0xF8	; 248
     696:	88 35       	cpi	r24, 0x58	; 88
     698:	19 f5       	brne	.+70     	; 0x6e0 <EERead+0xe8>
			return ERROR;
			TWIStop();
     69a:	0e 94 dc 01 	call	0x3b8	; 0x3b8 <TWIStop>
			return SUCCESS;
     69e:	81 e0       	ldi	r24, 0x01	; 1
     6a0:	22 c0       	rjmp	.+68     	; 0x6e6 <EERead+0xee>
		}
		*pbuff++ = TWIReadACK();
     6a2:	ff ef       	ldi	r31, 0xFF	; 255
     6a4:	ef 1a       	sub	r14, r31
     6a6:	ff 0a       	sbc	r15, r31
     6a8:	0e 94 f0 01 	call	0x3e0	; 0x3e0 <TWIReadACK>
     6ac:	f7 01       	movw	r30, r14
     6ae:	31 97       	sbiw	r30, 0x01	; 1
     6b0:	80 83       	st	Z, r24

uint8_t TWIGetStatus(void)
{
	uint8_t status;
	//mask status
	status = TWSR & 0xF8;
     6b2:	88 81       	ld	r24, Y
			return ERROR;
			TWIStop();
			return SUCCESS;
		}
		*pbuff++ = TWIReadACK();
		if (TWIGetStatus() != 0x50)
     6b4:	88 7f       	andi	r24, 0xF8	; 248
     6b6:	80 35       	cpi	r24, 0x50	; 80
     6b8:	a9 f4       	brne	.+42     	; 0x6e4 <EERead+0xec>
		return ERROR;
		length--;
     6ba:	01 50       	subi	r16, 0x01	; 1
     6bc:	11 09       	sbc	r17, r1
	return ERROR;
	//select devise and send read bit
	TWIWrite(((EEDEVADR)|0X01));
	if (TWIGetStatus() != 0x40)
	return ERROR;
	while(length)
     6be:	09 f7       	brne	.-62     	; 0x682 <EERead+0x8a>
		*pbuff++ = TWIReadACK();
		if (TWIGetStatus() != 0x50)
		return ERROR;
		length--;
	}
	return SUCCESS;
     6c0:	81 e0       	ldi	r24, 0x01	; 1
     6c2:	11 c0       	rjmp	.+34     	; 0x6e6 <EERead+0xee>
uint8_t EERead(unsigned short addr, unsigned char *pbuff,unsigned short length)
{
	//calculate page address
	TWIStart();
	if (TWIGetStatus() != 0x08)
	return ERROR;
     6c4:	80 e0       	ldi	r24, 0x00	; 0
     6c6:	0f c0       	rjmp	.+30     	; 0x6e6 <EERead+0xee>
	//select page start address and send A2 A1 A0 bits send write command
	TWIWrite(EEDEVADR&0XFE);
	if (TWIGetStatus() != 0x18)
	return ERROR;
     6c8:	80 e0       	ldi	r24, 0x00	; 0
     6ca:	0d c0       	rjmp	.+26     	; 0x6e6 <EERead+0xee>
	//send the rest of address
	TWIWrite( ((uint8_t)(addr>>8)) );
	if (TWIGetStatus() != 0x28)
	return ERROR;
     6cc:	80 e0       	ldi	r24, 0x00	; 0
     6ce:	0b c0       	rjmp	.+22     	; 0x6e6 <EERead+0xee>
	TWIWrite( ((uint8_t)(addr)) );
	if (TWIGetStatus() != 0x28)
	return ERROR;
     6d0:	80 e0       	ldi	r24, 0x00	; 0
     6d2:	09 c0       	rjmp	.+18     	; 0x6e6 <EERead+0xee>
	//send start
	TWIStart();
	if (TWIGetStatus() != 0x10)
	return ERROR;
     6d4:	80 e0       	ldi	r24, 0x00	; 0
     6d6:	07 c0       	rjmp	.+14     	; 0x6e6 <EERead+0xee>
	//select devise and send read bit
	TWIWrite(((EEDEVADR)|0X01));
	if (TWIGetStatus() != 0x40)
	return ERROR;
     6d8:	80 e0       	ldi	r24, 0x00	; 0
     6da:	05 c0       	rjmp	.+10     	; 0x6e6 <EERead+0xee>
		*pbuff++ = TWIReadACK();
		if (TWIGetStatus() != 0x50)
		return ERROR;
		length--;
	}
	return SUCCESS;
     6dc:	81 e0       	ldi	r24, 0x01	; 1
     6de:	03 c0       	rjmp	.+6      	; 0x6e6 <EERead+0xee>
	{
		if(length==1)
		{
			*pbuff=TWIReadNACK();
			if (TWIGetStatus() != 0x58)
			return ERROR;
     6e0:	80 e0       	ldi	r24, 0x00	; 0
     6e2:	01 c0       	rjmp	.+2      	; 0x6e6 <EERead+0xee>
			TWIStop();
			return SUCCESS;
		}
		*pbuff++ = TWIReadACK();
		if (TWIGetStatus() != 0x50)
		return ERROR;
     6e4:	80 e0       	ldi	r24, 0x00	; 0
		length--;
	}
	return SUCCESS;
}
     6e6:	df 91       	pop	r29
     6e8:	cf 91       	pop	r28
     6ea:	1f 91       	pop	r17
     6ec:	0f 91       	pop	r16
     6ee:	ff 90       	pop	r15
     6f0:	ef 90       	pop	r14
     6f2:	08 95       	ret

000006f4 <EEErase>:
* Input          : None
* Output         : None
* Return         : None
*******************************************************************************/
void EEErase(unsigned short addr, unsigned short length)
{
     6f4:	cf 93       	push	r28
     6f6:	df 93       	push	r29
     6f8:	cd b7       	in	r28, 0x3d	; 61
     6fa:	de b7       	in	r29, 0x3e	; 62
     6fc:	d2 50       	subi	r29, 0x02	; 2
     6fe:	0f b6       	in	r0, 0x3f	; 63
     700:	f8 94       	cli
     702:	de bf       	out	0x3e, r29	; 62
     704:	0f be       	out	0x3f, r0	; 63
     706:	cd bf       	out	0x3d, r28	; 61
     708:	ab 01       	movw	r20, r22
	unsigned char Data_temp[512]={0};
     70a:	be 01       	movw	r22, r28
     70c:	6f 5f       	subi	r22, 0xFF	; 255
     70e:	7f 4f       	sbci	r23, 0xFF	; 255
     710:	20 e0       	ldi	r18, 0x00	; 0
     712:	32 e0       	ldi	r19, 0x02	; 2
     714:	db 01       	movw	r26, r22
     716:	f9 01       	movw	r30, r18
     718:	1d 92       	st	X+, r1
     71a:	31 97       	sbiw	r30, 0x01	; 1
     71c:	e9 f7       	brne	.-6      	; 0x718 <EEErase+0x24>
	EEWrite_E(addr,&Data_temp,length);
     71e:	0e 94 af 02 	call	0x55e	; 0x55e <EEWrite_E>
}
     722:	de 5f       	subi	r29, 0xFE	; 254
     724:	0f b6       	in	r0, 0x3f	; 63
     726:	f8 94       	cli
     728:	de bf       	out	0x3e, r29	; 62
     72a:	0f be       	out	0x3f, r0	; 63
     72c:	cd bf       	out	0x3d, r28	; 61
     72e:	df 91       	pop	r29
     730:	cf 91       	pop	r28
     732:	08 95       	ret

00000734 <__ltobf>:

	d2.c[0] = d1.c[3];
	d2.c[1] = d1.c[2];
	d2.c[2] = d1.c[1];
	d2.c[3] = d1.c[0];
	return d2.f;
     734:	37 2f       	mov	r19, r23
     736:	26 2f       	mov	r18, r22
}
     738:	69 2f       	mov	r22, r25
     73a:	78 2f       	mov	r23, r24
     73c:	83 2f       	mov	r24, r19
     73e:	92 2f       	mov	r25, r18
     740:	08 95       	ret

00000742 <Delay_ms>:
* Output         : None
* Return         : None
*******************************************************************************/
void Delay_ms(unsigned int ms)
{
	_MS=ms;
     742:	90 93 2d 01 	sts	0x012D, r25	; 0x80012d <_MS+0x1>
     746:	80 93 2c 01 	sts	0x012C, r24	; 0x80012c <_MS>
	while(_MS);
     74a:	80 91 2c 01 	lds	r24, 0x012C	; 0x80012c <_MS>
     74e:	90 91 2d 01 	lds	r25, 0x012D	; 0x80012d <_MS+0x1>
     752:	89 2b       	or	r24, r25
     754:	d1 f7       	brne	.-12     	; 0x74a <Delay_ms+0x8>
}
     756:	08 95       	ret

00000758 <WatchDog_Init>:
* Output         : None
* Return         : None
*******************************************************************************/
void WatchDog_Init(void)
{
	_WDR();
     758:	a8 95       	wdr
	WDTCSR |= (1<<WDCE) | (1<<WDE); //打开或关闭看门狗时，必须将WDCE位置1
     75a:	e0 e6       	ldi	r30, 0x60	; 96
     75c:	f0 e0       	ldi	r31, 0x00	; 0
     75e:	80 81       	ld	r24, Z
     760:	88 61       	ori	r24, 0x18	; 24
     762:	80 83       	st	Z, r24
	WDTCSR = (1<<WDE)|(1<<WDP3);    //enable wdt,clk = 512，4s
     764:	88 e2       	ldi	r24, 0x28	; 40
     766:	80 83       	st	Z, r24
     768:	08 95       	ret

0000076a <Port_Init>:
* Output         : None
* Return         : None
*******************************************************************************/
void Port_Init(void)
{
	DDRC  = (1<<1) | (1<<2) | (1<<3);	//---<<< ADS_SCK、ADS_CS#、TEMP_CS# >>>---set those pin output mode
     76a:	8e e0       	ldi	r24, 0x0E	; 14
     76c:	87 b9       	out	0x07, r24	; 7
	PORTC = (1<<2)|(1<<3);			    //SET ADS_CS#、TEMP_CS#
     76e:	8c e0       	ldi	r24, 0x0C	; 12
     770:	88 b9       	out	0x08, r24	; 8
	
	DDRD = (1<<1)|(1<<2)|(1<<5);//---<<< TXD、485RW、SenPow >>>---set those pin output mode
     772:	86 e2       	ldi	r24, 0x26	; 38
     774:	8a b9       	out	0x0a, r24	; 10
	PORTD = 0x00;
     776:	1b b8       	out	0x0b, r1	; 11
	
	DDRB  = (1<<0)|(1<<1)|(1<<2)|(1<<3)|(1<<5);//<LED1、LED2、SS、MOSI、SCK>   set those pin output mode
     778:	8f e2       	ldi	r24, 0x2F	; 47
     77a:	84 b9       	out	0x04, r24	; 4
	PORTB |=(1<<0)|(1<<1);
     77c:	85 b1       	in	r24, 0x05	; 5
     77e:	83 60       	ori	r24, 0x03	; 3
     780:	85 b9       	out	0x05, r24	; 5
	LED1_OFF;
     782:	28 9a       	sbi	0x05, 0	; 5
     784:	08 95       	ret

00000786 <Init_Devices>:
* Output         : None
* Return         : None
*******************************************************************************/
void Init_Devices(void)
{
	cli(); //disable all interrupts
     786:	f8 94       	cli
	Port_Init();
     788:	0e 94 b5 03 	call	0x76a	; 0x76a <Port_Init>
	uart0_init();
     78c:	0e 94 44 22 	call	0x4488	; 0x4488 <uart0_init>
	timer1_init();
     790:	0e 94 76 21 	call	0x42ec	; 0x42ec <timer1_init>
	TWI_init();
     794:	0e 94 ca 01 	call	0x394	; 0x394 <TWI_init>
	SPI_Init();
     798:	0e 94 3a 21 	call	0x4274	; 0x4274 <SPI_Init>
	WatchDog_Init();
     79c:	0e 94 ac 03 	call	0x758	; 0x758 <WatchDog_Init>
	
	MCUCR  = 0x00;
     7a0:	15 be       	out	0x35, r1	; 53
	TIMSK1 = 0x01; //timer interrupt sources
     7a2:	81 e0       	ldi	r24, 0x01	; 1
     7a4:	80 93 6f 00 	sts	0x006F, r24	; 0x80006f <__TEXT_REGION_LENGTH__+0x7e006f>
	PCMSK0 = 0x00;
     7a8:	10 92 6b 00 	sts	0x006B, r1	; 0x80006b <__TEXT_REGION_LENGTH__+0x7e006b>
	PCMSK1 = 0x00;
     7ac:	10 92 6c 00 	sts	0x006C, r1	; 0x80006c <__TEXT_REGION_LENGTH__+0x7e006c>
	PCMSK2 = 0x00;
     7b0:	10 92 6d 00 	sts	0x006D, r1	; 0x80006d <__TEXT_REGION_LENGTH__+0x7e006d>
	EIMSK  = 0x00;
     7b4:	1d ba       	out	0x1d, r1	; 29
	EICRA  = 0x00; //extended ext ints
     7b6:	10 92 69 00 	sts	0x0069, r1	; 0x800069 <__TEXT_REGION_LENGTH__+0x7e0069>
	PCICR  = 0x00;
     7ba:	10 92 68 00 	sts	0x0068, r1	; 0x800068 <__TEXT_REGION_LENGTH__+0x7e0068>
	
	sei();//enable all interrupts
     7be:	78 94       	sei
	SenPow_ON;
     7c0:	5d 9a       	sbi	0x0b, 5	; 11
	Delay_ms(200);
     7c2:	88 ec       	ldi	r24, 0xC8	; 200
     7c4:	90 e0       	ldi	r25, 0x00	; 0
     7c6:	0e 94 a1 03 	call	0x742	; 0x742 <Delay_ms>
	ADS8325_Start();
     7ca:	0e 94 9b 01 	call	0x336	; 0x336 <ADS8325_Start>
	U485RX;Delay_ms(300);
     7ce:	5a 98       	cbi	0x0b, 2	; 11
     7d0:	8c e2       	ldi	r24, 0x2C	; 44
     7d2:	91 e0       	ldi	r25, 0x01	; 1
     7d4:	0e 94 a1 03 	call	0x742	; 0x742 <Delay_ms>
     7d8:	08 95       	ret

000007da <Init_Parameter>:
// * Input          : None
// * Output         : None
// * Return         : None
// *******************************************************************************/
char Init_Parameter(void)
{
     7da:	0f 93       	push	r16
     7dc:	1f 93       	push	r17
     7de:	cf 93       	push	r28
     7e0:	df 93       	push	r29
     7e2:	00 d0       	rcall	.+0      	; 0x7e4 <Init_Parameter+0xa>
     7e4:	cd b7       	in	r28, 0x3d	; 61
     7e6:	de b7       	in	r29, 0x3e	; 62
	uint8_t temp[2];
	//初始化保持寄存器参数
	//EEErase(0,512);
	EERead(FPOWERONFLAG_BASEADDR,temp,2);
     7e8:	42 e0       	ldi	r20, 0x02	; 2
     7ea:	50 e0       	ldi	r21, 0x00	; 0
     7ec:	be 01       	movw	r22, r28
     7ee:	6f 5f       	subi	r22, 0xFF	; 255
     7f0:	7f 4f       	sbci	r23, 0xFF	; 255
     7f2:	80 e2       	ldi	r24, 0x20	; 32
     7f4:	90 e0       	ldi	r25, 0x00	; 0
     7f6:	0e 94 fc 02 	call	0x5f8	; 0x5f8 <EERead>
	if( (temp[0] != 0x12) && (temp[1] != 0x34) )	//检查是否是首次开机
     7fa:	89 81       	ldd	r24, Y+1	; 0x01
     7fc:	82 31       	cpi	r24, 0x12	; 18
     7fe:	09 f4       	brne	.+2      	; 0x802 <Init_Parameter+0x28>
     800:	5a c0       	rjmp	.+180    	; 0x8b6 <Init_Parameter+0xdc>
     802:	8a 81       	ldd	r24, Y+2	; 0x02
     804:	84 33       	cpi	r24, 0x34	; 52
     806:	09 f4       	brne	.+2      	; 0x80a <Init_Parameter+0x30>
     808:	56 c0       	rjmp	.+172    	; 0x8b6 <Init_Parameter+0xdc>
	{
		EERead(KREEPROM_BASEADDR,(void *)&KeepRegister,sizeof(KeepRegister));//读取EEPROM中存储的保持寄存器值，恢复以下几项
     80a:	4c ea       	ldi	r20, 0xAC	; 172
     80c:	50 e0       	ldi	r21, 0x00	; 0
     80e:	64 e7       	ldi	r22, 0x74	; 116
     810:	73 e0       	ldi	r23, 0x03	; 3
     812:	80 e4       	ldi	r24, 0x40	; 64
     814:	90 e0       	ldi	r25, 0x00	; 0
     816:	0e 94 fc 02 	call	0x5f8	; 0x5f8 <EERead>
		KeepRegister.DeviceAddress              = DefaultDeviceADDR;
     81a:	e4 e7       	ldi	r30, 0x74	; 116
     81c:	f3 e0       	ldi	r31, 0x03	; 3
     81e:	81 e0       	ldi	r24, 0x01	; 1
     820:	90 e0       	ldi	r25, 0x00	; 0
     822:	91 83       	std	Z+1, r25	; 0x01
     824:	80 83       	st	Z, r24
		KeepRegister.OriginaLiquidAltitude      = 0;
     826:	14 82       	std	Z+4, r1	; 0x04
     828:	15 82       	std	Z+5, r1	; 0x05
     82a:	16 82       	std	Z+6, r1	; 0x06
     82c:	17 82       	std	Z+7, r1	; 0x07
		KeepRegister.Reserve1and2              = DefaultLiquidDensity;
     82e:	80 e0       	ldi	r24, 0x00	; 0
     830:	90 e0       	ldi	r25, 0x00	; 0
     832:	a0 e8       	ldi	r26, 0x80	; 128
     834:	bf e3       	ldi	r27, 0x3F	; 63
     836:	80 87       	std	Z+8, r24	; 0x08
     838:	91 87       	std	Z+9, r25	; 0x09
     83a:	a2 87       	std	Z+10, r26	; 0x0a
     83c:	b3 87       	std	Z+11, r27	; 0x0b
		KeepRegister.Liquid_Sec                = 0x0100;
     83e:	80 e0       	ldi	r24, 0x00	; 0
     840:	91 e0       	ldi	r25, 0x01	; 1
     842:	97 87       	std	Z+15, r25	; 0x0f
     844:	86 87       	std	Z+14, r24	; 0x0e
		KeepRegister.LocalAccelerationOfGravity = DefaultAccelerationOfGravity;
     846:	82 ef       	ldi	r24, 0xF2	; 242
     848:	92 ed       	ldi	r25, 0xD2	; 210
     84a:	ac e1       	ldi	r26, 0x1C	; 28
     84c:	b1 e4       	ldi	r27, 0x41	; 65
     84e:	80 8b       	std	Z+16, r24	; 0x10
     850:	91 8b       	std	Z+17, r25	; 0x11
     852:	a2 8b       	std	Z+18, r26	; 0x12
     854:	b3 8b       	std	Z+19, r27	; 0x13
		KeepRegister.DeviceGroupNum = 0;
     856:	13 82       	std	Z+3, r1	; 0x03
     858:	12 82       	std	Z+2, r1	; 0x02
		KeepRegister.Sensor_Range = DefaultSensor_Range;
     85a:	84 e1       	ldi	r24, 0x14	; 20
     85c:	90 e0       	ldi	r25, 0x00	; 0
     85e:	95 87       	std	Z+13, r25	; 0x0d
     860:	84 87       	std	Z+12, r24	; 0x0c
		
		EEWrite(KREEPROM_BASEADDR,(void *)&KeepRegister,sizeof(KeepRegister));//更新EEPROM
     862:	4c ea       	ldi	r20, 0xAC	; 172
     864:	50 e0       	ldi	r21, 0x00	; 0
     866:	bf 01       	movw	r22, r30
     868:	80 e4       	ldi	r24, 0x40	; 64
     86a:	90 e0       	ldi	r25, 0x00	; 0
     86c:	0e 94 5d 02 	call	0x4ba	; 0x4ba <EEWrite>
		
		temp[0] = 0x34;
     870:	14 e3       	ldi	r17, 0x34	; 52
     872:	19 83       	std	Y+1, r17	; 0x01
		temp[1] = 0x12;
     874:	02 e1       	ldi	r16, 0x12	; 18
     876:	0a 83       	std	Y+2, r16	; 0x02
		EEWrite(SUPERMODE_FLAG_BASEADDR,temp,2);
     878:	42 e0       	ldi	r20, 0x02	; 2
     87a:	50 e0       	ldi	r21, 0x00	; 0
     87c:	be 01       	movw	r22, r28
     87e:	6f 5f       	subi	r22, 0xFF	; 255
     880:	7f 4f       	sbci	r23, 0xFF	; 255
     882:	80 e3       	ldi	r24, 0x30	; 48
     884:	90 e0       	ldi	r25, 0x00	; 0
     886:	0e 94 5d 02 	call	0x4ba	; 0x4ba <EEWrite>
		SuperMode_Flag=1;										//首次开机设置模式为超级模式
     88a:	81 e0       	ldi	r24, 0x01	; 1
     88c:	80 93 22 01 	sts	0x0122, r24	; 0x800122 <__data_end>
		InputRegister.SystemWorkStatus=(InputRegister.SystemWorkStatus & 0x00ff)|0x0100;
     890:	e4 e3       	ldi	r30, 0x34	; 52
     892:	f3 e0       	ldi	r31, 0x03	; 3
     894:	80 85       	ldd	r24, Z+8	; 0x08
     896:	91 85       	ldd	r25, Z+9	; 0x09
     898:	99 27       	eor	r25, r25
     89a:	91 60       	ori	r25, 0x01	; 1
     89c:	91 87       	std	Z+9, r25	; 0x09
     89e:	80 87       	std	Z+8, r24	; 0x08
		
		temp[0] = 0x12;
     8a0:	09 83       	std	Y+1, r16	; 0x01
		temp[1] = 0x34;
     8a2:	1a 83       	std	Y+2, r17	; 0x02
		EEWrite(FPOWERONFLAG_BASEADDR,temp,2);
     8a4:	42 e0       	ldi	r20, 0x02	; 2
     8a6:	50 e0       	ldi	r21, 0x00	; 0
     8a8:	be 01       	movw	r22, r28
     8aa:	6f 5f       	subi	r22, 0xFF	; 255
     8ac:	7f 4f       	sbci	r23, 0xFF	; 255
     8ae:	80 e2       	ldi	r24, 0x20	; 32
     8b0:	90 e0       	ldi	r25, 0x00	; 0
     8b2:	0e 94 5d 02 	call	0x4ba	; 0x4ba <EEWrite>
	}
	
	temp[0]=0;
     8b6:	19 82       	std	Y+1, r1	; 0x01
	temp[1]=0;
     8b8:	1a 82       	std	Y+2, r1	; 0x02
	EERead(SUPERMODE_FLAG_BASEADDR,temp,2);
     8ba:	42 e0       	ldi	r20, 0x02	; 2
     8bc:	50 e0       	ldi	r21, 0x00	; 0
     8be:	be 01       	movw	r22, r28
     8c0:	6f 5f       	subi	r22, 0xFF	; 255
     8c2:	7f 4f       	sbci	r23, 0xFF	; 255
     8c4:	80 e3       	ldi	r24, 0x30	; 48
     8c6:	90 e0       	ldi	r25, 0x00	; 0
     8c8:	0e 94 fc 02 	call	0x5f8	; 0x5f8 <EERead>
	if((temp[0] == 0x34) && (temp[1] == 0x12) )
     8cc:	89 81       	ldd	r24, Y+1	; 0x01
     8ce:	84 33       	cpi	r24, 0x34	; 52
     8d0:	79 f4       	brne	.+30     	; 0x8f0 <Init_Parameter+0x116>
     8d2:	8a 81       	ldd	r24, Y+2	; 0x02
     8d4:	82 31       	cpi	r24, 0x12	; 18
     8d6:	61 f4       	brne	.+24     	; 0x8f0 <Init_Parameter+0x116>
	{
		SuperMode_Flag=1;		//根据标志位进行模式判断
     8d8:	81 e0       	ldi	r24, 0x01	; 1
     8da:	80 93 22 01 	sts	0x0122, r24	; 0x800122 <__data_end>
		InputRegister.SystemWorkStatus=(InputRegister.SystemWorkStatus & 0x00ff)|0x0100;
     8de:	e4 e3       	ldi	r30, 0x34	; 52
     8e0:	f3 e0       	ldi	r31, 0x03	; 3
     8e2:	80 85       	ldd	r24, Z+8	; 0x08
     8e4:	91 85       	ldd	r25, Z+9	; 0x09
     8e6:	99 27       	eor	r25, r25
     8e8:	91 60       	ori	r25, 0x01	; 1
     8ea:	91 87       	std	Z+9, r25	; 0x09
     8ec:	80 87       	std	Z+8, r24	; 0x08
     8ee:	0a c0       	rjmp	.+20     	; 0x904 <__stack+0x5>
	}
	else 
	{
		SuperMode_Flag=0;
     8f0:	10 92 22 01 	sts	0x0122, r1	; 0x800122 <__data_end>
		InputRegister.SystemWorkStatus=(InputRegister.SystemWorkStatus & 0x00ff)|0x0200;
     8f4:	e4 e3       	ldi	r30, 0x34	; 52
     8f6:	f3 e0       	ldi	r31, 0x03	; 3
     8f8:	80 85       	ldd	r24, Z+8	; 0x08
     8fa:	91 85       	ldd	r25, Z+9	; 0x09
     8fc:	99 27       	eor	r25, r25
     8fe:	92 60       	ori	r25, 0x02	; 2
     900:	91 87       	std	Z+9, r25	; 0x09
     902:	80 87       	std	Z+8, r24	; 0x08
	}
	
	EERead(KREEPROM_BASEADDR,(void *)&KeepRegister,sizeof(KeepRegister));
     904:	4c ea       	ldi	r20, 0xAC	; 172
     906:	50 e0       	ldi	r21, 0x00	; 0
     908:	64 e7       	ldi	r22, 0x74	; 116
     90a:	73 e0       	ldi	r23, 0x03	; 3
     90c:	80 e4       	ldi	r24, 0x40	; 64
     90e:	90 e0       	ldi	r25, 0x00	; 0
     910:	0e 94 fc 02 	call	0x5f8	; 0x5f8 <EERead>
	InputRegister.DeviceType      = DEVICETYPE;
     914:	e4 e3       	ldi	r30, 0x34	; 52
     916:	f3 e0       	ldi	r31, 0x03	; 3
     918:	8c eb       	ldi	r24, 0xBC	; 188
     91a:	92 e0       	ldi	r25, 0x02	; 2
     91c:	91 83       	std	Z+1, r25	; 0x01
     91e:	80 83       	st	Z, r24
	InputRegister.SoftwareVersion = SOFTWAREVERSION;
     920:	85 e1       	ldi	r24, 0x15	; 21
     922:	94 e0       	ldi	r25, 0x04	; 4
     924:	93 83       	std	Z+3, r25	; 0x03
     926:	82 83       	std	Z+2, r24	; 0x02
	
	return SUCCESS;
}
     928:	81 e0       	ldi	r24, 0x01	; 1
     92a:	0f 90       	pop	r0
     92c:	0f 90       	pop	r0
     92e:	df 91       	pop	r29
     930:	cf 91       	pop	r28
     932:	1f 91       	pop	r17
     934:	0f 91       	pop	r16
     936:	08 95       	ret

00000938 <ADCSmaple>:
* Output         : None
* Return         : None
*******************************************************************************/
#define ADCBUFF_LENGTH 100
float ADCSmaple(void)
{
     938:	cf 92       	push	r12
     93a:	df 92       	push	r13
     93c:	ef 92       	push	r14
     93e:	ff 92       	push	r15
     940:	0f 93       	push	r16
     942:	1f 93       	push	r17
     944:	cf 93       	push	r28
     946:	df 93       	push	r29
     948:	cd b7       	in	r28, 0x3d	; 61
     94a:	de b7       	in	r29, 0x3e	; 62
     94c:	c8 5c       	subi	r28, 0xC8	; 200
     94e:	d1 09       	sbc	r29, r1
     950:	0f b6       	in	r0, 0x3f	; 63
     952:	f8 94       	cli
     954:	de bf       	out	0x3e, r29	; 62
     956:	0f be       	out	0x3f, r0	; 63
     958:	cd bf       	out	0x3d, r28	; 61
	float ADS_Result=0;
	uint16_t ADS_buff[ADCBUFF_LENGTH]={0};
     95a:	fe 01       	movw	r30, r28
     95c:	31 96       	adiw	r30, 0x01	; 1
     95e:	88 ec       	ldi	r24, 0xC8	; 200
     960:	df 01       	movw	r26, r30
     962:	1d 92       	st	X+, r1
     964:	8a 95       	dec	r24
     966:	e9 f7       	brne	.-6      	; 0x962 <ADCSmaple+0x2a>
     968:	8f 01       	movw	r16, r30
     96a:	6e 01       	movw	r12, r28
     96c:	b9 ec       	ldi	r27, 0xC9	; 201
     96e:	cb 0e       	add	r12, r27
     970:	d1 1c       	adc	r13, r1
     972:	7f 01       	movw	r14, r30
	uint16_t buff=0;
	uint32_t ADCsum=0;
	unsigned char i,j;
	for(i=0;i<ADCBUFF_LENGTH;i++)
	{
		ADS_buff[i]= ADS8325_GetData();
     974:	0e 94 9e 01 	call	0x33c	; 0x33c <ADS8325_GetData>
     978:	f7 01       	movw	r30, r14
     97a:	81 93       	st	Z+, r24
     97c:	91 93       	st	Z+, r25
     97e:	7f 01       	movw	r14, r30
	float ADS_Result=0;
	uint16_t ADS_buff[ADCBUFF_LENGTH]={0};
	uint16_t buff=0;
	uint32_t ADCsum=0;
	unsigned char i,j;
	for(i=0;i<ADCBUFF_LENGTH;i++)
     980:	ce 16       	cp	r12, r30
     982:	df 06       	cpc	r13, r31
     984:	b9 f7       	brne	.-18     	; 0x974 <ADCSmaple+0x3c>
     986:	30 e0       	ldi	r19, 0x00	; 0
	}
	
	//冒泡排序，采样11次，从小到大排序，取中间5个数，求均值
	for(i=0;i<ADCBUFF_LENGTH;i++)
	{
		for(j=i+1;j<ADCBUFF_LENGTH;j++)
     988:	3f 5f       	subi	r19, 0xFF	; 255
     98a:	34 36       	cpi	r19, 0x64	; 100
     98c:	41 f1       	breq	.+80     	; 0x9de <ADCSmaple+0xa6>
     98e:	23 2f       	mov	r18, r19
     990:	d8 01       	movw	r26, r16
		{
			if(ADS_buff[i]>ADS_buff[j])//从小到大，改为"<"变为从大到小
     992:	f8 01       	movw	r30, r16
     994:	40 81       	ld	r20, Z
     996:	51 81       	ldd	r21, Z+1	; 0x01
     998:	82 2f       	mov	r24, r18
     99a:	90 e0       	ldi	r25, 0x00	; 0
     99c:	fc 01       	movw	r30, r24
     99e:	ee 0f       	add	r30, r30
     9a0:	ff 1f       	adc	r31, r31
     9a2:	61 e0       	ldi	r22, 0x01	; 1
     9a4:	70 e0       	ldi	r23, 0x00	; 0
     9a6:	6c 0f       	add	r22, r28
     9a8:	7d 1f       	adc	r23, r29
     9aa:	e6 0f       	add	r30, r22
     9ac:	f7 1f       	adc	r31, r23
     9ae:	60 81       	ld	r22, Z
     9b0:	71 81       	ldd	r23, Z+1	; 0x01
     9b2:	64 17       	cp	r22, r20
     9b4:	75 07       	cpc	r23, r21
     9b6:	68 f4       	brcc	.+26     	; 0x9d2 <ADCSmaple+0x9a>
			{
				buff=ADS_buff[i];
				ADS_buff[i]=ADS_buff[j];
     9b8:	11 96       	adiw	r26, 0x01	; 1
     9ba:	7c 93       	st	X, r23
     9bc:	6e 93       	st	-X, r22
				ADS_buff[j]=buff;
     9be:	88 0f       	add	r24, r24
     9c0:	99 1f       	adc	r25, r25
     9c2:	e1 e0       	ldi	r30, 0x01	; 1
     9c4:	f0 e0       	ldi	r31, 0x00	; 0
     9c6:	ec 0f       	add	r30, r28
     9c8:	fd 1f       	adc	r31, r29
     9ca:	e8 0f       	add	r30, r24
     9cc:	f9 1f       	adc	r31, r25
     9ce:	51 83       	std	Z+1, r21	; 0x01
     9d0:	40 83       	st	Z, r20
	}
	
	//冒泡排序，采样11次，从小到大排序，取中间5个数，求均值
	for(i=0;i<ADCBUFF_LENGTH;i++)
	{
		for(j=i+1;j<ADCBUFF_LENGTH;j++)
     9d2:	2f 5f       	subi	r18, 0xFF	; 255
     9d4:	24 36       	cpi	r18, 0x64	; 100
     9d6:	e8 f2       	brcs	.-70     	; 0x992 <ADCSmaple+0x5a>
     9d8:	0e 5f       	subi	r16, 0xFE	; 254
     9da:	1f 4f       	sbci	r17, 0xFF	; 255
     9dc:	d5 cf       	rjmp	.-86     	; 0x988 <ADCSmaple+0x50>
     9de:	fe 01       	movw	r30, r28
     9e0:	e1 5b       	subi	r30, 0xB1	; 177
     9e2:	ff 4f       	sbci	r31, 0xFF	; 255
     9e4:	ae 01       	movw	r20, r28
     9e6:	49 58       	subi	r20, 0x89	; 137
     9e8:	5f 4f       	sbci	r21, 0xFF	; 255
     9ea:	60 e0       	ldi	r22, 0x00	; 0
     9ec:	70 e0       	ldi	r23, 0x00	; 0
     9ee:	cb 01       	movw	r24, r22
	}
	
	ADCsum=0;
	for(i=39;i<59;i++)
	{
		ADCsum+=ADS_buff[i];
     9f0:	21 91       	ld	r18, Z+
     9f2:	31 91       	ld	r19, Z+
     9f4:	62 0f       	add	r22, r18
     9f6:	73 1f       	adc	r23, r19
     9f8:	81 1d       	adc	r24, r1
     9fa:	91 1d       	adc	r25, r1
			}
		}
	}
	
	ADCsum=0;
	for(i=39;i<59;i++)
     9fc:	4e 17       	cp	r20, r30
     9fe:	5f 07       	cpc	r21, r31
     a00:	b9 f7       	brne	.-18     	; 0x9f0 <ADCSmaple+0xb8>
	{
		ADCsum+=ADS_buff[i];
	}
	ADS_Result=1.0*ADCsum/20;
	ADS_Result= ADS_Result*4.096/65536;//未加延时下采样频率5.15Khz,加20个nop后，采样频率1.333K
     a02:	0e 94 de 23 	call	0x47bc	; 0x47bc <__floatunsisf>
     a06:	20 e0       	ldi	r18, 0x00	; 0
     a08:	30 e0       	ldi	r19, 0x00	; 0
     a0a:	40 ea       	ldi	r20, 0xA0	; 160
     a0c:	51 e4       	ldi	r21, 0x41	; 65
     a0e:	0e 94 6c 23 	call	0x46d8	; 0x46d8 <__divsf3>
     a12:	2f e6       	ldi	r18, 0x6F	; 111
     a14:	32 e1       	ldi	r19, 0x12	; 18
     a16:	43 e8       	ldi	r20, 0x83	; 131
     a18:	50 e4       	ldi	r21, 0x40	; 64
     a1a:	0e 94 95 24 	call	0x492a	; 0x492a <__mulsf3>
	ADS_Result= (ADS_Result-0.5)*1000/(52.4/2.4);    //减去0.5V基准，除以增益，并转换为mV
     a1e:	20 e0       	ldi	r18, 0x00	; 0
     a20:	30 e0       	ldi	r19, 0x00	; 0
     a22:	40 e8       	ldi	r20, 0x80	; 128
     a24:	57 e3       	ldi	r21, 0x37	; 55
     a26:	0e 94 95 24 	call	0x492a	; 0x492a <__mulsf3>
     a2a:	20 e0       	ldi	r18, 0x00	; 0
     a2c:	30 e0       	ldi	r19, 0x00	; 0
     a2e:	40 e0       	ldi	r20, 0x00	; 0
     a30:	5f e3       	ldi	r21, 0x3F	; 63
     a32:	0e 94 fa 22 	call	0x45f4	; 0x45f4 <__subsf3>
     a36:	20 e0       	ldi	r18, 0x00	; 0
     a38:	30 e0       	ldi	r19, 0x00	; 0
     a3a:	4a e7       	ldi	r20, 0x7A	; 122
     a3c:	54 e4       	ldi	r21, 0x44	; 68
     a3e:	0e 94 95 24 	call	0x492a	; 0x492a <__mulsf3>
     a42:	2b ea       	ldi	r18, 0xAB	; 171
     a44:	3a ea       	ldi	r19, 0xAA	; 170
     a46:	4e ea       	ldi	r20, 0xAE	; 174
     a48:	51 e4       	ldi	r21, 0x41	; 65
     a4a:	0e 94 6c 23 	call	0x46d8	; 0x46d8 <__divsf3>
	InputRegister.ADCOriginalValue=ADS_Result;
     a4e:	60 93 4c 03 	sts	0x034C, r22	; 0x80034c <InputRegister+0x18>
     a52:	70 93 4d 03 	sts	0x034D, r23	; 0x80034d <InputRegister+0x19>
     a56:	80 93 4e 03 	sts	0x034E, r24	; 0x80034e <InputRegister+0x1a>
     a5a:	90 93 4f 03 	sts	0x034F, r25	; 0x80034f <InputRegister+0x1b>

	return ADS_Result;
}
     a5e:	c8 53       	subi	r28, 0x38	; 56
     a60:	df 4f       	sbci	r29, 0xFF	; 255
     a62:	0f b6       	in	r0, 0x3f	; 63
     a64:	f8 94       	cli
     a66:	de bf       	out	0x3e, r29	; 62
     a68:	0f be       	out	0x3f, r0	; 63
     a6a:	cd bf       	out	0x3d, r28	; 61
     a6c:	df 91       	pop	r29
     a6e:	cf 91       	pop	r28
     a70:	1f 91       	pop	r17
     a72:	0f 91       	pop	r16
     a74:	ff 90       	pop	r15
     a76:	ef 90       	pop	r14
     a78:	df 90       	pop	r13
     a7a:	cf 90       	pop	r12
     a7c:	08 95       	ret

00000a7e <CRC16_Check>:
*******************************************************************************/
uint16_t CRC16_Check(uint8_t *Pushdata,uint8_t length)
{
	uint16_t Reg_CRC=0xffff;
	uint8_t i,j;
	for( i = 0; i<length; i ++)
     a7e:	66 23       	and	r22, r22
     a80:	f9 f0       	breq	.+62     	; 0xac0 <CRC16_Check+0x42>
     a82:	fc 01       	movw	r30, r24
     a84:	61 50       	subi	r22, 0x01	; 1
     a86:	26 2f       	mov	r18, r22
     a88:	30 e0       	ldi	r19, 0x00	; 0
     a8a:	2f 5f       	subi	r18, 0xFF	; 255
     a8c:	3f 4f       	sbci	r19, 0xFF	; 255
     a8e:	ac 01       	movw	r20, r24
     a90:	42 0f       	add	r20, r18
     a92:	53 1f       	adc	r21, r19
     a94:	8f ef       	ldi	r24, 0xFF	; 255
     a96:	9f ef       	ldi	r25, 0xFF	; 255
	{
		Reg_CRC^= *Pushdata++;
     a98:	21 91       	ld	r18, Z+
     a9a:	82 27       	eor	r24, r18
     a9c:	28 e0       	ldi	r18, 0x08	; 8
		for (j = 0; j<8; j++)
		{
			if (Reg_CRC & 0x0001)
     a9e:	80 ff       	sbrs	r24, 0
     aa0:	07 c0       	rjmp	.+14     	; 0xab0 <CRC16_Check+0x32>

			Reg_CRC=Reg_CRC>>1^0xA001;
     aa2:	96 95       	lsr	r25
     aa4:	87 95       	ror	r24
     aa6:	31 e0       	ldi	r19, 0x01	; 1
     aa8:	83 27       	eor	r24, r19
     aaa:	30 ea       	ldi	r19, 0xA0	; 160
     aac:	93 27       	eor	r25, r19
     aae:	02 c0       	rjmp	.+4      	; 0xab4 <CRC16_Check+0x36>
			else
			Reg_CRC >>=1;
     ab0:	96 95       	lsr	r25
     ab2:	87 95       	ror	r24
     ab4:	21 50       	subi	r18, 0x01	; 1
	uint16_t Reg_CRC=0xffff;
	uint8_t i,j;
	for( i = 0; i<length; i ++)
	{
		Reg_CRC^= *Pushdata++;
		for (j = 0; j<8; j++)
     ab6:	99 f7       	brne	.-26     	; 0xa9e <CRC16_Check+0x20>
*******************************************************************************/
uint16_t CRC16_Check(uint8_t *Pushdata,uint8_t length)
{
	uint16_t Reg_CRC=0xffff;
	uint8_t i,j;
	for( i = 0; i<length; i ++)
     ab8:	e4 17       	cp	r30, r20
     aba:	f5 07       	cpc	r31, r21
     abc:	69 f7       	brne	.-38     	; 0xa98 <CRC16_Check+0x1a>
     abe:	08 95       	ret
* Output         : None
* Return         : None
*******************************************************************************/
uint16_t CRC16_Check(uint8_t *Pushdata,uint8_t length)
{
	uint16_t Reg_CRC=0xffff;
     ac0:	8f ef       	ldi	r24, 0xFF	; 255
     ac2:	9f ef       	ldi	r25, 0xFF	; 255
			else
			Reg_CRC >>=1;
		}
	}
	return   Reg_CRC;
}
     ac4:	08 95       	ret

00000ac6 <ModbusReturnAckInfo>:
* Input          : None
* Output         : None
* Return         : None
*******************************************************************************/
void ModbusReturnAckInfo(uint8_t err)
{
     ac6:	cf 93       	push	r28
     ac8:	df 93       	push	r29
     aca:	00 d0       	rcall	.+0      	; 0xacc <ModbusReturnAckInfo+0x6>
     acc:	00 d0       	rcall	.+0      	; 0xace <ModbusReturnAckInfo+0x8>
     ace:	1f 92       	push	r1
     ad0:	cd b7       	in	r28, 0x3d	; 61
     ad2:	de b7       	in	r29, 0x3e	; 62
	uint8_t ErrDat[5];
	uint16_t crc;
	if(err)//异常码
     ad4:	88 23       	and	r24, r24
     ad6:	09 f1       	breq	.+66     	; 0xb1a <ModbusReturnAckInfo+0x54>
	{
		ErrDat[0] = KeepRegister.DeviceAddress;//赋值设备地址
     ad8:	20 91 74 03 	lds	r18, 0x0374	; 0x800374 <KeepRegister>
     adc:	30 91 75 03 	lds	r19, 0x0375	; 0x800375 <KeepRegister+0x1>
     ae0:	29 83       	std	Y+1, r18	; 0x01
		ErrDat[1] = ModbusDataPackage.dat[1] | 0x80;//赋值异常功能码,即功能码+0x80
     ae2:	90 91 35 02 	lds	r25, 0x0235	; 0x800235 <ModbusDataPackage+0x3>
     ae6:	90 68       	ori	r25, 0x80	; 128
     ae8:	9a 83       	std	Y+2, r25	; 0x02
		ErrDat[2] = err;//赋值异常码
     aea:	8b 83       	std	Y+3, r24	; 0x03
		crc = CRC16_Check(ErrDat,3);
     aec:	63 e0       	ldi	r22, 0x03	; 3
     aee:	ce 01       	movw	r24, r28
     af0:	01 96       	adiw	r24, 0x01	; 1
     af2:	0e 94 3f 05 	call	0xa7e	; 0xa7e <CRC16_Check>
		ErrDat[3] = (crc & 0xff);//校验低8位
     af6:	8c 83       	std	Y+4, r24	; 0x04
		ErrDat[4] = (crc >> 8);//校验高8位
     af8:	9d 83       	std	Y+5, r25	; 0x05
		
		U485SendData(ErrDat,5);//向485发送数据
     afa:	5a 9a       	sbi	0x0b, 2	; 11
     afc:	81 e0       	ldi	r24, 0x01	; 1
     afe:	90 e0       	ldi	r25, 0x00	; 0
     b00:	0e 94 a1 03 	call	0x742	; 0x742 <Delay_ms>
     b04:	65 e0       	ldi	r22, 0x05	; 5
     b06:	70 e0       	ldi	r23, 0x00	; 0
     b08:	ce 01       	movw	r24, r28
     b0a:	01 96       	adiw	r24, 0x01	; 1
     b0c:	0e 94 5c 22 	call	0x44b8	; 0x44b8 <USART0_PutData>
     b10:	8a e0       	ldi	r24, 0x0A	; 10
     b12:	90 e0       	ldi	r25, 0x00	; 0
     b14:	0e 94 a1 03 	call	0x742	; 0x742 <Delay_ms>
     b18:	5a 98       	cbi	0x0b, 2	; 11
	}
}
     b1a:	0f 90       	pop	r0
     b1c:	0f 90       	pop	r0
     b1e:	0f 90       	pop	r0
     b20:	0f 90       	pop	r0
     b22:	0f 90       	pop	r0
     b24:	df 91       	pop	r29
     b26:	cf 91       	pop	r28
     b28:	08 95       	ret

00000b2a <KeepRegistorDataHton>:
* Input          : None
* Output         : None
* Return         : None
*******************************************************************************/
void KeepRegistorDataHton(void)
{
     b2a:	0f 93       	push	r16
     b2c:	1f 93       	push	r17
     b2e:	cf 93       	push	r28
     b30:	df 93       	push	r29
	uint8_t i;
	KeepRegisterTemp.DeviceAddress =htons(KeepRegister.DeviceAddress);
     b32:	c4 e7       	ldi	r28, 0x74	; 116
     b34:	d3 e0       	ldi	r29, 0x03	; 3
     b36:	28 81       	ld	r18, Y
     b38:	39 81       	ldd	r19, Y+1	; 0x01
     b3a:	88 81       	ld	r24, Y
     b3c:	99 81       	ldd	r25, Y+1	; 0x01
     b3e:	32 2f       	mov	r19, r18
     b40:	22 27       	eor	r18, r18
     b42:	89 2f       	mov	r24, r25
     b44:	99 27       	eor	r25, r25
     b46:	82 2b       	or	r24, r18
     b48:	93 2b       	or	r25, r19
     b4a:	00 e2       	ldi	r16, 0x20	; 32
     b4c:	14 e0       	ldi	r17, 0x04	; 4
     b4e:	f8 01       	movw	r30, r16
     b50:	91 83       	std	Z+1, r25	; 0x01
     b52:	80 83       	st	Z, r24
	KeepRegisterTemp.DeviceGroupNum      =htons(KeepRegister.DeviceGroupNum);
     b54:	2a 81       	ldd	r18, Y+2	; 0x02
     b56:	3b 81       	ldd	r19, Y+3	; 0x03
     b58:	8a 81       	ldd	r24, Y+2	; 0x02
     b5a:	9b 81       	ldd	r25, Y+3	; 0x03
     b5c:	32 2f       	mov	r19, r18
     b5e:	22 27       	eor	r18, r18
     b60:	89 2f       	mov	r24, r25
     b62:	99 27       	eor	r25, r25
     b64:	82 2b       	or	r24, r18
     b66:	93 2b       	or	r25, r19
     b68:	93 83       	std	Z+3, r25	; 0x03
     b6a:	82 83       	std	Z+2, r24	; 0x02
	KeepRegisterTemp.Sensor_Range      =htons(KeepRegister.Sensor_Range);
     b6c:	2c 85       	ldd	r18, Y+12	; 0x0c
     b6e:	3d 85       	ldd	r19, Y+13	; 0x0d
     b70:	8c 85       	ldd	r24, Y+12	; 0x0c
     b72:	9d 85       	ldd	r25, Y+13	; 0x0d
     b74:	32 2f       	mov	r19, r18
     b76:	22 27       	eor	r18, r18
     b78:	89 2f       	mov	r24, r25
     b7a:	99 27       	eor	r25, r25
     b7c:	82 2b       	or	r24, r18
     b7e:	93 2b       	or	r25, r19
     b80:	95 87       	std	Z+13, r25	; 0x0d
     b82:	84 87       	std	Z+12, r24	; 0x0c
	KeepRegisterTemp.Liquid_Sec      =htons(KeepRegister.Liquid_Sec);
     b84:	2e 85       	ldd	r18, Y+14	; 0x0e
     b86:	3f 85       	ldd	r19, Y+15	; 0x0f
     b88:	8e 85       	ldd	r24, Y+14	; 0x0e
     b8a:	9f 85       	ldd	r25, Y+15	; 0x0f
     b8c:	32 2f       	mov	r19, r18
     b8e:	22 27       	eor	r18, r18
     b90:	89 2f       	mov	r24, r25
     b92:	99 27       	eor	r25, r25
     b94:	82 2b       	or	r24, r18
     b96:	93 2b       	or	r25, r19
     b98:	97 87       	std	Z+15, r25	; 0x0f
     b9a:	86 87       	std	Z+14, r24	; 0x0e
	KeepRegisterTemp.OriginaLiquidAltitude =__ltobf(KeepRegister.OriginaLiquidAltitude);
     b9c:	6c 81       	ldd	r22, Y+4	; 0x04
     b9e:	7d 81       	ldd	r23, Y+5	; 0x05
     ba0:	8e 81       	ldd	r24, Y+6	; 0x06
     ba2:	9f 81       	ldd	r25, Y+7	; 0x07
     ba4:	0e 94 9a 03 	call	0x734	; 0x734 <__ltobf>
     ba8:	f8 01       	movw	r30, r16
     baa:	64 83       	std	Z+4, r22	; 0x04
     bac:	75 83       	std	Z+5, r23	; 0x05
     bae:	86 83       	std	Z+6, r24	; 0x06
     bb0:	97 83       	std	Z+7, r25	; 0x07
	KeepRegisterTemp.Reserve1and2 =__ltobf(KeepRegister.Reserve1and2);
     bb2:	68 85       	ldd	r22, Y+8	; 0x08
     bb4:	79 85       	ldd	r23, Y+9	; 0x09
     bb6:	8a 85       	ldd	r24, Y+10	; 0x0a
     bb8:	9b 85       	ldd	r25, Y+11	; 0x0b
     bba:	0e 94 9a 03 	call	0x734	; 0x734 <__ltobf>
     bbe:	f8 01       	movw	r30, r16
     bc0:	60 87       	std	Z+8, r22	; 0x08
     bc2:	71 87       	std	Z+9, r23	; 0x09
     bc4:	82 87       	std	Z+10, r24	; 0x0a
     bc6:	93 87       	std	Z+11, r25	; 0x0b
	KeepRegisterTemp.LocalAccelerationOfGravity =__ltobf(KeepRegister.LocalAccelerationOfGravity);
     bc8:	68 89       	ldd	r22, Y+16	; 0x10
     bca:	79 89       	ldd	r23, Y+17	; 0x11
     bcc:	8a 89       	ldd	r24, Y+18	; 0x12
     bce:	9b 89       	ldd	r25, Y+19	; 0x13
     bd0:	0e 94 9a 03 	call	0x734	; 0x734 <__ltobf>
     bd4:	f8 01       	movw	r30, r16
     bd6:	60 8b       	std	Z+16, r22	; 0x10
     bd8:	71 8b       	std	Z+17, r23	; 0x11
     bda:	82 8b       	std	Z+18, r24	; 0x12
     bdc:	93 8b       	std	Z+19, r25	; 0x13
	KeepRegisterTemp.Sensor_FS_Val =__ltobf(KeepRegister.Sensor_FS_Val);
     bde:	6c 89       	ldd	r22, Y+20	; 0x14
     be0:	7d 89       	ldd	r23, Y+21	; 0x15
     be2:	8e 89       	ldd	r24, Y+22	; 0x16
     be4:	9f 89       	ldd	r25, Y+23	; 0x17
     be6:	0e 94 9a 03 	call	0x734	; 0x734 <__ltobf>
     bea:	f8 01       	movw	r30, r16
     bec:	64 8b       	std	Z+20, r22	; 0x14
     bee:	75 8b       	std	Z+21, r23	; 0x15
     bf0:	86 8b       	std	Z+22, r24	; 0x16
     bf2:	97 8b       	std	Z+23, r25	; 0x17
     bf4:	00 e0       	ldi	r16, 0x00	; 0
     bf6:	10 e0       	ldi	r17, 0x00	; 0
	for(i=0;i<6;i++)KeepRegisterTemp.MV[i] = __ltobf(KeepRegister.MV[i]);
     bf8:	e8 01       	movw	r28, r16
     bfa:	26 96       	adiw	r28, 0x06	; 6
     bfc:	cc 0f       	add	r28, r28
     bfe:	dd 1f       	adc	r29, r29
     c00:	cc 0f       	add	r28, r28
     c02:	dd 1f       	adc	r29, r29
     c04:	fe 01       	movw	r30, r28
     c06:	ec 58       	subi	r30, 0x8C	; 140
     c08:	fc 4f       	sbci	r31, 0xFC	; 252
     c0a:	60 81       	ld	r22, Z
     c0c:	71 81       	ldd	r23, Z+1	; 0x01
     c0e:	82 81       	ldd	r24, Z+2	; 0x02
     c10:	93 81       	ldd	r25, Z+3	; 0x03
     c12:	0e 94 9a 03 	call	0x734	; 0x734 <__ltobf>
     c16:	c0 5e       	subi	r28, 0xE0	; 224
     c18:	db 4f       	sbci	r29, 0xFB	; 251
     c1a:	68 83       	st	Y, r22
     c1c:	79 83       	std	Y+1, r23	; 0x01
     c1e:	8a 83       	std	Y+2, r24	; 0x02
     c20:	9b 83       	std	Y+3, r25	; 0x03
     c22:	0f 5f       	subi	r16, 0xFF	; 255
     c24:	1f 4f       	sbci	r17, 0xFF	; 255
     c26:	06 30       	cpi	r16, 0x06	; 6
     c28:	11 05       	cpc	r17, r1
     c2a:	31 f7       	brne	.-52     	; 0xbf8 <KeepRegistorDataHton+0xce>
	KeepRegisterTemp.Temp_T0 = __ltobf(KeepRegister.Temp_T0);
     c2c:	60 91 a4 03 	lds	r22, 0x03A4	; 0x8003a4 <KeepRegister+0x30>
     c30:	70 91 a5 03 	lds	r23, 0x03A5	; 0x8003a5 <KeepRegister+0x31>
     c34:	80 91 a6 03 	lds	r24, 0x03A6	; 0x8003a6 <KeepRegister+0x32>
     c38:	90 91 a7 03 	lds	r25, 0x03A7	; 0x8003a7 <KeepRegister+0x33>
     c3c:	0e 94 9a 03 	call	0x734	; 0x734 <__ltobf>
     c40:	60 93 50 04 	sts	0x0450, r22	; 0x800450 <KeepRegisterTemp+0x30>
     c44:	70 93 51 04 	sts	0x0451, r23	; 0x800451 <KeepRegisterTemp+0x31>
     c48:	80 93 52 04 	sts	0x0452, r24	; 0x800452 <KeepRegisterTemp+0x32>
     c4c:	90 93 53 04 	sts	0x0453, r25	; 0x800453 <KeepRegisterTemp+0x33>
     c50:	00 e0       	ldi	r16, 0x00	; 0
     c52:	10 e0       	ldi	r17, 0x00	; 0
	for(i=0;i<5;i++)KeepRegisterTemp.LTC0[i] = __ltobf(KeepRegister.LTC0[i]);
     c54:	e8 01       	movw	r28, r16
     c56:	2d 96       	adiw	r28, 0x0d	; 13
     c58:	cc 0f       	add	r28, r28
     c5a:	dd 1f       	adc	r29, r29
     c5c:	cc 0f       	add	r28, r28
     c5e:	dd 1f       	adc	r29, r29
     c60:	fe 01       	movw	r30, r28
     c62:	ec 58       	subi	r30, 0x8C	; 140
     c64:	fc 4f       	sbci	r31, 0xFC	; 252
     c66:	60 81       	ld	r22, Z
     c68:	71 81       	ldd	r23, Z+1	; 0x01
     c6a:	82 81       	ldd	r24, Z+2	; 0x02
     c6c:	93 81       	ldd	r25, Z+3	; 0x03
     c6e:	0e 94 9a 03 	call	0x734	; 0x734 <__ltobf>
     c72:	c0 5e       	subi	r28, 0xE0	; 224
     c74:	db 4f       	sbci	r29, 0xFB	; 251
     c76:	68 83       	st	Y, r22
     c78:	79 83       	std	Y+1, r23	; 0x01
     c7a:	8a 83       	std	Y+2, r24	; 0x02
     c7c:	9b 83       	std	Y+3, r25	; 0x03
     c7e:	0f 5f       	subi	r16, 0xFF	; 255
     c80:	1f 4f       	sbci	r17, 0xFF	; 255
     c82:	05 30       	cpi	r16, 0x05	; 5
     c84:	11 05       	cpc	r17, r1
     c86:	31 f7       	brne	.-52     	; 0xc54 <KeepRegistorDataHton+0x12a>
     c88:	00 e0       	ldi	r16, 0x00	; 0
     c8a:	10 e0       	ldi	r17, 0x00	; 0
	for(i=0;i<5;i++)KeepRegisterTemp.LTC1[i] = __ltobf(KeepRegister.LTC1[i]);
     c8c:	e8 01       	movw	r28, r16
     c8e:	62 96       	adiw	r28, 0x12	; 18
     c90:	cc 0f       	add	r28, r28
     c92:	dd 1f       	adc	r29, r29
     c94:	cc 0f       	add	r28, r28
     c96:	dd 1f       	adc	r29, r29
     c98:	fe 01       	movw	r30, r28
     c9a:	ec 58       	subi	r30, 0x8C	; 140
     c9c:	fc 4f       	sbci	r31, 0xFC	; 252
     c9e:	60 81       	ld	r22, Z
     ca0:	71 81       	ldd	r23, Z+1	; 0x01
     ca2:	82 81       	ldd	r24, Z+2	; 0x02
     ca4:	93 81       	ldd	r25, Z+3	; 0x03
     ca6:	0e 94 9a 03 	call	0x734	; 0x734 <__ltobf>
     caa:	c0 5e       	subi	r28, 0xE0	; 224
     cac:	db 4f       	sbci	r29, 0xFB	; 251
     cae:	68 83       	st	Y, r22
     cb0:	79 83       	std	Y+1, r23	; 0x01
     cb2:	8a 83       	std	Y+2, r24	; 0x02
     cb4:	9b 83       	std	Y+3, r25	; 0x03
     cb6:	0f 5f       	subi	r16, 0xFF	; 255
     cb8:	1f 4f       	sbci	r17, 0xFF	; 255
     cba:	05 30       	cpi	r16, 0x05	; 5
     cbc:	11 05       	cpc	r17, r1
     cbe:	31 f7       	brne	.-52     	; 0xc8c <KeepRegistorDataHton+0x162>
     cc0:	00 e0       	ldi	r16, 0x00	; 0
     cc2:	10 e0       	ldi	r17, 0x00	; 0
	for(i=0;i<5;i++)KeepRegisterTemp.LTC2[i] = __ltobf(KeepRegister.LTC2[i]);
     cc4:	e8 01       	movw	r28, r16
     cc6:	67 96       	adiw	r28, 0x17	; 23
     cc8:	cc 0f       	add	r28, r28
     cca:	dd 1f       	adc	r29, r29
     ccc:	cc 0f       	add	r28, r28
     cce:	dd 1f       	adc	r29, r29
     cd0:	fe 01       	movw	r30, r28
     cd2:	ec 58       	subi	r30, 0x8C	; 140
     cd4:	fc 4f       	sbci	r31, 0xFC	; 252
     cd6:	60 81       	ld	r22, Z
     cd8:	71 81       	ldd	r23, Z+1	; 0x01
     cda:	82 81       	ldd	r24, Z+2	; 0x02
     cdc:	93 81       	ldd	r25, Z+3	; 0x03
     cde:	0e 94 9a 03 	call	0x734	; 0x734 <__ltobf>
     ce2:	c0 5e       	subi	r28, 0xE0	; 224
     ce4:	db 4f       	sbci	r29, 0xFB	; 251
     ce6:	68 83       	st	Y, r22
     ce8:	79 83       	std	Y+1, r23	; 0x01
     cea:	8a 83       	std	Y+2, r24	; 0x02
     cec:	9b 83       	std	Y+3, r25	; 0x03
     cee:	0f 5f       	subi	r16, 0xFF	; 255
     cf0:	1f 4f       	sbci	r17, 0xFF	; 255
     cf2:	05 30       	cpi	r16, 0x05	; 5
     cf4:	11 05       	cpc	r17, r1
     cf6:	31 f7       	brne	.-52     	; 0xcc4 <KeepRegistorDataHton+0x19a>
     cf8:	00 e0       	ldi	r16, 0x00	; 0
     cfa:	10 e0       	ldi	r17, 0x00	; 0
	for(i=0;i<5;i++)KeepRegisterTemp.LTC3[i] = __ltobf(KeepRegister.LTC3[i]);
     cfc:	e8 01       	movw	r28, r16
     cfe:	6c 96       	adiw	r28, 0x1c	; 28
     d00:	cc 0f       	add	r28, r28
     d02:	dd 1f       	adc	r29, r29
     d04:	cc 0f       	add	r28, r28
     d06:	dd 1f       	adc	r29, r29
     d08:	fe 01       	movw	r30, r28
     d0a:	ec 58       	subi	r30, 0x8C	; 140
     d0c:	fc 4f       	sbci	r31, 0xFC	; 252
     d0e:	60 81       	ld	r22, Z
     d10:	71 81       	ldd	r23, Z+1	; 0x01
     d12:	82 81       	ldd	r24, Z+2	; 0x02
     d14:	93 81       	ldd	r25, Z+3	; 0x03
     d16:	0e 94 9a 03 	call	0x734	; 0x734 <__ltobf>
     d1a:	c0 5e       	subi	r28, 0xE0	; 224
     d1c:	db 4f       	sbci	r29, 0xFB	; 251
     d1e:	68 83       	st	Y, r22
     d20:	79 83       	std	Y+1, r23	; 0x01
     d22:	8a 83       	std	Y+2, r24	; 0x02
     d24:	9b 83       	std	Y+3, r25	; 0x03
     d26:	0f 5f       	subi	r16, 0xFF	; 255
     d28:	1f 4f       	sbci	r17, 0xFF	; 255
     d2a:	05 30       	cpi	r16, 0x05	; 5
     d2c:	11 05       	cpc	r17, r1
     d2e:	31 f7       	brne	.-52     	; 0xcfc <KeepRegistorDataHton+0x1d2>
     d30:	00 e0       	ldi	r16, 0x00	; 0
     d32:	10 e0       	ldi	r17, 0x00	; 0
	for(i=0;i<5;i++)KeepRegisterTemp.LTC4[i] = __ltobf(KeepRegister.LTC4[i]);
     d34:	e8 01       	movw	r28, r16
     d36:	a1 96       	adiw	r28, 0x21	; 33
     d38:	cc 0f       	add	r28, r28
     d3a:	dd 1f       	adc	r29, r29
     d3c:	cc 0f       	add	r28, r28
     d3e:	dd 1f       	adc	r29, r29
     d40:	fe 01       	movw	r30, r28
     d42:	ec 58       	subi	r30, 0x8C	; 140
     d44:	fc 4f       	sbci	r31, 0xFC	; 252
     d46:	60 81       	ld	r22, Z
     d48:	71 81       	ldd	r23, Z+1	; 0x01
     d4a:	82 81       	ldd	r24, Z+2	; 0x02
     d4c:	93 81       	ldd	r25, Z+3	; 0x03
     d4e:	0e 94 9a 03 	call	0x734	; 0x734 <__ltobf>
     d52:	c0 5e       	subi	r28, 0xE0	; 224
     d54:	db 4f       	sbci	r29, 0xFB	; 251
     d56:	68 83       	st	Y, r22
     d58:	79 83       	std	Y+1, r23	; 0x01
     d5a:	8a 83       	std	Y+2, r24	; 0x02
     d5c:	9b 83       	std	Y+3, r25	; 0x03
     d5e:	0f 5f       	subi	r16, 0xFF	; 255
     d60:	1f 4f       	sbci	r17, 0xFF	; 255
     d62:	05 30       	cpi	r16, 0x05	; 5
     d64:	11 05       	cpc	r17, r1
     d66:	31 f7       	brne	.-52     	; 0xd34 <KeepRegistorDataHton+0x20a>
     d68:	00 e0       	ldi	r16, 0x00	; 0
     d6a:	10 e0       	ldi	r17, 0x00	; 0
	for(i=0;i<5;i++)KeepRegisterTemp.LTC5[i] = __ltobf(KeepRegister.LTC5[i]);	
     d6c:	e8 01       	movw	r28, r16
     d6e:	a6 96       	adiw	r28, 0x26	; 38
     d70:	cc 0f       	add	r28, r28
     d72:	dd 1f       	adc	r29, r29
     d74:	cc 0f       	add	r28, r28
     d76:	dd 1f       	adc	r29, r29
     d78:	fe 01       	movw	r30, r28
     d7a:	ec 58       	subi	r30, 0x8C	; 140
     d7c:	fc 4f       	sbci	r31, 0xFC	; 252
     d7e:	60 81       	ld	r22, Z
     d80:	71 81       	ldd	r23, Z+1	; 0x01
     d82:	82 81       	ldd	r24, Z+2	; 0x02
     d84:	93 81       	ldd	r25, Z+3	; 0x03
     d86:	0e 94 9a 03 	call	0x734	; 0x734 <__ltobf>
     d8a:	c0 5e       	subi	r28, 0xE0	; 224
     d8c:	db 4f       	sbci	r29, 0xFB	; 251
     d8e:	68 83       	st	Y, r22
     d90:	79 83       	std	Y+1, r23	; 0x01
     d92:	8a 83       	std	Y+2, r24	; 0x02
     d94:	9b 83       	std	Y+3, r25	; 0x03
     d96:	0f 5f       	subi	r16, 0xFF	; 255
     d98:	1f 4f       	sbci	r17, 0xFF	; 255
     d9a:	05 30       	cpi	r16, 0x05	; 5
     d9c:	11 05       	cpc	r17, r1
     d9e:	31 f7       	brne	.-52     	; 0xd6c <KeepRegistorDataHton+0x242>
}
     da0:	df 91       	pop	r29
     da2:	cf 91       	pop	r28
     da4:	1f 91       	pop	r17
     da6:	0f 91       	pop	r16
     da8:	08 95       	ret

00000daa <InputRegistorDataHton>:
* Input          : None
* Output         : None
* Return         : None
*******************************************************************************/
void InputRegistorDataHton(void)
{
     daa:	4f 92       	push	r4
     dac:	5f 92       	push	r5
     dae:	6f 92       	push	r6
     db0:	7f 92       	push	r7
     db2:	8f 92       	push	r8
     db4:	9f 92       	push	r9
     db6:	af 92       	push	r10
     db8:	bf 92       	push	r11
     dba:	cf 92       	push	r12
     dbc:	df 92       	push	r13
     dbe:	ef 92       	push	r14
     dc0:	ff 92       	push	r15
     dc2:	0f 93       	push	r16
     dc4:	1f 93       	push	r17
     dc6:	cf 93       	push	r28
     dc8:	df 93       	push	r29
	InputRegisterTemp.DeviceType =htons(InputRegister.DeviceType);
     dca:	c4 e3       	ldi	r28, 0x34	; 52
     dcc:	d3 e0       	ldi	r29, 0x03	; 3
     dce:	28 81       	ld	r18, Y
     dd0:	39 81       	ldd	r19, Y+1	; 0x01
     dd2:	88 81       	ld	r24, Y
     dd4:	99 81       	ldd	r25, Y+1	; 0x01
     dd6:	32 2f       	mov	r19, r18
     dd8:	22 27       	eor	r18, r18
     dda:	89 2f       	mov	r24, r25
     ddc:	99 27       	eor	r25, r25
     dde:	82 2b       	or	r24, r18
     de0:	93 2b       	or	r25, r19
     de2:	04 e5       	ldi	r16, 0x54	; 84
     de4:	13 e0       	ldi	r17, 0x03	; 3
     de6:	f8 01       	movw	r30, r16
     de8:	91 83       	std	Z+1, r25	; 0x01
     dea:	80 83       	st	Z, r24
	InputRegisterTemp.SoftwareVersion =htons(InputRegister.SoftwareVersion);
     dec:	2a 81       	ldd	r18, Y+2	; 0x02
     dee:	3b 81       	ldd	r19, Y+3	; 0x03
     df0:	8a 81       	ldd	r24, Y+2	; 0x02
     df2:	9b 81       	ldd	r25, Y+3	; 0x03
     df4:	32 2f       	mov	r19, r18
     df6:	22 27       	eor	r18, r18
     df8:	89 2f       	mov	r24, r25
     dfa:	99 27       	eor	r25, r25
     dfc:	82 2b       	or	r24, r18
     dfe:	93 2b       	or	r25, r19
     e00:	93 83       	std	Z+3, r25	; 0x03
     e02:	82 83       	std	Z+2, r24	; 0x02
	InputRegisterTemp.SystemWorkTime =htonl(InputRegister.SystemWorkTime);
     e04:	8c 81       	ldd	r24, Y+4	; 0x04
     e06:	9d 81       	ldd	r25, Y+5	; 0x05
     e08:	ae 81       	ldd	r26, Y+6	; 0x06
     e0a:	bf 81       	ldd	r27, Y+7	; 0x07
     e0c:	cc 80       	ldd	r12, Y+4	; 0x04
     e0e:	dd 80       	ldd	r13, Y+5	; 0x05
     e10:	ee 80       	ldd	r14, Y+6	; 0x06
     e12:	ff 80       	ldd	r15, Y+7	; 0x07
     e14:	4c 81       	ldd	r20, Y+4	; 0x04
     e16:	5d 81       	ldd	r21, Y+5	; 0x05
     e18:	6e 81       	ldd	r22, Y+6	; 0x06
     e1a:	7f 81       	ldd	r23, Y+7	; 0x07
     e1c:	8c 80       	ldd	r8, Y+4	; 0x04
     e1e:	9d 80       	ldd	r9, Y+5	; 0x05
     e20:	ae 80       	ldd	r10, Y+6	; 0x06
     e22:	bf 80       	ldd	r11, Y+7	; 0x07
     e24:	78 2e       	mov	r7, r24
     e26:	66 24       	eor	r6, r6
     e28:	55 24       	eor	r5, r5
     e2a:	44 24       	eor	r4, r4
     e2c:	8b 2d       	mov	r24, r11
     e2e:	99 27       	eor	r25, r25
     e30:	aa 27       	eor	r26, r26
     e32:	bb 27       	eor	r27, r27
     e34:	84 29       	or	r24, r4
     e36:	95 29       	or	r25, r5
     e38:	a6 29       	or	r26, r6
     e3a:	b7 29       	or	r27, r7
     e3c:	cc 24       	eor	r12, r12
     e3e:	ee 24       	eor	r14, r14
     e40:	ff 24       	eor	r15, r15
     e42:	fe 2c       	mov	r15, r14
     e44:	ed 2c       	mov	r14, r13
     e46:	dc 2c       	mov	r13, r12
     e48:	cc 24       	eor	r12, r12
     e4a:	8c 29       	or	r24, r12
     e4c:	9d 29       	or	r25, r13
     e4e:	ae 29       	or	r26, r14
     e50:	bf 29       	or	r27, r15
     e52:	44 27       	eor	r20, r20
     e54:	55 27       	eor	r21, r21
     e56:	77 27       	eor	r23, r23
     e58:	45 2f       	mov	r20, r21
     e5a:	56 2f       	mov	r21, r22
     e5c:	67 2f       	mov	r22, r23
     e5e:	77 27       	eor	r23, r23
     e60:	84 2b       	or	r24, r20
     e62:	95 2b       	or	r25, r21
     e64:	a6 2b       	or	r26, r22
     e66:	b7 2b       	or	r27, r23
     e68:	84 83       	std	Z+4, r24	; 0x04
     e6a:	95 83       	std	Z+5, r25	; 0x05
     e6c:	a6 83       	std	Z+6, r26	; 0x06
     e6e:	b7 83       	std	Z+7, r27	; 0x07
	InputRegisterTemp.SystemWorkStatus =htons(InputRegister.SystemWorkStatus);
     e70:	28 85       	ldd	r18, Y+8	; 0x08
     e72:	39 85       	ldd	r19, Y+9	; 0x09
     e74:	88 85       	ldd	r24, Y+8	; 0x08
     e76:	99 85       	ldd	r25, Y+9	; 0x09
     e78:	32 2f       	mov	r19, r18
     e7a:	22 27       	eor	r18, r18
     e7c:	89 2f       	mov	r24, r25
     e7e:	99 27       	eor	r25, r25
     e80:	82 2b       	or	r24, r18
     e82:	93 2b       	or	r25, r19
     e84:	91 87       	std	Z+9, r25	; 0x09
     e86:	80 87       	std	Z+8, r24	; 0x08
	InputRegisterTemp.AltitudeDifference =__ltobf(InputRegister.AltitudeDifference);
     e88:	6c 85       	ldd	r22, Y+12	; 0x0c
     e8a:	7d 85       	ldd	r23, Y+13	; 0x0d
     e8c:	8e 85       	ldd	r24, Y+14	; 0x0e
     e8e:	9f 85       	ldd	r25, Y+15	; 0x0f
     e90:	0e 94 9a 03 	call	0x734	; 0x734 <__ltobf>
     e94:	f8 01       	movw	r30, r16
     e96:	64 87       	std	Z+12, r22	; 0x0c
     e98:	75 87       	std	Z+13, r23	; 0x0d
     e9a:	86 87       	std	Z+14, r24	; 0x0e
     e9c:	97 87       	std	Z+15, r25	; 0x0f
	InputRegisterTemp.Temperature =__ltobf(InputRegister.Temperature);
     e9e:	68 89       	ldd	r22, Y+16	; 0x10
     ea0:	79 89       	ldd	r23, Y+17	; 0x11
     ea2:	8a 89       	ldd	r24, Y+18	; 0x12
     ea4:	9b 89       	ldd	r25, Y+19	; 0x13
     ea6:	0e 94 9a 03 	call	0x734	; 0x734 <__ltobf>
     eaa:	f8 01       	movw	r30, r16
     eac:	60 8b       	std	Z+16, r22	; 0x10
     eae:	71 8b       	std	Z+17, r23	; 0x11
     eb0:	82 8b       	std	Z+18, r24	; 0x12
     eb2:	93 8b       	std	Z+19, r25	; 0x13
	InputRegisterTemp.LiquidAltitudeAbsoluteValue =__ltobf(InputRegister.LiquidAltitudeAbsoluteValue);
     eb4:	6c 89       	ldd	r22, Y+20	; 0x14
     eb6:	7d 89       	ldd	r23, Y+21	; 0x15
     eb8:	8e 89       	ldd	r24, Y+22	; 0x16
     eba:	9f 89       	ldd	r25, Y+23	; 0x17
     ebc:	0e 94 9a 03 	call	0x734	; 0x734 <__ltobf>
     ec0:	f8 01       	movw	r30, r16
     ec2:	64 8b       	std	Z+20, r22	; 0x14
     ec4:	75 8b       	std	Z+21, r23	; 0x15
     ec6:	86 8b       	std	Z+22, r24	; 0x16
     ec8:	97 8b       	std	Z+23, r25	; 0x17
	InputRegisterTemp.ADCOriginalValue =__ltobf(InputRegister.ADCOriginalValue);
     eca:	68 8d       	ldd	r22, Y+24	; 0x18
     ecc:	79 8d       	ldd	r23, Y+25	; 0x19
     ece:	8a 8d       	ldd	r24, Y+26	; 0x1a
     ed0:	9b 8d       	ldd	r25, Y+27	; 0x1b
     ed2:	0e 94 9a 03 	call	0x734	; 0x734 <__ltobf>
     ed6:	f8 01       	movw	r30, r16
     ed8:	60 8f       	std	Z+24, r22	; 0x18
     eda:	71 8f       	std	Z+25, r23	; 0x19
     edc:	82 8f       	std	Z+26, r24	; 0x1a
     ede:	93 8f       	std	Z+27, r25	; 0x1b
	InputRegisterTemp.PA               =__ltobf(InputRegister.PA);
     ee0:	6c 8d       	ldd	r22, Y+28	; 0x1c
     ee2:	7d 8d       	ldd	r23, Y+29	; 0x1d
     ee4:	8e 8d       	ldd	r24, Y+30	; 0x1e
     ee6:	9f 8d       	ldd	r25, Y+31	; 0x1f
     ee8:	0e 94 9a 03 	call	0x734	; 0x734 <__ltobf>
     eec:	f8 01       	movw	r30, r16
     eee:	64 8f       	std	Z+28, r22	; 0x1c
     ef0:	75 8f       	std	Z+29, r23	; 0x1d
     ef2:	86 8f       	std	Z+30, r24	; 0x1e
     ef4:	97 8f       	std	Z+31, r25	; 0x1f
}
     ef6:	df 91       	pop	r29
     ef8:	cf 91       	pop	r28
     efa:	1f 91       	pop	r17
     efc:	0f 91       	pop	r16
     efe:	ff 90       	pop	r15
     f00:	ef 90       	pop	r14
     f02:	df 90       	pop	r13
     f04:	cf 90       	pop	r12
     f06:	bf 90       	pop	r11
     f08:	af 90       	pop	r10
     f0a:	9f 90       	pop	r9
     f0c:	8f 90       	pop	r8
     f0e:	7f 90       	pop	r7
     f10:	6f 90       	pop	r6
     f12:	5f 90       	pop	r5
     f14:	4f 90       	pop	r4
     f16:	08 95       	ret

00000f18 <ModbusReadKeepRegistor>:
读保持寄存器
数据格式:器件地址(1字节)+功能码(0x03)+起始地址(2字节)+读取寄存器数量(2字节)+校验(2字节)
返回格式:器件地址(1字节)+功能码(0x03)+数据长度(字节数,1字节)+数据(n字节)+校验(2字节)
*********************************/
char ModbusReadKeepRegistor(void)
{
     f18:	cf 92       	push	r12
     f1a:	df 92       	push	r13
     f1c:	ef 92       	push	r14
     f1e:	ff 92       	push	r15
     f20:	0f 93       	push	r16
     f22:	1f 93       	push	r17
     f24:	cf 93       	push	r28
     f26:	df 93       	push	r29
     f28:	cd b7       	in	r28, 0x3d	; 61
     f2a:	de b7       	in	r29, 0x3e	; 62
     f2c:	c4 5b       	subi	r28, 0xB4	; 180
     f2e:	d1 09       	sbc	r29, r1
     f30:	0f b6       	in	r0, 0x3f	; 63
     f32:	f8 94       	cli
     f34:	de bf       	out	0x3e, r29	; 62
     f36:	0f be       	out	0x3f, r0	; 63
     f38:	cd bf       	out	0x3d, r28	; 61
	unsigned char err = 0;
	uint8_t temp[180];
	uint16_t crc;
	
 	uint16_t StartAddress = (ModbusDataPackage.dat[2] << 8) | ModbusDataPackage.dat[3]; //获取起始地址
     f3a:	e2 e3       	ldi	r30, 0x32	; 50
     f3c:	f2 e0       	ldi	r31, 0x02	; 2
     f3e:	84 81       	ldd	r24, Z+4	; 0x04
     f40:	65 81       	ldd	r22, Z+5	; 0x05
     f42:	70 e0       	ldi	r23, 0x00	; 0
     f44:	7b 01       	movw	r14, r22
     f46:	f8 2a       	or	r15, r24
     f48:	b7 01       	movw	r22, r14
 	uint16_t RegVal = (ModbusDataPackage.dat[4] << 8) | ModbusDataPackage.dat[5];		//获取要读取的寄存器数量
     f4a:	86 81       	ldd	r24, Z+6	; 0x06
     f4c:	07 81       	ldd	r16, Z+7	; 0x07
     f4e:	10 e0       	ldi	r17, 0x00	; 0
     f50:	18 2b       	or	r17, r24
 	uint16_t StopAddress = StartAddress + RegVal - 1;									//获取结束地址
     f52:	97 01       	movw	r18, r14
     f54:	20 0f       	add	r18, r16
     f56:	31 1f       	adc	r19, r17
     f58:	d9 01       	movw	r26, r18
     f5a:	11 97       	sbiw	r26, 0x01	; 1
 	uint16_t KeepRegistorSize = sizeof(KeepRegister) / 2;								//计算保持寄存器总数量
 	uint16_t bytes = RegVal*2;															//计算要读取的字节数
	
 	if(ModbusDataPackage.DataLen != 8)err = err_OE;										//有效操作发生异常
     f5c:	81 81       	ldd	r24, Z+1	; 0x01
     f5e:	88 30       	cpi	r24, 0x08	; 8
     f60:	11 f0       	breq	.+4      	; 0xf66 <ModbusReadKeepRegistor+0x4e>
     f62:	84 e0       	ldi	r24, 0x04	; 4
     f64:	01 c0       	rjmp	.+2      	; 0xf68 <ModbusReadKeepRegistor+0x50>
数据格式:器件地址(1字节)+功能码(0x03)+起始地址(2字节)+读取寄存器数量(2字节)+校验(2字节)
返回格式:器件地址(1字节)+功能码(0x03)+数据长度(字节数,1字节)+数据(n字节)+校验(2字节)
*********************************/
char ModbusReadKeepRegistor(void)
{
	unsigned char err = 0;
     f66:	80 e0       	ldi	r24, 0x00	; 0
 	uint16_t StopAddress = StartAddress + RegVal - 1;									//获取结束地址
 	uint16_t KeepRegistorSize = sizeof(KeepRegister) / 2;								//计算保持寄存器总数量
 	uint16_t bytes = RegVal*2;															//计算要读取的字节数
	
 	if(ModbusDataPackage.DataLen != 8)err = err_OE;										//有效操作发生异常
 	if(!RegVal)err = err_add;															//寄存器地址不正确,读取数量必须大于1
     f68:	01 15       	cp	r16, r1
     f6a:	11 05       	cpc	r17, r1
     f6c:	09 f4       	brne	.+2      	; 0xf70 <ModbusReadKeepRegistor+0x58>
     f6e:	82 e0       	ldi	r24, 0x02	; 2
 	if( (  (StartAddress == 0x03) || (StartAddress == 0x05) || (StartAddress == 0x09) || (StartAddress == 0x0b)  || (StartAddress == 0x0d) || (StartAddress == 0x0f)  || \
     f70:	a7 01       	movw	r20, r14
     f72:	47 7f       	andi	r20, 0xF7	; 247
     f74:	43 30       	cpi	r20, 0x03	; 3
     f76:	51 05       	cpc	r21, r1
     f78:	09 f4       	brne	.+2      	; 0xf7c <ModbusReadKeepRegistor+0x64>
     f7a:	49 c0       	rjmp	.+146    	; 0x100e <ModbusReadKeepRegistor+0xf6>
     f7c:	45 30       	cpi	r20, 0x05	; 5
     f7e:	51 05       	cpc	r21, r1
     f80:	09 f4       	brne	.+2      	; 0xf84 <ModbusReadKeepRegistor+0x6c>
     f82:	47 c0       	rjmp	.+142    	; 0x1012 <ModbusReadKeepRegistor+0xfa>
     f84:	a7 01       	movw	r20, r14
     f86:	4f 7e       	andi	r20, 0xEF	; 239
     f88:	49 30       	cpi	r20, 0x09	; 9
     f8a:	51 05       	cpc	r21, r1
     f8c:	09 f4       	brne	.+2      	; 0xf90 <ModbusReadKeepRegistor+0x78>
     f8e:	43 c0       	rjmp	.+134    	; 0x1016 <ModbusReadKeepRegistor+0xfe>
     f90:	4f 30       	cpi	r20, 0x0F	; 15
     f92:	51 05       	cpc	r21, r1
     f94:	09 f4       	brne	.+2      	; 0xf98 <ModbusReadKeepRegistor+0x80>
     f96:	41 c0       	rjmp	.+130    	; 0x101a <ModbusReadKeepRegistor+0x102>
     f98:	a7 01       	movw	r20, r14
     f9a:	4d 7f       	andi	r20, 0xFD	; 253
     f9c:	41 31       	cpi	r20, 0x11	; 17
     f9e:	51 05       	cpc	r21, r1
     fa0:	f1 f1       	breq	.+124    	; 0x101e <ModbusReadKeepRegistor+0x106>
	       (StartAddress == 0x11) || (StartAddress == 0x13) || (StartAddress == 0x15) || (StartAddress == 0x17)  || (StartAddress == 0x19) || (StartAddress == 0x1b)  || (StartAddress == 0x1d) || (StartAddress == 0x1f) || \
     fa2:	45 31       	cpi	r20, 0x15	; 21
     fa4:	51 05       	cpc	r21, r1
     fa6:	e9 f1       	breq	.+122    	; 0x1022 <ModbusReadKeepRegistor+0x10a>
     fa8:	f7 01       	movw	r30, r14
     faa:	ef 7d       	andi	r30, 0xDF	; 223
     fac:	eb 31       	cpi	r30, 0x1B	; 27
     fae:	f1 05       	cpc	r31, r1
     fb0:	d1 f1       	breq	.+116    	; 0x1026 <ModbusReadKeepRegistor+0x10e>
     fb2:	7d 97       	sbiw	r30, 0x1d	; 29
     fb4:	d1 f1       	breq	.+116    	; 0x102a <ModbusReadKeepRegistor+0x112>
     fb6:	41 32       	cpi	r20, 0x21	; 33
     fb8:	51 05       	cpc	r21, r1
     fba:	c9 f1       	breq	.+114    	; 0x102e <ModbusReadKeepRegistor+0x116>
		   (StartAddress == 0x21) || (StartAddress == 0x23) || (StartAddress == 0x25) || (StartAddress == 0x27)  || (StartAddress == 0x29) || (StartAddress == 0x2b)  || (StartAddress == 0x2d) || (StartAddress == 0x2f) || \
     fbc:	45 32       	cpi	r20, 0x25	; 37
     fbe:	51 05       	cpc	r21, r1
     fc0:	c1 f1       	breq	.+112    	; 0x1032 <ModbusReadKeepRegistor+0x11a>
     fc2:	49 32       	cpi	r20, 0x29	; 41
     fc4:	51 05       	cpc	r21, r1
     fc6:	b9 f1       	breq	.+110    	; 0x1036 <ModbusReadKeepRegistor+0x11e>
     fc8:	4d 32       	cpi	r20, 0x2D	; 45
     fca:	51 05       	cpc	r21, r1
     fcc:	b1 f1       	breq	.+108    	; 0x103a <ModbusReadKeepRegistor+0x122>
     fce:	41 33       	cpi	r20, 0x31	; 49
     fd0:	51 05       	cpc	r21, r1
     fd2:	a9 f1       	breq	.+106    	; 0x103e <ModbusReadKeepRegistor+0x126>
		   (StartAddress == 0x31) || (StartAddress == 0x33) || (StartAddress == 0x35) || (StartAddress == 0x37)  || (StartAddress == 0x39) || (StartAddress == 0x3b)  || (StartAddress == 0x3d) || (StartAddress == 0x3f) || \
     fd4:	45 33       	cpi	r20, 0x35	; 53
     fd6:	51 05       	cpc	r21, r1
     fd8:	a1 f1       	breq	.+104    	; 0x1042 <ModbusReadKeepRegistor+0x12a>
     fda:	69 33       	cpi	r22, 0x39	; 57
     fdc:	71 05       	cpc	r23, r1
     fde:	99 f1       	breq	.+102    	; 0x1046 <ModbusReadKeepRegistor+0x12e>
     fe0:	6f 33       	cpi	r22, 0x3F	; 63
     fe2:	71 05       	cpc	r23, r1
     fe4:	91 f1       	breq	.+100    	; 0x104a <ModbusReadKeepRegistor+0x132>
     fe6:	41 34       	cpi	r20, 0x41	; 65
     fe8:	51 05       	cpc	r21, r1
     fea:	89 f1       	breq	.+98     	; 0x104e <ModbusReadKeepRegistor+0x136>
		   (StartAddress == 0x41) || (StartAddress == 0x43) || (StartAddress == 0x45) || (StartAddress == 0x47)  || (StartAddress == 0x49) || (StartAddress == 0x4b)  || (StartAddress == 0x4d) || (StartAddress == 0x4f) || \
     fec:	45 34       	cpi	r20, 0x45	; 69
     fee:	51 05       	cpc	r21, r1
     ff0:	81 f1       	breq	.+96     	; 0x1052 <ModbusReadKeepRegistor+0x13a>
     ff2:	49 34       	cpi	r20, 0x49	; 73
     ff4:	51 05       	cpc	r21, r1
     ff6:	79 f1       	breq	.+94     	; 0x1056 <ModbusReadKeepRegistor+0x13e>
     ff8:	4d 34       	cpi	r20, 0x4D	; 77
     ffa:	51 05       	cpc	r21, r1
     ffc:	71 f1       	breq	.+92     	; 0x105a <ModbusReadKeepRegistor+0x142>
     ffe:	41 35       	cpi	r20, 0x51	; 81
    1000:	51 05       	cpc	r21, r1
    1002:	69 f1       	breq	.+90     	; 0x105e <ModbusReadKeepRegistor+0x146>
		   (StartAddress == 0x51) || (StartAddress == 0x53) || (StartAddress == 0x55)  ) )err = err_add;//寄存器地址不正确,多字节数据要从头读出
    1004:	65 35       	cpi	r22, 0x55	; 85
    1006:	71 05       	cpc	r23, r1
    1008:	59 f5       	brne	.+86     	; 0x1060 <ModbusReadKeepRegistor+0x148>
    100a:	82 e0       	ldi	r24, 0x02	; 2
    100c:	29 c0       	rjmp	.+82     	; 0x1060 <ModbusReadKeepRegistor+0x148>
    100e:	82 e0       	ldi	r24, 0x02	; 2
    1010:	27 c0       	rjmp	.+78     	; 0x1060 <ModbusReadKeepRegistor+0x148>
    1012:	82 e0       	ldi	r24, 0x02	; 2
    1014:	25 c0       	rjmp	.+74     	; 0x1060 <ModbusReadKeepRegistor+0x148>
    1016:	82 e0       	ldi	r24, 0x02	; 2
    1018:	23 c0       	rjmp	.+70     	; 0x1060 <ModbusReadKeepRegistor+0x148>
    101a:	82 e0       	ldi	r24, 0x02	; 2
    101c:	21 c0       	rjmp	.+66     	; 0x1060 <ModbusReadKeepRegistor+0x148>
    101e:	82 e0       	ldi	r24, 0x02	; 2
    1020:	1f c0       	rjmp	.+62     	; 0x1060 <ModbusReadKeepRegistor+0x148>
    1022:	82 e0       	ldi	r24, 0x02	; 2
    1024:	1d c0       	rjmp	.+58     	; 0x1060 <ModbusReadKeepRegistor+0x148>
    1026:	82 e0       	ldi	r24, 0x02	; 2
    1028:	1b c0       	rjmp	.+54     	; 0x1060 <ModbusReadKeepRegistor+0x148>
    102a:	82 e0       	ldi	r24, 0x02	; 2
    102c:	19 c0       	rjmp	.+50     	; 0x1060 <ModbusReadKeepRegistor+0x148>
    102e:	82 e0       	ldi	r24, 0x02	; 2
    1030:	17 c0       	rjmp	.+46     	; 0x1060 <ModbusReadKeepRegistor+0x148>
    1032:	82 e0       	ldi	r24, 0x02	; 2
    1034:	15 c0       	rjmp	.+42     	; 0x1060 <ModbusReadKeepRegistor+0x148>
    1036:	82 e0       	ldi	r24, 0x02	; 2
    1038:	13 c0       	rjmp	.+38     	; 0x1060 <ModbusReadKeepRegistor+0x148>
    103a:	82 e0       	ldi	r24, 0x02	; 2
    103c:	11 c0       	rjmp	.+34     	; 0x1060 <ModbusReadKeepRegistor+0x148>
    103e:	82 e0       	ldi	r24, 0x02	; 2
    1040:	0f c0       	rjmp	.+30     	; 0x1060 <ModbusReadKeepRegistor+0x148>
    1042:	82 e0       	ldi	r24, 0x02	; 2
    1044:	0d c0       	rjmp	.+26     	; 0x1060 <ModbusReadKeepRegistor+0x148>
    1046:	82 e0       	ldi	r24, 0x02	; 2
    1048:	0b c0       	rjmp	.+22     	; 0x1060 <ModbusReadKeepRegistor+0x148>
    104a:	82 e0       	ldi	r24, 0x02	; 2
    104c:	09 c0       	rjmp	.+18     	; 0x1060 <ModbusReadKeepRegistor+0x148>
    104e:	82 e0       	ldi	r24, 0x02	; 2
    1050:	07 c0       	rjmp	.+14     	; 0x1060 <ModbusReadKeepRegistor+0x148>
    1052:	82 e0       	ldi	r24, 0x02	; 2
    1054:	05 c0       	rjmp	.+10     	; 0x1060 <ModbusReadKeepRegistor+0x148>
    1056:	82 e0       	ldi	r24, 0x02	; 2
    1058:	03 c0       	rjmp	.+6      	; 0x1060 <ModbusReadKeepRegistor+0x148>
    105a:	82 e0       	ldi	r24, 0x02	; 2
    105c:	01 c0       	rjmp	.+2      	; 0x1060 <ModbusReadKeepRegistor+0x148>
    105e:	82 e0       	ldi	r24, 0x02	; 2
 	if( (  (StopAddress == 0x02)  || (StopAddress == 0x04)  || (StopAddress == 0x08)  || (StopAddress == 0x0a)   || (StopAddress == 0x0c)  || (StopAddress == 0x0e)   || \
    1060:	a9 01       	movw	r20, r18
    1062:	47 7f       	andi	r20, 0xF7	; 247
    1064:	43 30       	cpi	r20, 0x03	; 3
    1066:	51 05       	cpc	r21, r1
    1068:	09 f4       	brne	.+2      	; 0x106c <ModbusReadKeepRegistor+0x154>
    106a:	4a c0       	rjmp	.+148    	; 0x1100 <ModbusReadKeepRegistor+0x1e8>
    106c:	45 30       	cpi	r20, 0x05	; 5
    106e:	51 05       	cpc	r21, r1
    1070:	09 f4       	brne	.+2      	; 0x1074 <ModbusReadKeepRegistor+0x15c>
    1072:	48 c0       	rjmp	.+144    	; 0x1104 <ModbusReadKeepRegistor+0x1ec>
    1074:	a9 01       	movw	r20, r18
    1076:	4f 7e       	andi	r20, 0xEF	; 239
    1078:	49 30       	cpi	r20, 0x09	; 9
    107a:	51 05       	cpc	r21, r1
    107c:	09 f4       	brne	.+2      	; 0x1080 <ModbusReadKeepRegistor+0x168>
    107e:	44 c0       	rjmp	.+136    	; 0x1108 <ModbusReadKeepRegistor+0x1f0>
    1080:	4f 30       	cpi	r20, 0x0F	; 15
    1082:	51 05       	cpc	r21, r1
    1084:	09 f4       	brne	.+2      	; 0x1088 <ModbusReadKeepRegistor+0x170>
    1086:	42 c0       	rjmp	.+132    	; 0x110c <ModbusReadKeepRegistor+0x1f4>
    1088:	a9 01       	movw	r20, r18
    108a:	4d 7f       	andi	r20, 0xFD	; 253
    108c:	41 31       	cpi	r20, 0x11	; 17
    108e:	51 05       	cpc	r21, r1
    1090:	f9 f1       	breq	.+126    	; 0x1110 <ModbusReadKeepRegistor+0x1f8>
	       (StopAddress == 0x10)  || (StopAddress == 0x12)  || (StopAddress == 0x14)  || (StopAddress == 0x16)   || (StopAddress == 0x18)  || (StopAddress == 0x1a)   || (StopAddress == 0x1c)  || (StopAddress == 0x1e)  || \
    1092:	45 31       	cpi	r20, 0x15	; 21
    1094:	51 05       	cpc	r21, r1
    1096:	f1 f1       	breq	.+124    	; 0x1114 <ModbusReadKeepRegistor+0x1fc>
    1098:	2f 7d       	andi	r18, 0xDF	; 223
    109a:	2b 31       	cpi	r18, 0x1B	; 27
    109c:	31 05       	cpc	r19, r1
    109e:	e1 f1       	breq	.+120    	; 0x1118 <ModbusReadKeepRegistor+0x200>
    10a0:	2d 31       	cpi	r18, 0x1D	; 29
    10a2:	31 05       	cpc	r19, r1
    10a4:	d9 f1       	breq	.+118    	; 0x111c <ModbusReadKeepRegistor+0x204>
    10a6:	41 32       	cpi	r20, 0x21	; 33
    10a8:	51 05       	cpc	r21, r1
    10aa:	d1 f1       	breq	.+116    	; 0x1120 <ModbusReadKeepRegistor+0x208>
		   (StopAddress == 0x20)  || (StopAddress == 0x22)  || (StopAddress == 0x24)  || (StopAddress == 0x26)   || (StopAddress == 0x28)  || (StopAddress == 0x2a)   || (StopAddress == 0x2c)  || (StopAddress == 0x2e)  || \
    10ac:	45 32       	cpi	r20, 0x25	; 37
    10ae:	51 05       	cpc	r21, r1
    10b0:	c9 f1       	breq	.+114    	; 0x1124 <ModbusReadKeepRegistor+0x20c>
    10b2:	49 32       	cpi	r20, 0x29	; 41
    10b4:	51 05       	cpc	r21, r1
    10b6:	c1 f1       	breq	.+112    	; 0x1128 <ModbusReadKeepRegistor+0x210>
    10b8:	4d 32       	cpi	r20, 0x2D	; 45
    10ba:	51 05       	cpc	r21, r1
    10bc:	b9 f1       	breq	.+110    	; 0x112c <ModbusReadKeepRegistor+0x214>
    10be:	41 33       	cpi	r20, 0x31	; 49
    10c0:	51 05       	cpc	r21, r1
    10c2:	b1 f1       	breq	.+108    	; 0x1130 <ModbusReadKeepRegistor+0x218>
		   (StopAddress == 0x30)  || (StopAddress == 0x32)  || (StopAddress == 0x34)  || (StopAddress == 0x36)   || (StopAddress == 0x38)  || (StopAddress == 0x3a)   || (StopAddress == 0x3c)  || (StopAddress == 0x3e)  || \
    10c4:	45 33       	cpi	r20, 0x35	; 53
    10c6:	51 05       	cpc	r21, r1
    10c8:	a9 f1       	breq	.+106    	; 0x1134 <ModbusReadKeepRegistor+0x21c>
    10ca:	a8 33       	cpi	r26, 0x38	; 56
    10cc:	b1 05       	cpc	r27, r1
    10ce:	09 f4       	brne	.+2      	; 0x10d2 <ModbusReadKeepRegistor+0x1ba>
    10d0:	41 c0       	rjmp	.+130    	; 0x1154 <ModbusReadKeepRegistor+0x23c>
    10d2:	ae 33       	cpi	r26, 0x3E	; 62
    10d4:	b1 05       	cpc	r27, r1
    10d6:	09 f4       	brne	.+2      	; 0x10da <ModbusReadKeepRegistor+0x1c2>
    10d8:	3f c0       	rjmp	.+126    	; 0x1158 <ModbusReadKeepRegistor+0x240>
    10da:	41 34       	cpi	r20, 0x41	; 65
    10dc:	51 05       	cpc	r21, r1
    10de:	61 f1       	breq	.+88     	; 0x1138 <ModbusReadKeepRegistor+0x220>
		   (StopAddress == 0x40)  || (StopAddress == 0x42)  || (StopAddress == 0x44)  || (StopAddress == 0x46)   || (StopAddress == 0x48)  || (StopAddress == 0x4a)   || (StopAddress == 0x4c)  || (StopAddress == 0x4e)  || \
    10e0:	45 34       	cpi	r20, 0x45	; 69
    10e2:	51 05       	cpc	r21, r1
    10e4:	59 f1       	breq	.+86     	; 0x113c <ModbusReadKeepRegistor+0x224>
    10e6:	49 34       	cpi	r20, 0x49	; 73
    10e8:	51 05       	cpc	r21, r1
    10ea:	51 f1       	breq	.+84     	; 0x1140 <ModbusReadKeepRegistor+0x228>
    10ec:	4d 34       	cpi	r20, 0x4D	; 77
    10ee:	51 05       	cpc	r21, r1
    10f0:	49 f1       	breq	.+82     	; 0x1144 <ModbusReadKeepRegistor+0x22c>
    10f2:	41 35       	cpi	r20, 0x51	; 81
    10f4:	51 05       	cpc	r21, r1
    10f6:	41 f1       	breq	.+80     	; 0x1148 <ModbusReadKeepRegistor+0x230>
		   (StopAddress == 0x50)  || (StopAddress == 0x52)  || (StopAddress == 0x54)   ) )err = err_add;//寄存器地址不正确,多字节数据没有全部读出
    10f8:	a4 35       	cpi	r26, 0x54	; 84
    10fa:	b1 05       	cpc	r27, r1
    10fc:	31 f5       	brne	.+76     	; 0x114a <ModbusReadKeepRegistor+0x232>
    10fe:	2e c0       	rjmp	.+92     	; 0x115c <ModbusReadKeepRegistor+0x244>
    1100:	82 e0       	ldi	r24, 0x02	; 2
    1102:	23 c0       	rjmp	.+70     	; 0x114a <ModbusReadKeepRegistor+0x232>
    1104:	82 e0       	ldi	r24, 0x02	; 2
    1106:	21 c0       	rjmp	.+66     	; 0x114a <ModbusReadKeepRegistor+0x232>
    1108:	82 e0       	ldi	r24, 0x02	; 2
    110a:	1f c0       	rjmp	.+62     	; 0x114a <ModbusReadKeepRegistor+0x232>
    110c:	82 e0       	ldi	r24, 0x02	; 2
    110e:	1d c0       	rjmp	.+58     	; 0x114a <ModbusReadKeepRegistor+0x232>
    1110:	82 e0       	ldi	r24, 0x02	; 2
    1112:	1b c0       	rjmp	.+54     	; 0x114a <ModbusReadKeepRegistor+0x232>
    1114:	82 e0       	ldi	r24, 0x02	; 2
    1116:	19 c0       	rjmp	.+50     	; 0x114a <ModbusReadKeepRegistor+0x232>
    1118:	82 e0       	ldi	r24, 0x02	; 2
    111a:	17 c0       	rjmp	.+46     	; 0x114a <ModbusReadKeepRegistor+0x232>
    111c:	82 e0       	ldi	r24, 0x02	; 2
    111e:	15 c0       	rjmp	.+42     	; 0x114a <ModbusReadKeepRegistor+0x232>
    1120:	82 e0       	ldi	r24, 0x02	; 2
    1122:	13 c0       	rjmp	.+38     	; 0x114a <ModbusReadKeepRegistor+0x232>
    1124:	82 e0       	ldi	r24, 0x02	; 2
    1126:	11 c0       	rjmp	.+34     	; 0x114a <ModbusReadKeepRegistor+0x232>
    1128:	82 e0       	ldi	r24, 0x02	; 2
    112a:	0f c0       	rjmp	.+30     	; 0x114a <ModbusReadKeepRegistor+0x232>
    112c:	82 e0       	ldi	r24, 0x02	; 2
    112e:	0d c0       	rjmp	.+26     	; 0x114a <ModbusReadKeepRegistor+0x232>
    1130:	82 e0       	ldi	r24, 0x02	; 2
    1132:	0b c0       	rjmp	.+22     	; 0x114a <ModbusReadKeepRegistor+0x232>
    1134:	82 e0       	ldi	r24, 0x02	; 2
    1136:	09 c0       	rjmp	.+18     	; 0x114a <ModbusReadKeepRegistor+0x232>
    1138:	82 e0       	ldi	r24, 0x02	; 2
    113a:	07 c0       	rjmp	.+14     	; 0x114a <ModbusReadKeepRegistor+0x232>
    113c:	82 e0       	ldi	r24, 0x02	; 2
    113e:	05 c0       	rjmp	.+10     	; 0x114a <ModbusReadKeepRegistor+0x232>
    1140:	82 e0       	ldi	r24, 0x02	; 2
    1142:	03 c0       	rjmp	.+6      	; 0x114a <ModbusReadKeepRegistor+0x232>
    1144:	82 e0       	ldi	r24, 0x02	; 2
    1146:	01 c0       	rjmp	.+2      	; 0x114a <ModbusReadKeepRegistor+0x232>
    1148:	82 e0       	ldi	r24, 0x02	; 2
 	if(StopAddress > (KeepRegistorSize - 1))err = err_add;							//寄存器地址不正确
    114a:	a6 35       	cpi	r26, 0x56	; 86
    114c:	b1 05       	cpc	r27, r1
    114e:	38 f0       	brcs	.+14     	; 0x115e <ModbusReadKeepRegistor+0x246>
    1150:	82 e0       	ldi	r24, 0x02	; 2
    1152:	05 c0       	rjmp	.+10     	; 0x115e <ModbusReadKeepRegistor+0x246>
    1154:	82 e0       	ldi	r24, 0x02	; 2
    1156:	03 c0       	rjmp	.+6      	; 0x115e <ModbusReadKeepRegistor+0x246>
    1158:	82 e0       	ldi	r24, 0x02	; 2
    115a:	01 c0       	rjmp	.+2      	; 0x115e <ModbusReadKeepRegistor+0x246>
    115c:	82 e0       	ldi	r24, 0x02	; 2
 	if(StartAddress > (KeepRegistorSize - 1))err = err_add;							//寄存器地址不正确
    115e:	66 35       	cpi	r22, 0x56	; 86
    1160:	71 05       	cpc	r23, r1
    1162:	18 f4       	brcc	.+6      	; 0x116a <ModbusReadKeepRegistor+0x252>
// 	printf("err:%d\r\n",err);
// 	printf("ModbusDataPackage.dat[0]:%d\r\n",ModbusDataPackage.dat[0]);
// 	printf("\r\n");
// 	U485RX;Delay_ms(100);
	
	if(  err != 0  )							//返回异常码信息
    1164:	88 23       	and	r24, r24
    1166:	31 f0       	breq	.+12     	; 0x1174 <ModbusReadKeepRegistor+0x25c>
    1168:	01 c0       	rjmp	.+2      	; 0x116c <ModbusReadKeepRegistor+0x254>
		   (StopAddress == 0x20)  || (StopAddress == 0x22)  || (StopAddress == 0x24)  || (StopAddress == 0x26)   || (StopAddress == 0x28)  || (StopAddress == 0x2a)   || (StopAddress == 0x2c)  || (StopAddress == 0x2e)  || \
		   (StopAddress == 0x30)  || (StopAddress == 0x32)  || (StopAddress == 0x34)  || (StopAddress == 0x36)   || (StopAddress == 0x38)  || (StopAddress == 0x3a)   || (StopAddress == 0x3c)  || (StopAddress == 0x3e)  || \
		   (StopAddress == 0x40)  || (StopAddress == 0x42)  || (StopAddress == 0x44)  || (StopAddress == 0x46)   || (StopAddress == 0x48)  || (StopAddress == 0x4a)   || (StopAddress == 0x4c)  || (StopAddress == 0x4e)  || \
		   (StopAddress == 0x50)  || (StopAddress == 0x52)  || (StopAddress == 0x54)   ) )err = err_add;//寄存器地址不正确,多字节数据没有全部读出
 	if(StopAddress > (KeepRegistorSize - 1))err = err_add;							//寄存器地址不正确
 	if(StartAddress > (KeepRegistorSize - 1))err = err_add;							//寄存器地址不正确
    116a:	82 e0       	ldi	r24, 0x02	; 2
// 	printf("\r\n");
// 	U485RX;Delay_ms(100);
	
	if(  err != 0  )							//返回异常码信息
	{
		ModbusReturnAckInfo(err);														//向485返回异常码信息
    116c:	0e 94 63 05 	call	0xac6	; 0xac6 <ModbusReturnAckInfo>
		return ERROR;
    1170:	80 e0       	ldi	r24, 0x00	; 0
    1172:	46 c0       	rjmp	.+140    	; 0x1200 <ModbusReadKeepRegistor+0x2e8>
	
 	uint16_t StartAddress = (ModbusDataPackage.dat[2] << 8) | ModbusDataPackage.dat[3]; //获取起始地址
 	uint16_t RegVal = (ModbusDataPackage.dat[4] << 8) | ModbusDataPackage.dat[5];		//获取要读取的寄存器数量
 	uint16_t StopAddress = StartAddress + RegVal - 1;									//获取结束地址
 	uint16_t KeepRegistorSize = sizeof(KeepRegister) / 2;								//计算保持寄存器总数量
 	uint16_t bytes = RegVal*2;															//计算要读取的字节数
    1174:	00 0f       	add	r16, r16
    1176:	11 1f       	adc	r17, r17
	{
		ModbusReturnAckInfo(err);														//向485返回异常码信息
		return ERROR;
	}
 	
 	KeepRegistorDataHton();																//大小端数据处理,放在缓存中
    1178:	0e 94 95 05 	call	0xb2a	; 0xb2a <KeepRegistorDataHton>
 	/*读取保持寄存器数据并向485返回数据*/
  	
	temp[0] = KeepRegister.DeviceAddress;								//赋值设备地址
    117c:	80 91 74 03 	lds	r24, 0x0374	; 0x800374 <KeepRegister>
    1180:	90 91 75 03 	lds	r25, 0x0375	; 0x800375 <KeepRegister+0x1>
    1184:	89 83       	std	Y+1, r24	; 0x01
  	temp[1] = ModbusDataPackage.dat[1];									//赋值功能码
    1186:	0f 2e       	mov	r0, r31
    1188:	f2 e3       	ldi	r31, 0x32	; 50
    118a:	cf 2e       	mov	r12, r31
    118c:	f2 e0       	ldi	r31, 0x02	; 2
    118e:	df 2e       	mov	r13, r31
    1190:	f0 2d       	mov	r31, r0
    1192:	f6 01       	movw	r30, r12
    1194:	83 81       	ldd	r24, Z+3	; 0x03
    1196:	8a 83       	std	Y+2, r24	; 0x02
  	temp[2] = bytes;													//赋值数据长度(字节数)
    1198:	0b 83       	std	Y+3, r16	; 0x03
  	memcpy(&temp[3],(uint8_t *)&KeepRegisterTemp+StartAddress*2,bytes);	//字符串copy
    119a:	b7 01       	movw	r22, r14
    119c:	66 0f       	add	r22, r22
    119e:	77 1f       	adc	r23, r23
    11a0:	60 5e       	subi	r22, 0xE0	; 224
    11a2:	7b 4f       	sbci	r23, 0xFB	; 251
    11a4:	a8 01       	movw	r20, r16
    11a6:	ce 01       	movw	r24, r28
    11a8:	04 96       	adiw	r24, 0x04	; 4
    11aa:	0e 94 24 2b 	call	0x5648	; 0x5648 <memcpy>
  	
  	crc=CRC16_Check(temp,bytes+3);										//执行crc校验
    11ae:	63 e0       	ldi	r22, 0x03	; 3
    11b0:	60 0f       	add	r22, r16
    11b2:	ce 01       	movw	r24, r28
    11b4:	01 96       	adiw	r24, 0x01	; 1
    11b6:	0e 94 3f 05 	call	0xa7e	; 0xa7e <CRC16_Check>
  	temp[bytes+3]=crc & 0xff;
    11ba:	e4 e0       	ldi	r30, 0x04	; 4
    11bc:	f0 e0       	ldi	r31, 0x00	; 0
    11be:	ec 0f       	add	r30, r28
    11c0:	fd 1f       	adc	r31, r29
    11c2:	e0 0f       	add	r30, r16
    11c4:	f1 1f       	adc	r31, r17
    11c6:	80 83       	st	Z, r24
  	temp[bytes+4]=crc>>8;
    11c8:	fe 01       	movw	r30, r28
    11ca:	e0 0f       	add	r30, r16
    11cc:	f1 1f       	adc	r31, r17
    11ce:	95 83       	std	Z+5, r25	; 0x05
 	if(ModbusDataPackage.dat[0]) U485SendData(temp,bytes+5);			//发送数据
    11d0:	f6 01       	movw	r30, r12
    11d2:	82 81       	ldd	r24, Z+2	; 0x02
    11d4:	88 23       	and	r24, r24
    11d6:	99 f0       	breq	.+38     	; 0x11fe <ModbusReadKeepRegistor+0x2e6>
    11d8:	5a 9a       	sbi	0x0b, 2	; 11
    11da:	81 e0       	ldi	r24, 0x01	; 1
    11dc:	90 e0       	ldi	r25, 0x00	; 0
    11de:	0e 94 a1 03 	call	0x742	; 0x742 <Delay_ms>
    11e2:	b8 01       	movw	r22, r16
    11e4:	6b 5f       	subi	r22, 0xFB	; 251
    11e6:	7f 4f       	sbci	r23, 0xFF	; 255
    11e8:	ce 01       	movw	r24, r28
    11ea:	01 96       	adiw	r24, 0x01	; 1
    11ec:	0e 94 5c 22 	call	0x44b8	; 0x44b8 <USART0_PutData>
    11f0:	8a e0       	ldi	r24, 0x0A	; 10
    11f2:	90 e0       	ldi	r25, 0x00	; 0
    11f4:	0e 94 a1 03 	call	0x742	; 0x742 <Delay_ms>
    11f8:	5a 98       	cbi	0x0b, 2	; 11
	
	return SUCCESS;	
    11fa:	81 e0       	ldi	r24, 0x01	; 1
    11fc:	01 c0       	rjmp	.+2      	; 0x1200 <ModbusReadKeepRegistor+0x2e8>
    11fe:	81 e0       	ldi	r24, 0x01	; 1
}
    1200:	cc 54       	subi	r28, 0x4C	; 76
    1202:	df 4f       	sbci	r29, 0xFF	; 255
    1204:	0f b6       	in	r0, 0x3f	; 63
    1206:	f8 94       	cli
    1208:	de bf       	out	0x3e, r29	; 62
    120a:	0f be       	out	0x3f, r0	; 63
    120c:	cd bf       	out	0x3d, r28	; 61
    120e:	df 91       	pop	r29
    1210:	cf 91       	pop	r28
    1212:	1f 91       	pop	r17
    1214:	0f 91       	pop	r16
    1216:	ff 90       	pop	r15
    1218:	ef 90       	pop	r14
    121a:	df 90       	pop	r13
    121c:	cf 90       	pop	r12
    121e:	08 95       	ret

00001220 <ModbusReadInputRegistor>:
读输入寄存器
数据格式:器件地址(1字节)+功能码(0x04)+起始地址(2字节)+读取寄存器数量(2字节)+校验(2字节)
返回格式:器件地址(1字节)+功能码(0x04)+数据长度(字节数,1字节)+数据(n字节)+校验(2字节)
*********************************/
char ModbusReadInputRegistor(void)
{
    1220:	cf 92       	push	r12
    1222:	df 92       	push	r13
    1224:	ef 92       	push	r14
    1226:	ff 92       	push	r15
    1228:	0f 93       	push	r16
    122a:	1f 93       	push	r17
    122c:	cf 93       	push	r28
    122e:	df 93       	push	r29
    1230:	cd b7       	in	r28, 0x3d	; 61
    1232:	de b7       	in	r29, 0x3e	; 62
    1234:	a8 97       	sbiw	r28, 0x28	; 40
    1236:	0f b6       	in	r0, 0x3f	; 63
    1238:	f8 94       	cli
    123a:	de bf       	out	0x3e, r29	; 62
    123c:	0f be       	out	0x3f, r0	; 63
    123e:	cd bf       	out	0x3d, r28	; 61
	uint8_t err=0;
	uint8_t temp[40];
	uint16_t crc;
	
	uint16_t StartAddress = (ModbusDataPackage.dat[2] << 8) | ModbusDataPackage.dat[3];	//获取起始地址
    1240:	e2 e3       	ldi	r30, 0x32	; 50
    1242:	f2 e0       	ldi	r31, 0x02	; 2
    1244:	84 81       	ldd	r24, Z+4	; 0x04
    1246:	05 81       	ldd	r16, Z+5	; 0x05
    1248:	10 e0       	ldi	r17, 0x00	; 0
    124a:	18 2b       	or	r17, r24
    124c:	b8 01       	movw	r22, r16
	uint16_t RegVal = (ModbusDataPackage.dat[4] << 8) | ModbusDataPackage.dat[5];		//获取要读取的寄存器数量
    124e:	86 81       	ldd	r24, Z+6	; 0x06
    1250:	27 81       	ldd	r18, Z+7	; 0x07
    1252:	30 e0       	ldi	r19, 0x00	; 0
    1254:	38 2b       	or	r19, r24
	uint16_t StopAddress = StartAddress + RegVal - 1;									//获取结束地址
    1256:	a8 01       	movw	r20, r16
    1258:	42 0f       	add	r20, r18
    125a:	53 1f       	adc	r21, r19
    125c:	da 01       	movw	r26, r20
    125e:	11 97       	sbiw	r26, 0x01	; 1
	uint16_t InputRegistorSize = sizeof(InputRegister) / 2;								//计算保持寄存器总数量
	uint16_t bytes = RegVal*2;															//计算要读取的字节数
    1260:	79 01       	movw	r14, r18
    1262:	ee 0c       	add	r14, r14
    1264:	ff 1c       	adc	r15, r15
	
	if(ModbusDataPackage.DataLen != 8)err = err_OE;										//有效操作发生异常
    1266:	81 81       	ldd	r24, Z+1	; 0x01
    1268:	88 30       	cpi	r24, 0x08	; 8
    126a:	11 f0       	breq	.+4      	; 0x1270 <ModbusReadInputRegistor+0x50>
    126c:	84 e0       	ldi	r24, 0x04	; 4
    126e:	01 c0       	rjmp	.+2      	; 0x1272 <ModbusReadInputRegistor+0x52>
数据格式:器件地址(1字节)+功能码(0x04)+起始地址(2字节)+读取寄存器数量(2字节)+校验(2字节)
返回格式:器件地址(1字节)+功能码(0x04)+数据长度(字节数,1字节)+数据(n字节)+校验(2字节)
*********************************/
char ModbusReadInputRegistor(void)
{
	uint8_t err=0;
    1270:	80 e0       	ldi	r24, 0x00	; 0
	uint16_t StopAddress = StartAddress + RegVal - 1;									//获取结束地址
	uint16_t InputRegistorSize = sizeof(InputRegister) / 2;								//计算保持寄存器总数量
	uint16_t bytes = RegVal*2;															//计算要读取的字节数
	
	if(ModbusDataPackage.DataLen != 8)err = err_OE;										//有效操作发生异常
	if(!RegVal)err = err_add;															//寄存器地址不正确,读取数量必须大于1
    1272:	23 2b       	or	r18, r19
    1274:	09 f4       	brne	.+2      	; 0x1278 <ModbusReadInputRegistor+0x58>
    1276:	82 e0       	ldi	r24, 0x02	; 2
	if( ((StartAddress == 3) || (StartAddress == 7) || (StartAddress == 9) || (StartAddress == 11) || (StartAddress == 13) || (StartAddress == 15) ) )err = err_add;//寄存器地址不正确,多字节数据要从头读出
    1278:	98 01       	movw	r18, r16
    127a:	2b 7f       	andi	r18, 0xFB	; 251
    127c:	23 30       	cpi	r18, 0x03	; 3
    127e:	31 05       	cpc	r19, r1
    1280:	51 f0       	breq	.+20     	; 0x1296 <ModbusReadInputRegistor+0x76>
    1282:	98 01       	movw	r18, r16
    1284:	2d 7f       	andi	r18, 0xFD	; 253
    1286:	29 30       	cpi	r18, 0x09	; 9
    1288:	31 05       	cpc	r19, r1
    128a:	39 f0       	breq	.+14     	; 0x129a <ModbusReadInputRegistor+0x7a>
    128c:	2d 30       	cpi	r18, 0x0D	; 13
    128e:	31 05       	cpc	r19, r1
    1290:	29 f4       	brne	.+10     	; 0x129c <ModbusReadInputRegistor+0x7c>
    1292:	82 e0       	ldi	r24, 0x02	; 2
    1294:	03 c0       	rjmp	.+6      	; 0x129c <ModbusReadInputRegistor+0x7c>
    1296:	82 e0       	ldi	r24, 0x02	; 2
    1298:	01 c0       	rjmp	.+2      	; 0x129c <ModbusReadInputRegistor+0x7c>
    129a:	82 e0       	ldi	r24, 0x02	; 2
	if( ((StopAddress == 2 ) || (StopAddress == 6 ) || (StopAddress == 8 ) || (StopAddress == 10 ) || (StopAddress == 12 ) || (StopAddress == 14 ) ) )err = err_add;//寄存器地址不正确,多字节数据没有全部读出
    129c:	9a 01       	movw	r18, r20
    129e:	2b 7f       	andi	r18, 0xFB	; 251
    12a0:	23 30       	cpi	r18, 0x03	; 3
    12a2:	31 05       	cpc	r19, r1
    12a4:	49 f0       	breq	.+18     	; 0x12b8 <ModbusReadInputRegistor+0x98>
    12a6:	4d 7f       	andi	r20, 0xFD	; 253
    12a8:	49 30       	cpi	r20, 0x09	; 9
    12aa:	51 05       	cpc	r21, r1
    12ac:	39 f0       	breq	.+14     	; 0x12bc <ModbusReadInputRegistor+0x9c>
    12ae:	4d 30       	cpi	r20, 0x0D	; 13
    12b0:	51 05       	cpc	r21, r1
    12b2:	29 f4       	brne	.+10     	; 0x12be <ModbusReadInputRegistor+0x9e>
    12b4:	82 e0       	ldi	r24, 0x02	; 2
    12b6:	03 c0       	rjmp	.+6      	; 0x12be <ModbusReadInputRegistor+0x9e>
    12b8:	82 e0       	ldi	r24, 0x02	; 2
    12ba:	01 c0       	rjmp	.+2      	; 0x12be <ModbusReadInputRegistor+0x9e>
    12bc:	82 e0       	ldi	r24, 0x02	; 2
	if(StopAddress > (InputRegistorSize - 1))err = err_add;	//寄存器地址不正确
    12be:	a0 31       	cpi	r26, 0x10	; 16
    12c0:	b1 05       	cpc	r27, r1
    12c2:	08 f0       	brcs	.+2      	; 0x12c6 <ModbusReadInputRegistor+0xa6>
    12c4:	82 e0       	ldi	r24, 0x02	; 2
	if(StartAddress > (InputRegistorSize - 1))err = err_add;	//寄存器地址不正确
    12c6:	60 31       	cpi	r22, 0x10	; 16
    12c8:	71 05       	cpc	r23, r1
    12ca:	18 f4       	brcc	.+6      	; 0x12d2 <ModbusReadInputRegistor+0xb2>
	if(  err != 0 )						//返回异常码信息
    12cc:	88 23       	and	r24, r24
    12ce:	31 f0       	breq	.+12     	; 0x12dc <ModbusReadInputRegistor+0xbc>
    12d0:	01 c0       	rjmp	.+2      	; 0x12d4 <ModbusReadInputRegistor+0xb4>
	if(ModbusDataPackage.DataLen != 8)err = err_OE;										//有效操作发生异常
	if(!RegVal)err = err_add;															//寄存器地址不正确,读取数量必须大于1
	if( ((StartAddress == 3) || (StartAddress == 7) || (StartAddress == 9) || (StartAddress == 11) || (StartAddress == 13) || (StartAddress == 15) ) )err = err_add;//寄存器地址不正确,多字节数据要从头读出
	if( ((StopAddress == 2 ) || (StopAddress == 6 ) || (StopAddress == 8 ) || (StopAddress == 10 ) || (StopAddress == 12 ) || (StopAddress == 14 ) ) )err = err_add;//寄存器地址不正确,多字节数据没有全部读出
	if(StopAddress > (InputRegistorSize - 1))err = err_add;	//寄存器地址不正确
	if(StartAddress > (InputRegistorSize - 1))err = err_add;	//寄存器地址不正确
    12d2:	82 e0       	ldi	r24, 0x02	; 2
	if(  err != 0 )						//返回异常码信息
	{
		ModbusReturnAckInfo(err);								//向485返回异常码信息
    12d4:	0e 94 63 05 	call	0xac6	; 0xac6 <ModbusReturnAckInfo>
		return ERROR;
    12d8:	80 e0       	ldi	r24, 0x00	; 0
    12da:	51 c0       	rjmp	.+162    	; 0x137e <ModbusReadInputRegistor+0x15e>
	}
	
	if( (StartAddress<=5) && (StopAddress>=5) ) EERead(KREEPROM_BASEADDR+2,(void *)&InputRegister.Reserve1,2);   //读取设备组号
    12dc:	66 30       	cpi	r22, 0x06	; 6
    12de:	71 05       	cpc	r23, r1
    12e0:	50 f4       	brcc	.+20     	; 0x12f6 <ModbusReadInputRegistor+0xd6>
    12e2:	15 97       	sbiw	r26, 0x05	; 5
    12e4:	40 f0       	brcs	.+16     	; 0x12f6 <ModbusReadInputRegistor+0xd6>
    12e6:	42 e0       	ldi	r20, 0x02	; 2
    12e8:	50 e0       	ldi	r21, 0x00	; 0
    12ea:	6e e3       	ldi	r22, 0x3E	; 62
    12ec:	73 e0       	ldi	r23, 0x03	; 3
    12ee:	82 e4       	ldi	r24, 0x42	; 66
    12f0:	90 e0       	ldi	r25, 0x00	; 0
    12f2:	0e 94 fc 02 	call	0x5f8	; 0x5f8 <EERead>
	
	InputRegistorDataHton();									//大小端数据处理,放在缓存中
    12f6:	0e 94 d5 06 	call	0xdaa	; 0xdaa <InputRegistorDataHton>
	//读取输入寄存器数据并向485返回数据
	
	temp[0] = KeepRegister.DeviceAddress;						//赋值设备地址
    12fa:	80 91 74 03 	lds	r24, 0x0374	; 0x800374 <KeepRegister>
    12fe:	90 91 75 03 	lds	r25, 0x0375	; 0x800375 <KeepRegister+0x1>
    1302:	89 83       	std	Y+1, r24	; 0x01
	temp[1] = ModbusDataPackage.dat[1];							//赋值功能码
    1304:	0f 2e       	mov	r0, r31
    1306:	f2 e3       	ldi	r31, 0x32	; 50
    1308:	cf 2e       	mov	r12, r31
    130a:	f2 e0       	ldi	r31, 0x02	; 2
    130c:	df 2e       	mov	r13, r31
    130e:	f0 2d       	mov	r31, r0
    1310:	f6 01       	movw	r30, r12
    1312:	83 81       	ldd	r24, Z+3	; 0x03
    1314:	8a 83       	std	Y+2, r24	; 0x02
	temp[2] = bytes;											//赋值数据长度(字节数)
    1316:	eb 82       	std	Y+3, r14	; 0x03
	memcpy(&temp[3],(uint8_t *)&InputRegisterTemp+StartAddress*2,bytes);
    1318:	00 0f       	add	r16, r16
    131a:	11 1f       	adc	r17, r17
    131c:	b8 01       	movw	r22, r16
    131e:	6c 5a       	subi	r22, 0xAC	; 172
    1320:	7c 4f       	sbci	r23, 0xFC	; 252
    1322:	a7 01       	movw	r20, r14
    1324:	ce 01       	movw	r24, r28
    1326:	04 96       	adiw	r24, 0x04	; 4
    1328:	0e 94 24 2b 	call	0x5648	; 0x5648 <memcpy>
	
	crc=CRC16_Check(temp,bytes+3);
    132c:	63 e0       	ldi	r22, 0x03	; 3
    132e:	6e 0d       	add	r22, r14
    1330:	ce 01       	movw	r24, r28
    1332:	01 96       	adiw	r24, 0x01	; 1
    1334:	0e 94 3f 05 	call	0xa7e	; 0xa7e <CRC16_Check>
	temp[bytes+3]=crc & 0xff;
    1338:	e4 e0       	ldi	r30, 0x04	; 4
    133a:	f0 e0       	ldi	r31, 0x00	; 0
    133c:	ec 0f       	add	r30, r28
    133e:	fd 1f       	adc	r31, r29
    1340:	ee 0d       	add	r30, r14
    1342:	ff 1d       	adc	r31, r15
    1344:	80 83       	st	Z, r24
	temp[bytes+4]=crc>>8;
    1346:	fe 01       	movw	r30, r28
    1348:	ee 0d       	add	r30, r14
    134a:	ff 1d       	adc	r31, r15
    134c:	95 83       	std	Z+5, r25	; 0x05
	if(ModbusDataPackage.dat[0]) U485SendData(temp,bytes+5);
    134e:	f6 01       	movw	r30, r12
    1350:	82 81       	ldd	r24, Z+2	; 0x02
    1352:	88 23       	and	r24, r24
    1354:	99 f0       	breq	.+38     	; 0x137c <ModbusReadInputRegistor+0x15c>
    1356:	5a 9a       	sbi	0x0b, 2	; 11
    1358:	81 e0       	ldi	r24, 0x01	; 1
    135a:	90 e0       	ldi	r25, 0x00	; 0
    135c:	0e 94 a1 03 	call	0x742	; 0x742 <Delay_ms>
    1360:	b7 01       	movw	r22, r14
    1362:	6b 5f       	subi	r22, 0xFB	; 251
    1364:	7f 4f       	sbci	r23, 0xFF	; 255
    1366:	ce 01       	movw	r24, r28
    1368:	01 96       	adiw	r24, 0x01	; 1
    136a:	0e 94 5c 22 	call	0x44b8	; 0x44b8 <USART0_PutData>
    136e:	8a e0       	ldi	r24, 0x0A	; 10
    1370:	90 e0       	ldi	r25, 0x00	; 0
    1372:	0e 94 a1 03 	call	0x742	; 0x742 <Delay_ms>
    1376:	5a 98       	cbi	0x0b, 2	; 11
	
	return SUCCESS;	
    1378:	81 e0       	ldi	r24, 0x01	; 1
    137a:	01 c0       	rjmp	.+2      	; 0x137e <ModbusReadInputRegistor+0x15e>
    137c:	81 e0       	ldi	r24, 0x01	; 1
}
    137e:	a8 96       	adiw	r28, 0x28	; 40
    1380:	0f b6       	in	r0, 0x3f	; 63
    1382:	f8 94       	cli
    1384:	de bf       	out	0x3e, r29	; 62
    1386:	0f be       	out	0x3f, r0	; 63
    1388:	cd bf       	out	0x3d, r28	; 61
    138a:	df 91       	pop	r29
    138c:	cf 91       	pop	r28
    138e:	1f 91       	pop	r17
    1390:	0f 91       	pop	r16
    1392:	ff 90       	pop	r15
    1394:	ef 90       	pop	r14
    1396:	df 90       	pop	r13
    1398:	cf 90       	pop	r12
    139a:	08 95       	ret

0000139c <ModbusWriteSingleRegistor>:
写单个寄存器,保持寄存器
数据格式:器件地址(1字节)+功能码(0x06)+寄存器地址(2字节)+寄存器数值(2字节)+校验(2字节)
返回格式:器件地址(1字节)+功能码(0x06)+寄存器地址(2字节)+寄存器数值(2字节)+校验(2字节)
*********************************/
char ModbusWriteSingleRegistor(void)
{
    139c:	ff 92       	push	r15
    139e:	0f 93       	push	r16
    13a0:	1f 93       	push	r17
    13a2:	cf 93       	push	r28
    13a4:	df 93       	push	r29
    13a6:	cd b7       	in	r28, 0x3d	; 61
    13a8:	de b7       	in	r29, 0x3e	; 62
    13aa:	2c 97       	sbiw	r28, 0x0c	; 12
    13ac:	0f b6       	in	r0, 0x3f	; 63
    13ae:	f8 94       	cli
    13b0:	de bf       	out	0x3e, r29	; 62
    13b2:	0f be       	out	0x3f, r0	; 63
    13b4:	cd bf       	out	0x3d, r28	; 61
	uint8_t err=0;
	uint8_t temp[10];
	uint16_t crc,dat;
	//获取相关参数
	uint16_t StartAddress = (ModbusDataPackage.dat[2] << 8) | ModbusDataPackage.dat[3];	//获取起始地址
    13b6:	e2 e3       	ldi	r30, 0x32	; 50
    13b8:	f2 e0       	ldi	r31, 0x02	; 2
    13ba:	84 81       	ldd	r24, Z+4	; 0x04
    13bc:	05 81       	ldd	r16, Z+5	; 0x05
    13be:	10 e0       	ldi	r17, 0x00	; 0
    13c0:	18 2b       	or	r17, r24
	
	dat = (ModbusDataPackage.dat[4] << 8) | ModbusDataPackage.dat[5];					//获取要写入的数据
    13c2:	26 81       	ldd	r18, Z+6	; 0x06
    13c4:	87 81       	ldd	r24, Z+7	; 0x07
    13c6:	90 e0       	ldi	r25, 0x00	; 0
    13c8:	92 2b       	or	r25, r18
    13ca:	9c 87       	std	Y+12, r25	; 0x0c
    13cc:	8b 87       	std	Y+11, r24	; 0x0b
	
	//参数合法检查
	if(ModbusDataPackage.DataLen != 8)err = err_OE;	//有效操作发生异常
    13ce:	21 81       	ldd	r18, Z+1	; 0x01
    13d0:	28 30       	cpi	r18, 0x08	; 8
    13d2:	21 f0       	breq	.+8      	; 0x13dc <ModbusWriteSingleRegistor+0x40>
    13d4:	68 94       	set
    13d6:	ff 24       	eor	r15, r15
    13d8:	f2 f8       	bld	r15, 2
    13da:	01 c0       	rjmp	.+2      	; 0x13de <ModbusWriteSingleRegistor+0x42>
数据格式:器件地址(1字节)+功能码(0x06)+寄存器地址(2字节)+寄存器数值(2字节)+校验(2字节)
返回格式:器件地址(1字节)+功能码(0x06)+寄存器地址(2字节)+寄存器数值(2字节)+校验(2字节)
*********************************/
char ModbusWriteSingleRegistor(void)
{
	uint8_t err=0;
    13dc:	f1 2c       	mov	r15, r1
	
	dat = (ModbusDataPackage.dat[4] << 8) | ModbusDataPackage.dat[5];					//获取要写入的数据
	
	//参数合法检查
	if(ModbusDataPackage.DataLen != 8)err = err_OE;	//有效操作发生异常
	if((StartAddress != 0) && (StartAddress != 1) && (StartAddress != 6) && (StartAddress != 7) )err = err_add;			//异常码,寄存器开始地址不正确,多字节数据不可用此功能码
    13de:	02 30       	cpi	r16, 0x02	; 2
    13e0:	11 05       	cpc	r17, r1
    13e2:	48 f0       	brcs	.+18     	; 0x13f6 <ModbusWriteSingleRegistor+0x5a>
    13e4:	98 01       	movw	r18, r16
    13e6:	26 50       	subi	r18, 0x06	; 6
    13e8:	31 09       	sbc	r19, r1
    13ea:	22 30       	cpi	r18, 0x02	; 2
    13ec:	31 05       	cpc	r19, r1
    13ee:	d8 f0       	brcs	.+54     	; 0x1426 <ModbusWriteSingleRegistor+0x8a>
    13f0:	68 94       	set
    13f2:	ff 24       	eor	r15, r15
    13f4:	f1 f8       	bld	r15, 1
	//数据有效范围判断并写入
	if(StartAddress == 0)							//如果写设备地址数据
    13f6:	01 15       	cp	r16, r1
    13f8:	11 05       	cpc	r17, r1
    13fa:	a9 f4       	brne	.+42     	; 0x1426 <ModbusWriteSingleRegistor+0x8a>
	{
		if((dat == 0) || (dat > 247))err = err_add;	//地址数据超出范围,返回异常功能码,寄存器值超出范围
    13fc:	9c 01       	movw	r18, r24
    13fe:	21 50       	subi	r18, 0x01	; 1
    1400:	31 09       	sbc	r19, r1
    1402:	27 3f       	cpi	r18, 0xF7	; 247
    1404:	31 05       	cpc	r19, r1
    1406:	08 f0       	brcs	.+2      	; 0x140a <ModbusWriteSingleRegistor+0x6e>
    1408:	9a c0       	rjmp	.+308    	; 0x153e <ModbusWriteSingleRegistor+0x1a2>
		else
		{
			KeepRegister.DeviceAddress = dat;
    140a:	90 93 75 03 	sts	0x0375, r25	; 0x800375 <KeepRegister+0x1>
    140e:	80 93 74 03 	sts	0x0374, r24	; 0x800374 <KeepRegister>
			EEWrite(KREEPROM_BASEADDR,(void *)&dat,2);//保存数据
    1412:	42 e0       	ldi	r20, 0x02	; 2
    1414:	50 e0       	ldi	r21, 0x00	; 0
    1416:	be 01       	movw	r22, r28
    1418:	65 5f       	subi	r22, 0xF5	; 245
    141a:	7f 4f       	sbci	r23, 0xFF	; 255
    141c:	80 e4       	ldi	r24, 0x40	; 64
    141e:	90 e0       	ldi	r25, 0x00	; 0
    1420:	0e 94 5d 02 	call	0x4ba	; 0x4ba <EEWrite>
    1424:	2f c0       	rjmp	.+94     	; 0x1484 <ModbusWriteSingleRegistor+0xe8>
		}
	}
	
	if(StartAddress == 1)							//如果写设备组号
    1426:	01 30       	cpi	r16, 0x01	; 1
    1428:	11 05       	cpc	r17, r1
    142a:	71 f4       	brne	.+28     	; 0x1448 <ModbusWriteSingleRegistor+0xac>
	{	
		KeepRegister.DeviceGroupNum = dat;
    142c:	90 93 77 03 	sts	0x0377, r25	; 0x800377 <KeepRegister+0x3>
    1430:	80 93 76 03 	sts	0x0376, r24	; 0x800376 <KeepRegister+0x2>
		EEWrite(KREEPROM_BASEADDR+2,(void *)&dat,2);//保存数据
    1434:	42 e0       	ldi	r20, 0x02	; 2
    1436:	50 e0       	ldi	r21, 0x00	; 0
    1438:	be 01       	movw	r22, r28
    143a:	65 5f       	subi	r22, 0xF5	; 245
    143c:	7f 4f       	sbci	r23, 0xFF	; 255
    143e:	82 e4       	ldi	r24, 0x42	; 66
    1440:	90 e0       	ldi	r25, 0x00	; 0
    1442:	0e 94 5d 02 	call	0x4ba	; 0x4ba <EEWrite>
    1446:	41 c0       	rjmp	.+130    	; 0x14ca <ModbusWriteSingleRegistor+0x12e>
	}
	
	if(StartAddress == 6)							//如果写传感器量程
    1448:	06 30       	cpi	r16, 0x06	; 6
    144a:	11 05       	cpc	r17, r1
    144c:	d9 f4       	brne	.+54     	; 0x1484 <ModbusWriteSingleRegistor+0xe8>
	{		
		if( ((dat == 0x14) || (dat == 0x64)) ==0 ){ModbusReturnAckInfo(4);	return ERROR;}						//如果不等于特定值，返回错误
    144e:	8b 85       	ldd	r24, Y+11	; 0x0b
    1450:	9c 85       	ldd	r25, Y+12	; 0x0c
    1452:	84 31       	cpi	r24, 0x14	; 20
    1454:	91 05       	cpc	r25, r1
    1456:	41 f0       	breq	.+16     	; 0x1468 <ModbusWriteSingleRegistor+0xcc>
    1458:	84 36       	cpi	r24, 0x64	; 100
    145a:	91 05       	cpc	r25, r1
    145c:	29 f0       	breq	.+10     	; 0x1468 <ModbusWriteSingleRegistor+0xcc>
    145e:	84 e0       	ldi	r24, 0x04	; 4
    1460:	0e 94 63 05 	call	0xac6	; 0xac6 <ModbusReturnAckInfo>
    1464:	80 e0       	ldi	r24, 0x00	; 0
    1466:	6f c0       	rjmp	.+222    	; 0x1546 <ModbusWriteSingleRegistor+0x1aa>
		
		KeepRegister.Sensor_Range = dat;
    1468:	90 93 81 03 	sts	0x0381, r25	; 0x800381 <KeepRegister+0xd>
    146c:	80 93 80 03 	sts	0x0380, r24	; 0x800380 <KeepRegister+0xc>
		EEWrite(KREEPROM_BASEADDR+12,(void *)&dat,2);//保存数据
    1470:	42 e0       	ldi	r20, 0x02	; 2
    1472:	50 e0       	ldi	r21, 0x00	; 0
    1474:	be 01       	movw	r22, r28
    1476:	65 5f       	subi	r22, 0xF5	; 245
    1478:	7f 4f       	sbci	r23, 0xFF	; 255
    147a:	8c e4       	ldi	r24, 0x4C	; 76
    147c:	90 e0       	ldi	r25, 0x00	; 0
    147e:	0e 94 5d 02 	call	0x4ba	; 0x4ba <EEWrite>
    1482:	23 c0       	rjmp	.+70     	; 0x14ca <ModbusWriteSingleRegistor+0x12e>
	}
	
	if(StartAddress == 7)							//液体选择
    1484:	07 30       	cpi	r16, 0x07	; 7
    1486:	11 05       	cpc	r17, r1
    1488:	01 f5       	brne	.+64     	; 0x14ca <ModbusWriteSingleRegistor+0x12e>
	{
		if( ( ((dat >>8) == 0x01) || ((dat >>8) == 0x02) || ((dat >>8) ==0x03) || ((dat >>8) ==0x04) || ((dat >>8)==0x05) ) ==0  ){ModbusReturnAckInfo(4);	return ERROR;}   //如果不等于特定值，返回错误
    148a:	2b 85       	ldd	r18, Y+11	; 0x0b
    148c:	3c 85       	ldd	r19, Y+12	; 0x0c
    148e:	83 2f       	mov	r24, r19
    1490:	99 27       	eor	r25, r25
    1492:	01 97       	sbiw	r24, 0x01	; 1
    1494:	05 97       	sbiw	r24, 0x05	; 5
    1496:	28 f0       	brcs	.+10     	; 0x14a2 <ModbusWriteSingleRegistor+0x106>
    1498:	84 e0       	ldi	r24, 0x04	; 4
    149a:	0e 94 63 05 	call	0xac6	; 0xac6 <ModbusReturnAckInfo>
    149e:	80 e0       	ldi	r24, 0x00	; 0
    14a0:	52 c0       	rjmp	.+164    	; 0x1546 <ModbusWriteSingleRegistor+0x1aa>
		if( ( ((dat & 0x00FF)==0x00) || ((dat & 0x00FF)==0x01))  ==0  ){ModbusReturnAckInfo(4);	return ERROR;}														     //如果不等于特定值，返回错误
    14a2:	22 30       	cpi	r18, 0x02	; 2
    14a4:	28 f0       	brcs	.+10     	; 0x14b0 <ModbusWriteSingleRegistor+0x114>
    14a6:	84 e0       	ldi	r24, 0x04	; 4
    14a8:	0e 94 63 05 	call	0xac6	; 0xac6 <ModbusReturnAckInfo>
    14ac:	80 e0       	ldi	r24, 0x00	; 0
    14ae:	4b c0       	rjmp	.+150    	; 0x1546 <ModbusWriteSingleRegistor+0x1aa>
		
		KeepRegister.Liquid_Sec = dat;
    14b0:	30 93 83 03 	sts	0x0383, r19	; 0x800383 <KeepRegister+0xf>
    14b4:	20 93 82 03 	sts	0x0382, r18	; 0x800382 <KeepRegister+0xe>
		EEWrite(KREEPROM_BASEADDR+14,(void *)&dat,2);//保存数据
    14b8:	42 e0       	ldi	r20, 0x02	; 2
    14ba:	50 e0       	ldi	r21, 0x00	; 0
    14bc:	be 01       	movw	r22, r28
    14be:	65 5f       	subi	r22, 0xF5	; 245
    14c0:	7f 4f       	sbci	r23, 0xFF	; 255
    14c2:	8e e4       	ldi	r24, 0x4E	; 78
    14c4:	90 e0       	ldi	r25, 0x00	; 0
    14c6:	0e 94 5d 02 	call	0x4ba	; 0x4ba <EEWrite>
	}
	
	if(  err != 0 )			//返回异常码信息
    14ca:	ff 20       	and	r15, r15
    14cc:	29 f0       	breq	.+10     	; 0x14d8 <ModbusWriteSingleRegistor+0x13c>
	{
		ModbusReturnAckInfo(err);					//向485返回异常码信息
    14ce:	8f 2d       	mov	r24, r15
    14d0:	0e 94 63 05 	call	0xac6	; 0xac6 <ModbusReturnAckInfo>
		return ERROR;
    14d4:	80 e0       	ldi	r24, 0x00	; 0
    14d6:	37 c0       	rjmp	.+110    	; 0x1546 <ModbusWriteSingleRegistor+0x1aa>
	}
	//指令返回
	
	temp[0] = KeepRegister.DeviceAddress;			//赋值设备地址
    14d8:	80 91 74 03 	lds	r24, 0x0374	; 0x800374 <KeepRegister>
    14dc:	90 91 75 03 	lds	r25, 0x0375	; 0x800375 <KeepRegister+0x1>
    14e0:	89 83       	std	Y+1, r24	; 0x01
	temp[1] = ModbusDataPackage.dat[1];				//赋值功能码
    14e2:	02 e3       	ldi	r16, 0x32	; 50
    14e4:	12 e0       	ldi	r17, 0x02	; 2
    14e6:	f8 01       	movw	r30, r16
    14e8:	83 81       	ldd	r24, Z+3	; 0x03
    14ea:	8a 83       	std	Y+2, r24	; 0x02
	memcpy(&temp[2],(uint8_t *)&ModbusDataPackage.dat[2],4);
    14ec:	e6 e3       	ldi	r30, 0x36	; 54
    14ee:	f2 e0       	ldi	r31, 0x02	; 2
    14f0:	80 81       	ld	r24, Z
    14f2:	91 81       	ldd	r25, Z+1	; 0x01
    14f4:	9c 83       	std	Y+4, r25	; 0x04
    14f6:	8b 83       	std	Y+3, r24	; 0x03
    14f8:	82 81       	ldd	r24, Z+2	; 0x02
    14fa:	93 81       	ldd	r25, Z+3	; 0x03
    14fc:	9e 83       	std	Y+6, r25	; 0x06
    14fe:	8d 83       	std	Y+5, r24	; 0x05
	//校验
	crc = CRC16_Check(temp,6);						//crc校验
    1500:	66 e0       	ldi	r22, 0x06	; 6
    1502:	ce 01       	movw	r24, r28
    1504:	01 96       	adiw	r24, 0x01	; 1
    1506:	0e 94 3f 05 	call	0xa7e	; 0xa7e <CRC16_Check>
	temp[6] = crc & 0xff;							//crc低位在前
    150a:	8f 83       	std	Y+7, r24	; 0x07
	temp[7] = crc >> 8;								//高位在后
    150c:	98 87       	std	Y+8, r25	; 0x08
	if(ModbusDataPackage.dat[0]) U485SendData(temp,8);//发送数据
    150e:	f8 01       	movw	r30, r16
    1510:	82 81       	ldd	r24, Z+2	; 0x02
    1512:	88 23       	and	r24, r24
    1514:	91 f0       	breq	.+36     	; 0x153a <ModbusWriteSingleRegistor+0x19e>
    1516:	5a 9a       	sbi	0x0b, 2	; 11
    1518:	81 e0       	ldi	r24, 0x01	; 1
    151a:	90 e0       	ldi	r25, 0x00	; 0
    151c:	0e 94 a1 03 	call	0x742	; 0x742 <Delay_ms>
    1520:	68 e0       	ldi	r22, 0x08	; 8
    1522:	70 e0       	ldi	r23, 0x00	; 0
    1524:	ce 01       	movw	r24, r28
    1526:	01 96       	adiw	r24, 0x01	; 1
    1528:	0e 94 5c 22 	call	0x44b8	; 0x44b8 <USART0_PutData>
    152c:	8a e0       	ldi	r24, 0x0A	; 10
    152e:	90 e0       	ldi	r25, 0x00	; 0
    1530:	0e 94 a1 03 	call	0x742	; 0x742 <Delay_ms>
    1534:	5a 98       	cbi	0x0b, 2	; 11
	
	return SUCCESS;
    1536:	81 e0       	ldi	r24, 0x01	; 1
    1538:	06 c0       	rjmp	.+12     	; 0x1546 <ModbusWriteSingleRegistor+0x1aa>
    153a:	81 e0       	ldi	r24, 0x01	; 1
    153c:	04 c0       	rjmp	.+8      	; 0x1546 <ModbusWriteSingleRegistor+0x1aa>
	if(ModbusDataPackage.DataLen != 8)err = err_OE;	//有效操作发生异常
	if((StartAddress != 0) && (StartAddress != 1) && (StartAddress != 6) && (StartAddress != 7) )err = err_add;			//异常码,寄存器开始地址不正确,多字节数据不可用此功能码
	//数据有效范围判断并写入
	if(StartAddress == 0)							//如果写设备地址数据
	{
		if((dat == 0) || (dat > 247))err = err_add;	//地址数据超出范围,返回异常功能码,寄存器值超出范围
    153e:	68 94       	set
    1540:	ff 24       	eor	r15, r15
    1542:	f1 f8       	bld	r15, 1
    1544:	9f cf       	rjmp	.-194    	; 0x1484 <ModbusWriteSingleRegistor+0xe8>
	temp[6] = crc & 0xff;							//crc低位在前
	temp[7] = crc >> 8;								//高位在后
	if(ModbusDataPackage.dat[0]) U485SendData(temp,8);//发送数据
	
	return SUCCESS;
}
    1546:	2c 96       	adiw	r28, 0x0c	; 12
    1548:	0f b6       	in	r0, 0x3f	; 63
    154a:	f8 94       	cli
    154c:	de bf       	out	0x3e, r29	; 62
    154e:	0f be       	out	0x3f, r0	; 63
    1550:	cd bf       	out	0x3d, r28	; 61
    1552:	df 91       	pop	r29
    1554:	cf 91       	pop	r28
    1556:	1f 91       	pop	r17
    1558:	0f 91       	pop	r16
    155a:	ff 90       	pop	r15
    155c:	08 95       	ret

0000155e <ModbusWriteSomeRegistor>:
写多个寄存器,保持寄存器
数据格式:器件地址(1字节)+功能码(0x10)+寄存器地址(2字节)+寄存器数量(2字节)+字节数(1字节)+寄存器数值(N个数据)+校验(2字节)
返回格式:器件地址(1字节)+功能码(0x10)+寄存器地址(2字节)+寄存器数量(2字节)+校验(2字节)
*********************************/
char ModbusWriteSomeRegistor(void)
{
    155e:	af 92       	push	r10
    1560:	bf 92       	push	r11
    1562:	df 92       	push	r13
    1564:	ef 92       	push	r14
    1566:	ff 92       	push	r15
    1568:	0f 93       	push	r16
    156a:	1f 93       	push	r17
    156c:	cf 93       	push	r28
    156e:	df 93       	push	r29
    1570:	cd b7       	in	r28, 0x3d	; 61
    1572:	de b7       	in	r29, 0x3e	; 62
    1574:	2a 97       	sbiw	r28, 0x0a	; 10
    1576:	0f b6       	in	r0, 0x3f	; 63
    1578:	f8 94       	cli
    157a:	de bf       	out	0x3e, r29	; 62
    157c:	0f be       	out	0x3f, r0	; 63
    157e:	cd bf       	out	0x3d, r28	; 61
	uint8_t temp[10];
	uint8_t flag=0;
	//uint8_t t[180];
	uint16_t crc;
	//获取相关参数
	uint16_t StartAddress = (ModbusDataPackage.dat[2] << 8) | ModbusDataPackage.dat[3];	//获取起始地址
    1580:	e2 e3       	ldi	r30, 0x32	; 50
    1582:	f2 e0       	ldi	r31, 0x02	; 2
    1584:	24 81       	ldd	r18, Z+4	; 0x04
    1586:	85 81       	ldd	r24, Z+5	; 0x05
    1588:	90 e0       	ldi	r25, 0x00	; 0
    158a:	92 2b       	or	r25, r18
    158c:	8c 01       	movw	r16, r24
	uint16_t RegVal = (ModbusDataPackage.dat[4] << 8) | ModbusDataPackage.dat[5];		//获取要写入的寄存器数量
    158e:	46 81       	ldd	r20, Z+6	; 0x06
    1590:	27 81       	ldd	r18, Z+7	; 0x07
    1592:	30 e0       	ldi	r19, 0x00	; 0
    1594:	34 2b       	or	r19, r20
	uint8_t bytes = ModbusDataPackage.dat[6];											//获取字节数
    1596:	40 85       	ldd	r20, Z+8	; 0x08
	uint16_t StopAddress = StartAddress + RegVal - 1;									//获取结束地址
    1598:	bc 01       	movw	r22, r24
    159a:	62 0f       	add	r22, r18
    159c:	73 1f       	adc	r23, r19
    159e:	7b 01       	movw	r14, r22
    15a0:	51 e0       	ldi	r21, 0x01	; 1
    15a2:	e5 1a       	sub	r14, r21
    15a4:	f1 08       	sbc	r15, r1
	
	//printf("修正值:mm  修正后高度值:mm\r\n");
	//Delay_ms(100);U485RX;Delay_ms(10);
	
	//参数合法检查
	if(!RegVal || !bytes)err = err_add;													//寄存器地址不正确,读取数量必须大于1
    15a6:	23 2b       	or	r18, r19
    15a8:	31 f0       	breq	.+12     	; 0x15b6 <ModbusWriteSomeRegistor+0x58>
    15aa:	41 11       	cpse	r20, r1
    15ac:	08 c0       	rjmp	.+16     	; 0x15be <ModbusWriteSomeRegistor+0x60>
    15ae:	68 94       	set
    15b0:	dd 24       	eor	r13, r13
    15b2:	d1 f8       	bld	r13, 1
    15b4:	05 c0       	rjmp	.+10     	; 0x15c0 <ModbusWriteSomeRegistor+0x62>
    15b6:	68 94       	set
    15b8:	dd 24       	eor	r13, r13
    15ba:	d1 f8       	bld	r13, 1
    15bc:	01 c0       	rjmp	.+2      	; 0x15c0 <ModbusWriteSomeRegistor+0x62>
数据格式:器件地址(1字节)+功能码(0x10)+寄存器地址(2字节)+寄存器数量(2字节)+字节数(1字节)+寄存器数值(N个数据)+校验(2字节)
返回格式:器件地址(1字节)+功能码(0x10)+寄存器地址(2字节)+寄存器数量(2字节)+校验(2字节)
*********************************/
char ModbusWriteSomeRegistor(void)
{
	uint8_t err=0;
    15be:	d1 2c       	mov	r13, r1
	//printf("修正值:mm  修正后高度值:mm\r\n");
	//Delay_ms(100);U485RX;Delay_ms(10);
	
	//参数合法检查
	if(!RegVal || !bytes)err = err_add;													//寄存器地址不正确,读取数量必须大于1
	if( (  (StartAddress == 0x03) || (StartAddress == 0x05) || (StartAddress == 0x09) || (StartAddress == 0x0b)  || (StartAddress == 0x0d) || (StartAddress == 0x0f)  || \
    15c0:	9c 01       	movw	r18, r24
    15c2:	27 7f       	andi	r18, 0xF7	; 247
    15c4:	23 30       	cpi	r18, 0x03	; 3
    15c6:	31 05       	cpc	r19, r1
    15c8:	09 f4       	brne	.+2      	; 0x15cc <ModbusWriteSomeRegistor+0x6e>
    15ca:	5d c0       	rjmp	.+186    	; 0x1686 <ModbusWriteSomeRegistor+0x128>
    15cc:	25 30       	cpi	r18, 0x05	; 5
    15ce:	31 05       	cpc	r19, r1
    15d0:	09 f4       	brne	.+2      	; 0x15d4 <ModbusWriteSomeRegistor+0x76>
    15d2:	5d c0       	rjmp	.+186    	; 0x168e <ModbusWriteSomeRegistor+0x130>
    15d4:	9c 01       	movw	r18, r24
    15d6:	2f 7e       	andi	r18, 0xEF	; 239
    15d8:	29 30       	cpi	r18, 0x09	; 9
    15da:	31 05       	cpc	r19, r1
    15dc:	09 f4       	brne	.+2      	; 0x15e0 <ModbusWriteSomeRegistor+0x82>
    15de:	5b c0       	rjmp	.+182    	; 0x1696 <ModbusWriteSomeRegistor+0x138>
    15e0:	2f 30       	cpi	r18, 0x0F	; 15
    15e2:	31 05       	cpc	r19, r1
    15e4:	09 f4       	brne	.+2      	; 0x15e8 <ModbusWriteSomeRegistor+0x8a>
    15e6:	5b c0       	rjmp	.+182    	; 0x169e <ModbusWriteSomeRegistor+0x140>
    15e8:	9c 01       	movw	r18, r24
    15ea:	2d 7f       	andi	r18, 0xFD	; 253
    15ec:	21 31       	cpi	r18, 0x11	; 17
    15ee:	31 05       	cpc	r19, r1
    15f0:	09 f4       	brne	.+2      	; 0x15f4 <ModbusWriteSomeRegistor+0x96>
    15f2:	59 c0       	rjmp	.+178    	; 0x16a6 <ModbusWriteSomeRegistor+0x148>
		   (StartAddress == 0x11) || (StartAddress == 0x13) || (StartAddress == 0x15) || (StartAddress == 0x17)  || (StartAddress == 0x19) || (StartAddress == 0x1b)  || (StartAddress == 0x1d) || (StartAddress == 0x1f) || \
    15f4:	25 31       	cpi	r18, 0x15	; 21
    15f6:	31 05       	cpc	r19, r1
    15f8:	09 f4       	brne	.+2      	; 0x15fc <ModbusWriteSomeRegistor+0x9e>
    15fa:	59 c0       	rjmp	.+178    	; 0x16ae <ModbusWriteSomeRegistor+0x150>
    15fc:	fc 01       	movw	r30, r24
    15fe:	ef 7d       	andi	r30, 0xDF	; 223
    1600:	eb 31       	cpi	r30, 0x1B	; 27
    1602:	f1 05       	cpc	r31, r1
    1604:	09 f4       	brne	.+2      	; 0x1608 <ModbusWriteSomeRegistor+0xaa>
    1606:	57 c0       	rjmp	.+174    	; 0x16b6 <ModbusWriteSomeRegistor+0x158>
    1608:	7d 97       	sbiw	r30, 0x1d	; 29
    160a:	09 f4       	brne	.+2      	; 0x160e <ModbusWriteSomeRegistor+0xb0>
    160c:	58 c0       	rjmp	.+176    	; 0x16be <ModbusWriteSomeRegistor+0x160>
    160e:	21 32       	cpi	r18, 0x21	; 33
    1610:	31 05       	cpc	r19, r1
    1612:	09 f4       	brne	.+2      	; 0x1616 <ModbusWriteSomeRegistor+0xb8>
    1614:	58 c0       	rjmp	.+176    	; 0x16c6 <ModbusWriteSomeRegistor+0x168>
	       (StartAddress == 0x21) || (StartAddress == 0x23) || (StartAddress == 0x25) || (StartAddress == 0x27)  || (StartAddress == 0x29) || (StartAddress == 0x2b)  || (StartAddress == 0x2d) || (StartAddress == 0x2f) || \
    1616:	25 32       	cpi	r18, 0x25	; 37
    1618:	31 05       	cpc	r19, r1
    161a:	09 f4       	brne	.+2      	; 0x161e <ModbusWriteSomeRegistor+0xc0>
    161c:	58 c0       	rjmp	.+176    	; 0x16ce <ModbusWriteSomeRegistor+0x170>
    161e:	29 32       	cpi	r18, 0x29	; 41
    1620:	31 05       	cpc	r19, r1
    1622:	09 f4       	brne	.+2      	; 0x1626 <ModbusWriteSomeRegistor+0xc8>
    1624:	58 c0       	rjmp	.+176    	; 0x16d6 <ModbusWriteSomeRegistor+0x178>
    1626:	2d 32       	cpi	r18, 0x2D	; 45
    1628:	31 05       	cpc	r19, r1
    162a:	09 f4       	brne	.+2      	; 0x162e <ModbusWriteSomeRegistor+0xd0>
    162c:	58 c0       	rjmp	.+176    	; 0x16de <ModbusWriteSomeRegistor+0x180>
    162e:	21 33       	cpi	r18, 0x31	; 49
    1630:	31 05       	cpc	r19, r1
    1632:	09 f4       	brne	.+2      	; 0x1636 <ModbusWriteSomeRegistor+0xd8>
    1634:	58 c0       	rjmp	.+176    	; 0x16e6 <ModbusWriteSomeRegistor+0x188>
	       (StartAddress == 0x31) || (StartAddress == 0x33) || (StartAddress == 0x35) || (StartAddress == 0x37)  || (StartAddress == 0x39) || (StartAddress == 0x3b)  || (StartAddress == 0x3d) || (StartAddress == 0x3f) || \
    1636:	25 33       	cpi	r18, 0x35	; 53
    1638:	31 05       	cpc	r19, r1
    163a:	09 f4       	brne	.+2      	; 0x163e <ModbusWriteSomeRegistor+0xe0>
    163c:	58 c0       	rjmp	.+176    	; 0x16ee <ModbusWriteSomeRegistor+0x190>
    163e:	09 33       	cpi	r16, 0x39	; 57
    1640:	11 05       	cpc	r17, r1
    1642:	09 f4       	brne	.+2      	; 0x1646 <ModbusWriteSomeRegistor+0xe8>
    1644:	58 c0       	rjmp	.+176    	; 0x16f6 <ModbusWriteSomeRegistor+0x198>
    1646:	0f 33       	cpi	r16, 0x3F	; 63
    1648:	11 05       	cpc	r17, r1
    164a:	09 f4       	brne	.+2      	; 0x164e <ModbusWriteSomeRegistor+0xf0>
    164c:	58 c0       	rjmp	.+176    	; 0x16fe <ModbusWriteSomeRegistor+0x1a0>
    164e:	21 34       	cpi	r18, 0x41	; 65
    1650:	31 05       	cpc	r19, r1
    1652:	09 f4       	brne	.+2      	; 0x1656 <ModbusWriteSomeRegistor+0xf8>
    1654:	58 c0       	rjmp	.+176    	; 0x1706 <ModbusWriteSomeRegistor+0x1a8>
	       (StartAddress == 0x41) || (StartAddress == 0x43) || (StartAddress == 0x45) || (StartAddress == 0x47)  || (StartAddress == 0x49) || (StartAddress == 0x4b)  || (StartAddress == 0x4d) || (StartAddress == 0x4f) || \
    1656:	25 34       	cpi	r18, 0x45	; 69
    1658:	31 05       	cpc	r19, r1
    165a:	09 f4       	brne	.+2      	; 0x165e <ModbusWriteSomeRegistor+0x100>
    165c:	58 c0       	rjmp	.+176    	; 0x170e <ModbusWriteSomeRegistor+0x1b0>
    165e:	29 34       	cpi	r18, 0x49	; 73
    1660:	31 05       	cpc	r19, r1
    1662:	09 f4       	brne	.+2      	; 0x1666 <ModbusWriteSomeRegistor+0x108>
    1664:	58 c0       	rjmp	.+176    	; 0x1716 <ModbusWriteSomeRegistor+0x1b8>
    1666:	2d 34       	cpi	r18, 0x4D	; 77
    1668:	31 05       	cpc	r19, r1
    166a:	09 f4       	brne	.+2      	; 0x166e <ModbusWriteSomeRegistor+0x110>
    166c:	58 c0       	rjmp	.+176    	; 0x171e <ModbusWriteSomeRegistor+0x1c0>
    166e:	21 35       	cpi	r18, 0x51	; 81
    1670:	31 05       	cpc	r19, r1
    1672:	09 f4       	brne	.+2      	; 0x1676 <ModbusWriteSomeRegistor+0x118>
    1674:	58 c0       	rjmp	.+176    	; 0x1726 <ModbusWriteSomeRegistor+0x1c8>
	       (StartAddress == 0x51) || (StartAddress == 0x53) || (StartAddress == 0x55)  ) )err = err_add;//寄存器地址不正确,多字节数据要从头读出
    1676:	05 35       	cpi	r16, 0x55	; 85
    1678:	11 05       	cpc	r17, r1
    167a:	09 f0       	breq	.+2      	; 0x167e <ModbusWriteSomeRegistor+0x120>
    167c:	57 c0       	rjmp	.+174    	; 0x172c <ModbusWriteSomeRegistor+0x1ce>
    167e:	68 94       	set
    1680:	dd 24       	eor	r13, r13
    1682:	d1 f8       	bld	r13, 1
    1684:	53 c0       	rjmp	.+166    	; 0x172c <ModbusWriteSomeRegistor+0x1ce>
    1686:	68 94       	set
    1688:	dd 24       	eor	r13, r13
    168a:	d1 f8       	bld	r13, 1
    168c:	4f c0       	rjmp	.+158    	; 0x172c <ModbusWriteSomeRegistor+0x1ce>
    168e:	68 94       	set
    1690:	dd 24       	eor	r13, r13
    1692:	d1 f8       	bld	r13, 1
    1694:	4b c0       	rjmp	.+150    	; 0x172c <ModbusWriteSomeRegistor+0x1ce>
    1696:	68 94       	set
    1698:	dd 24       	eor	r13, r13
    169a:	d1 f8       	bld	r13, 1
    169c:	47 c0       	rjmp	.+142    	; 0x172c <ModbusWriteSomeRegistor+0x1ce>
    169e:	68 94       	set
    16a0:	dd 24       	eor	r13, r13
    16a2:	d1 f8       	bld	r13, 1
    16a4:	43 c0       	rjmp	.+134    	; 0x172c <ModbusWriteSomeRegistor+0x1ce>
    16a6:	68 94       	set
    16a8:	dd 24       	eor	r13, r13
    16aa:	d1 f8       	bld	r13, 1
    16ac:	3f c0       	rjmp	.+126    	; 0x172c <ModbusWriteSomeRegistor+0x1ce>
    16ae:	68 94       	set
    16b0:	dd 24       	eor	r13, r13
    16b2:	d1 f8       	bld	r13, 1
    16b4:	3b c0       	rjmp	.+118    	; 0x172c <ModbusWriteSomeRegistor+0x1ce>
    16b6:	68 94       	set
    16b8:	dd 24       	eor	r13, r13
    16ba:	d1 f8       	bld	r13, 1
    16bc:	37 c0       	rjmp	.+110    	; 0x172c <ModbusWriteSomeRegistor+0x1ce>
    16be:	68 94       	set
    16c0:	dd 24       	eor	r13, r13
    16c2:	d1 f8       	bld	r13, 1
    16c4:	33 c0       	rjmp	.+102    	; 0x172c <ModbusWriteSomeRegistor+0x1ce>
    16c6:	68 94       	set
    16c8:	dd 24       	eor	r13, r13
    16ca:	d1 f8       	bld	r13, 1
    16cc:	2f c0       	rjmp	.+94     	; 0x172c <ModbusWriteSomeRegistor+0x1ce>
    16ce:	68 94       	set
    16d0:	dd 24       	eor	r13, r13
    16d2:	d1 f8       	bld	r13, 1
    16d4:	2b c0       	rjmp	.+86     	; 0x172c <ModbusWriteSomeRegistor+0x1ce>
    16d6:	68 94       	set
    16d8:	dd 24       	eor	r13, r13
    16da:	d1 f8       	bld	r13, 1
    16dc:	27 c0       	rjmp	.+78     	; 0x172c <ModbusWriteSomeRegistor+0x1ce>
    16de:	68 94       	set
    16e0:	dd 24       	eor	r13, r13
    16e2:	d1 f8       	bld	r13, 1
    16e4:	23 c0       	rjmp	.+70     	; 0x172c <ModbusWriteSomeRegistor+0x1ce>
    16e6:	68 94       	set
    16e8:	dd 24       	eor	r13, r13
    16ea:	d1 f8       	bld	r13, 1
    16ec:	1f c0       	rjmp	.+62     	; 0x172c <ModbusWriteSomeRegistor+0x1ce>
    16ee:	68 94       	set
    16f0:	dd 24       	eor	r13, r13
    16f2:	d1 f8       	bld	r13, 1
    16f4:	1b c0       	rjmp	.+54     	; 0x172c <ModbusWriteSomeRegistor+0x1ce>
    16f6:	68 94       	set
    16f8:	dd 24       	eor	r13, r13
    16fa:	d1 f8       	bld	r13, 1
    16fc:	17 c0       	rjmp	.+46     	; 0x172c <ModbusWriteSomeRegistor+0x1ce>
    16fe:	68 94       	set
    1700:	dd 24       	eor	r13, r13
    1702:	d1 f8       	bld	r13, 1
    1704:	13 c0       	rjmp	.+38     	; 0x172c <ModbusWriteSomeRegistor+0x1ce>
    1706:	68 94       	set
    1708:	dd 24       	eor	r13, r13
    170a:	d1 f8       	bld	r13, 1
    170c:	0f c0       	rjmp	.+30     	; 0x172c <ModbusWriteSomeRegistor+0x1ce>
    170e:	68 94       	set
    1710:	dd 24       	eor	r13, r13
    1712:	d1 f8       	bld	r13, 1
    1714:	0b c0       	rjmp	.+22     	; 0x172c <ModbusWriteSomeRegistor+0x1ce>
    1716:	68 94       	set
    1718:	dd 24       	eor	r13, r13
    171a:	d1 f8       	bld	r13, 1
    171c:	07 c0       	rjmp	.+14     	; 0x172c <ModbusWriteSomeRegistor+0x1ce>
    171e:	68 94       	set
    1720:	dd 24       	eor	r13, r13
    1722:	d1 f8       	bld	r13, 1
    1724:	03 c0       	rjmp	.+6      	; 0x172c <ModbusWriteSomeRegistor+0x1ce>
    1726:	68 94       	set
    1728:	dd 24       	eor	r13, r13
    172a:	d1 f8       	bld	r13, 1
	if( (  (StopAddress == 0x02)  || (StopAddress == 0x04)  || (StopAddress == 0x08)  || (StopAddress == 0x0a)   || (StopAddress == 0x0c)  || (StopAddress == 0x0e)   || \
    172c:	9b 01       	movw	r18, r22
    172e:	27 7f       	andi	r18, 0xF7	; 247
    1730:	23 30       	cpi	r18, 0x03	; 3
    1732:	31 05       	cpc	r19, r1
    1734:	09 f4       	brne	.+2      	; 0x1738 <ModbusWriteSomeRegistor+0x1da>
    1736:	5d c0       	rjmp	.+186    	; 0x17f2 <ModbusWriteSomeRegistor+0x294>
    1738:	25 30       	cpi	r18, 0x05	; 5
    173a:	31 05       	cpc	r19, r1
    173c:	09 f4       	brne	.+2      	; 0x1740 <ModbusWriteSomeRegistor+0x1e2>
    173e:	5d c0       	rjmp	.+186    	; 0x17fa <ModbusWriteSomeRegistor+0x29c>
    1740:	9b 01       	movw	r18, r22
    1742:	2f 7e       	andi	r18, 0xEF	; 239
    1744:	29 30       	cpi	r18, 0x09	; 9
    1746:	31 05       	cpc	r19, r1
    1748:	09 f4       	brne	.+2      	; 0x174c <ModbusWriteSomeRegistor+0x1ee>
    174a:	5b c0       	rjmp	.+182    	; 0x1802 <ModbusWriteSomeRegistor+0x2a4>
    174c:	2f 30       	cpi	r18, 0x0F	; 15
    174e:	31 05       	cpc	r19, r1
    1750:	09 f4       	brne	.+2      	; 0x1754 <ModbusWriteSomeRegistor+0x1f6>
    1752:	5b c0       	rjmp	.+182    	; 0x180a <ModbusWriteSomeRegistor+0x2ac>
    1754:	9b 01       	movw	r18, r22
    1756:	2d 7f       	andi	r18, 0xFD	; 253
    1758:	21 31       	cpi	r18, 0x11	; 17
    175a:	31 05       	cpc	r19, r1
    175c:	09 f4       	brne	.+2      	; 0x1760 <ModbusWriteSomeRegistor+0x202>
    175e:	59 c0       	rjmp	.+178    	; 0x1812 <ModbusWriteSomeRegistor+0x2b4>
	       (StopAddress == 0x10)  || (StopAddress == 0x12)  || (StopAddress == 0x14)  || (StopAddress == 0x16)   || (StopAddress == 0x18)  || (StopAddress == 0x1a)   || (StopAddress == 0x1c)  || (StopAddress == 0x1e)  || \
    1760:	25 31       	cpi	r18, 0x15	; 21
    1762:	31 05       	cpc	r19, r1
    1764:	09 f4       	brne	.+2      	; 0x1768 <ModbusWriteSomeRegistor+0x20a>
    1766:	59 c0       	rjmp	.+178    	; 0x181a <ModbusWriteSomeRegistor+0x2bc>
    1768:	6f 7d       	andi	r22, 0xDF	; 223
    176a:	6b 31       	cpi	r22, 0x1B	; 27
    176c:	71 05       	cpc	r23, r1
    176e:	09 f4       	brne	.+2      	; 0x1772 <ModbusWriteSomeRegistor+0x214>
    1770:	58 c0       	rjmp	.+176    	; 0x1822 <ModbusWriteSomeRegistor+0x2c4>
    1772:	6d 31       	cpi	r22, 0x1D	; 29
    1774:	71 05       	cpc	r23, r1
    1776:	09 f4       	brne	.+2      	; 0x177a <ModbusWriteSomeRegistor+0x21c>
    1778:	58 c0       	rjmp	.+176    	; 0x182a <ModbusWriteSomeRegistor+0x2cc>
    177a:	21 32       	cpi	r18, 0x21	; 33
    177c:	31 05       	cpc	r19, r1
    177e:	09 f4       	brne	.+2      	; 0x1782 <ModbusWriteSomeRegistor+0x224>
    1780:	58 c0       	rjmp	.+176    	; 0x1832 <ModbusWriteSomeRegistor+0x2d4>
	       (StopAddress == 0x20)  || (StopAddress == 0x22)  || (StopAddress == 0x24)  || (StopAddress == 0x26)   || (StopAddress == 0x28)  || (StopAddress == 0x2a)   || (StopAddress == 0x2c)  || (StopAddress == 0x2e)  || \
    1782:	25 32       	cpi	r18, 0x25	; 37
    1784:	31 05       	cpc	r19, r1
    1786:	09 f4       	brne	.+2      	; 0x178a <ModbusWriteSomeRegistor+0x22c>
    1788:	58 c0       	rjmp	.+176    	; 0x183a <ModbusWriteSomeRegistor+0x2dc>
    178a:	29 32       	cpi	r18, 0x29	; 41
    178c:	31 05       	cpc	r19, r1
    178e:	09 f4       	brne	.+2      	; 0x1792 <ModbusWriteSomeRegistor+0x234>
    1790:	58 c0       	rjmp	.+176    	; 0x1842 <ModbusWriteSomeRegistor+0x2e4>
    1792:	2d 32       	cpi	r18, 0x2D	; 45
    1794:	31 05       	cpc	r19, r1
    1796:	09 f4       	brne	.+2      	; 0x179a <ModbusWriteSomeRegistor+0x23c>
    1798:	58 c0       	rjmp	.+176    	; 0x184a <ModbusWriteSomeRegistor+0x2ec>
    179a:	21 33       	cpi	r18, 0x31	; 49
    179c:	31 05       	cpc	r19, r1
    179e:	09 f4       	brne	.+2      	; 0x17a2 <ModbusWriteSomeRegistor+0x244>
    17a0:	58 c0       	rjmp	.+176    	; 0x1852 <ModbusWriteSomeRegistor+0x2f4>
	       (StopAddress == 0x30)  || (StopAddress == 0x32)  || (StopAddress == 0x34)  || (StopAddress == 0x36)   || (StopAddress == 0x38)  || (StopAddress == 0x3a)   || (StopAddress == 0x3c)  || (StopAddress == 0x3e)  || \
    17a2:	25 33       	cpi	r18, 0x35	; 53
    17a4:	31 05       	cpc	r19, r1
    17a6:	09 f4       	brne	.+2      	; 0x17aa <ModbusWriteSomeRegistor+0x24c>
    17a8:	58 c0       	rjmp	.+176    	; 0x185a <ModbusWriteSomeRegistor+0x2fc>
    17aa:	e8 e3       	ldi	r30, 0x38	; 56
    17ac:	ee 16       	cp	r14, r30
    17ae:	f1 04       	cpc	r15, r1
    17b0:	09 f4       	brne	.+2      	; 0x17b4 <ModbusWriteSomeRegistor+0x256>
    17b2:	72 c0       	rjmp	.+228    	; 0x1898 <ModbusWriteSomeRegistor+0x33a>
    17b4:	fe e3       	ldi	r31, 0x3E	; 62
    17b6:	ef 16       	cp	r14, r31
    17b8:	f1 04       	cpc	r15, r1
    17ba:	09 f4       	brne	.+2      	; 0x17be <ModbusWriteSomeRegistor+0x260>
    17bc:	71 c0       	rjmp	.+226    	; 0x18a0 <ModbusWriteSomeRegistor+0x342>
    17be:	21 34       	cpi	r18, 0x41	; 65
    17c0:	31 05       	cpc	r19, r1
    17c2:	09 f4       	brne	.+2      	; 0x17c6 <ModbusWriteSomeRegistor+0x268>
    17c4:	4e c0       	rjmp	.+156    	; 0x1862 <ModbusWriteSomeRegistor+0x304>
	       (StopAddress == 0x40)  || (StopAddress == 0x42)  || (StopAddress == 0x44)  || (StopAddress == 0x46)   || (StopAddress == 0x48)  || (StopAddress == 0x4a)   || (StopAddress == 0x4c)  || (StopAddress == 0x4e)  || \
    17c6:	25 34       	cpi	r18, 0x45	; 69
    17c8:	31 05       	cpc	r19, r1
    17ca:	09 f4       	brne	.+2      	; 0x17ce <ModbusWriteSomeRegistor+0x270>
    17cc:	4e c0       	rjmp	.+156    	; 0x186a <ModbusWriteSomeRegistor+0x30c>
    17ce:	29 34       	cpi	r18, 0x49	; 73
    17d0:	31 05       	cpc	r19, r1
    17d2:	09 f4       	brne	.+2      	; 0x17d6 <ModbusWriteSomeRegistor+0x278>
    17d4:	4e c0       	rjmp	.+156    	; 0x1872 <ModbusWriteSomeRegistor+0x314>
    17d6:	2d 34       	cpi	r18, 0x4D	; 77
    17d8:	31 05       	cpc	r19, r1
    17da:	09 f4       	brne	.+2      	; 0x17de <ModbusWriteSomeRegistor+0x280>
    17dc:	4e c0       	rjmp	.+156    	; 0x187a <ModbusWriteSomeRegistor+0x31c>
    17de:	21 35       	cpi	r18, 0x51	; 81
    17e0:	31 05       	cpc	r19, r1
    17e2:	09 f4       	brne	.+2      	; 0x17e6 <ModbusWriteSomeRegistor+0x288>
    17e4:	4e c0       	rjmp	.+156    	; 0x1882 <ModbusWriteSomeRegistor+0x324>
	       (StopAddress == 0x50)  || (StopAddress == 0x52)  || (StopAddress == 0x54)   ) )err = err_add;//寄存器地址不正确,多字节数据没有全部读出
    17e6:	24 e5       	ldi	r18, 0x54	; 84
    17e8:	e2 16       	cp	r14, r18
    17ea:	f1 04       	cpc	r15, r1
    17ec:	09 f0       	breq	.+2      	; 0x17f0 <ModbusWriteSomeRegistor+0x292>
    17ee:	4c c0       	rjmp	.+152    	; 0x1888 <ModbusWriteSomeRegistor+0x32a>
    17f0:	5b c0       	rjmp	.+182    	; 0x18a8 <ModbusWriteSomeRegistor+0x34a>
    17f2:	68 94       	set
    17f4:	dd 24       	eor	r13, r13
    17f6:	d1 f8       	bld	r13, 1
    17f8:	47 c0       	rjmp	.+142    	; 0x1888 <ModbusWriteSomeRegistor+0x32a>
    17fa:	68 94       	set
    17fc:	dd 24       	eor	r13, r13
    17fe:	d1 f8       	bld	r13, 1
    1800:	43 c0       	rjmp	.+134    	; 0x1888 <ModbusWriteSomeRegistor+0x32a>
    1802:	68 94       	set
    1804:	dd 24       	eor	r13, r13
    1806:	d1 f8       	bld	r13, 1
    1808:	3f c0       	rjmp	.+126    	; 0x1888 <ModbusWriteSomeRegistor+0x32a>
    180a:	68 94       	set
    180c:	dd 24       	eor	r13, r13
    180e:	d1 f8       	bld	r13, 1
    1810:	3b c0       	rjmp	.+118    	; 0x1888 <ModbusWriteSomeRegistor+0x32a>
    1812:	68 94       	set
    1814:	dd 24       	eor	r13, r13
    1816:	d1 f8       	bld	r13, 1
    1818:	37 c0       	rjmp	.+110    	; 0x1888 <ModbusWriteSomeRegistor+0x32a>
    181a:	68 94       	set
    181c:	dd 24       	eor	r13, r13
    181e:	d1 f8       	bld	r13, 1
    1820:	33 c0       	rjmp	.+102    	; 0x1888 <ModbusWriteSomeRegistor+0x32a>
    1822:	68 94       	set
    1824:	dd 24       	eor	r13, r13
    1826:	d1 f8       	bld	r13, 1
    1828:	2f c0       	rjmp	.+94     	; 0x1888 <ModbusWriteSomeRegistor+0x32a>
    182a:	68 94       	set
    182c:	dd 24       	eor	r13, r13
    182e:	d1 f8       	bld	r13, 1
    1830:	2b c0       	rjmp	.+86     	; 0x1888 <ModbusWriteSomeRegistor+0x32a>
    1832:	68 94       	set
    1834:	dd 24       	eor	r13, r13
    1836:	d1 f8       	bld	r13, 1
    1838:	27 c0       	rjmp	.+78     	; 0x1888 <ModbusWriteSomeRegistor+0x32a>
    183a:	68 94       	set
    183c:	dd 24       	eor	r13, r13
    183e:	d1 f8       	bld	r13, 1
    1840:	23 c0       	rjmp	.+70     	; 0x1888 <ModbusWriteSomeRegistor+0x32a>
    1842:	68 94       	set
    1844:	dd 24       	eor	r13, r13
    1846:	d1 f8       	bld	r13, 1
    1848:	1f c0       	rjmp	.+62     	; 0x1888 <ModbusWriteSomeRegistor+0x32a>
    184a:	68 94       	set
    184c:	dd 24       	eor	r13, r13
    184e:	d1 f8       	bld	r13, 1
    1850:	1b c0       	rjmp	.+54     	; 0x1888 <ModbusWriteSomeRegistor+0x32a>
    1852:	68 94       	set
    1854:	dd 24       	eor	r13, r13
    1856:	d1 f8       	bld	r13, 1
    1858:	17 c0       	rjmp	.+46     	; 0x1888 <ModbusWriteSomeRegistor+0x32a>
    185a:	68 94       	set
    185c:	dd 24       	eor	r13, r13
    185e:	d1 f8       	bld	r13, 1
    1860:	13 c0       	rjmp	.+38     	; 0x1888 <ModbusWriteSomeRegistor+0x32a>
    1862:	68 94       	set
    1864:	dd 24       	eor	r13, r13
    1866:	d1 f8       	bld	r13, 1
    1868:	0f c0       	rjmp	.+30     	; 0x1888 <ModbusWriteSomeRegistor+0x32a>
    186a:	68 94       	set
    186c:	dd 24       	eor	r13, r13
    186e:	d1 f8       	bld	r13, 1
    1870:	0b c0       	rjmp	.+22     	; 0x1888 <ModbusWriteSomeRegistor+0x32a>
    1872:	68 94       	set
    1874:	dd 24       	eor	r13, r13
    1876:	d1 f8       	bld	r13, 1
    1878:	07 c0       	rjmp	.+14     	; 0x1888 <ModbusWriteSomeRegistor+0x32a>
    187a:	68 94       	set
    187c:	dd 24       	eor	r13, r13
    187e:	d1 f8       	bld	r13, 1
    1880:	03 c0       	rjmp	.+6      	; 0x1888 <ModbusWriteSomeRegistor+0x32a>
    1882:	68 94       	set
    1884:	dd 24       	eor	r13, r13
    1886:	d1 f8       	bld	r13, 1
	if(StopAddress > (KeepRegistorSize - 1))err = err_add;		//寄存器地址不正确
    1888:	56 e5       	ldi	r21, 0x56	; 86
    188a:	e5 16       	cp	r14, r21
    188c:	f1 04       	cpc	r15, r1
    188e:	78 f0       	brcs	.+30     	; 0x18ae <ModbusWriteSomeRegistor+0x350>
    1890:	68 94       	set
    1892:	dd 24       	eor	r13, r13
    1894:	d1 f8       	bld	r13, 1
    1896:	0b c0       	rjmp	.+22     	; 0x18ae <ModbusWriteSomeRegistor+0x350>
    1898:	68 94       	set
    189a:	dd 24       	eor	r13, r13
    189c:	d1 f8       	bld	r13, 1
    189e:	07 c0       	rjmp	.+14     	; 0x18ae <ModbusWriteSomeRegistor+0x350>
    18a0:	68 94       	set
    18a2:	dd 24       	eor	r13, r13
    18a4:	d1 f8       	bld	r13, 1
    18a6:	03 c0       	rjmp	.+6      	; 0x18ae <ModbusWriteSomeRegistor+0x350>
    18a8:	68 94       	set
    18aa:	dd 24       	eor	r13, r13
    18ac:	d1 f8       	bld	r13, 1
	if(StartAddress > (KeepRegistorSize - 1))err = err_add;		//寄存器地址不正确
    18ae:	06 35       	cpi	r16, 0x56	; 86
    18b0:	11 05       	cpc	r17, r1
    18b2:	18 f0       	brcs	.+6      	; 0x18ba <ModbusWriteSomeRegistor+0x35c>
    18b4:	68 94       	set
    18b6:	dd 24       	eor	r13, r13
    18b8:	d1 f8       	bld	r13, 1
	
	if(StopAddress > 0x09)flag=1;		//判定操作危险寄存器标志位
	if(StartAddress > 0x09)flag=1;		//判定操作危险寄存器标志位
    18ba:	0a 30       	cpi	r16, 0x0A	; 10
    18bc:	11 05       	cpc	r17, r1
    18be:	08 f0       	brcs	.+2      	; 0x18c2 <ModbusWriteSomeRegistor+0x364>
    18c0:	08 c5       	rjmp	.+2576   	; 0x22d2 <ModbusWriteSomeRegistor+0xd74>
	
	
	if( (SuperMode_Flag==0) && (flag==1) )err=err_mode;		//如果是普通模式，同时操作到危险寄存器，则返回错误
    18c2:	20 91 22 01 	lds	r18, 0x0122	; 0x800122 <__data_end>
    18c6:	21 11       	cpse	r18, r1
    18c8:	04 c0       	rjmp	.+8      	; 0x18d2 <ModbusWriteSomeRegistor+0x374>
    18ca:	ea e0       	ldi	r30, 0x0A	; 10
    18cc:	ee 16       	cp	r14, r30
    18ce:	f1 04       	cpc	r15, r1
    18d0:	18 f4       	brcc	.+6      	; 0x18d8 <ModbusWriteSomeRegistor+0x37a>
	
	
	
	if(  err != 0 )							//返回异常码信息
    18d2:	dd 20       	and	r13, r13
    18d4:	79 f0       	breq	.+30     	; 0x18f4 <ModbusWriteSomeRegistor+0x396>
    18d6:	09 c0       	rjmp	.+18     	; 0x18ea <ModbusWriteSomeRegistor+0x38c>
	
	if(StopAddress > 0x09)flag=1;		//判定操作危险寄存器标志位
	if(StartAddress > 0x09)flag=1;		//判定操作危险寄存器标志位
	
	
	if( (SuperMode_Flag==0) && (flag==1) )err=err_mode;		//如果是普通模式，同时操作到危险寄存器，则返回错误
    18d8:	0f 2e       	mov	r0, r31
    18da:	f5 e0       	ldi	r31, 0x05	; 5
    18dc:	df 2e       	mov	r13, r31
    18de:	f0 2d       	mov	r31, r0
    18e0:	04 c0       	rjmp	.+8      	; 0x18ea <ModbusWriteSomeRegistor+0x38c>
    18e2:	0f 2e       	mov	r0, r31
    18e4:	f5 e0       	ldi	r31, 0x05	; 5
    18e6:	df 2e       	mov	r13, r31
    18e8:	f0 2d       	mov	r31, r0
	
	
	
	if(  err != 0 )							//返回异常码信息
	{
		ModbusReturnAckInfo(err);									//向485返回异常码信息
    18ea:	8d 2d       	mov	r24, r13
    18ec:	0e 94 63 05 	call	0xac6	; 0xac6 <ModbusReturnAckInfo>
		return ERROR;
    18f0:	80 e0       	ldi	r24, 0x00	; 0
    18f2:	f4 c4       	rjmp	.+2536   	; 0x22dc <ModbusWriteSomeRegistor+0xd7e>
	}
	
	memcpy((uint8_t *)&KeepRegisterTemp,(uint8_t *)&KeepRegister,sizeof(KeepRegister));					//先将当前寄存器数据拷贝到缓存中
    18f4:	2c ea       	ldi	r18, 0xAC	; 172
    18f6:	e4 e7       	ldi	r30, 0x74	; 116
    18f8:	f3 e0       	ldi	r31, 0x03	; 3
    18fa:	a0 e2       	ldi	r26, 0x20	; 32
    18fc:	b4 e0       	ldi	r27, 0x04	; 4
    18fe:	01 90       	ld	r0, Z+
    1900:	0d 92       	st	X+, r0
    1902:	2a 95       	dec	r18
    1904:	e1 f7       	brne	.-8      	; 0x18fe <ModbusWriteSomeRegistor+0x3a0>
	memcpy((uint8_t *)&KeepRegisterTemp + StartAddress*2,(uint8_t *)&ModbusDataPackage.dat[7],bytes);	//然后将接收的数据拷贝到寄存器缓存中
    1906:	88 0f       	add	r24, r24
    1908:	99 1f       	adc	r25, r25
    190a:	50 e0       	ldi	r21, 0x00	; 0
    190c:	6b e3       	ldi	r22, 0x3B	; 59
    190e:	72 e0       	ldi	r23, 0x02	; 2
    1910:	80 5e       	subi	r24, 0xE0	; 224
    1912:	9b 4f       	sbci	r25, 0xFB	; 251
    1914:	0e 94 24 2b 	call	0x5648	; 0x5648 <memcpy>
	err = 0;
	//大小端转换
	if(StartAddress == 0x00)KeepRegisterTemp.DeviceAddress = htons(KeepRegisterTemp.DeviceAddress);														//将设备地址数据大小端转换
    1918:	01 15       	cp	r16, r1
    191a:	11 05       	cpc	r17, r1
    191c:	79 f4       	brne	.+30     	; 0x193c <ModbusWriteSomeRegistor+0x3de>
    191e:	e0 e2       	ldi	r30, 0x20	; 32
    1920:	f4 e0       	ldi	r31, 0x04	; 4
    1922:	20 81       	ld	r18, Z
    1924:	31 81       	ldd	r19, Z+1	; 0x01
    1926:	80 81       	ld	r24, Z
    1928:	91 81       	ldd	r25, Z+1	; 0x01
    192a:	32 2f       	mov	r19, r18
    192c:	22 27       	eor	r18, r18
    192e:	89 2f       	mov	r24, r25
    1930:	99 27       	eor	r25, r25
    1932:	82 2b       	or	r24, r18
    1934:	93 2b       	or	r25, r19
    1936:	91 83       	std	Z+1, r25	; 0x01
    1938:	80 83       	st	Z, r24
    193a:	03 c0       	rjmp	.+6      	; 0x1942 <ModbusWriteSomeRegistor+0x3e4>
	if((StartAddress <= 0x01) && (StopAddress >= 0x01))KeepRegisterTemp.DeviceGroupNum = htons(KeepRegisterTemp.DeviceGroupNum );										//将保留数据1数据大小端转换
    193c:	02 30       	cpi	r16, 0x02	; 2
    193e:	11 05       	cpc	r17, r1
    1940:	90 f4       	brcc	.+36     	; 0x1966 <ModbusWriteSomeRegistor+0x408>
    1942:	e1 14       	cp	r14, r1
    1944:	f1 04       	cpc	r15, r1
    1946:	09 f4       	brne	.+2      	; 0x194a <ModbusWriteSomeRegistor+0x3ec>
    1948:	40 c0       	rjmp	.+128    	; 0x19ca <ModbusWriteSomeRegistor+0x46c>
    194a:	e0 e2       	ldi	r30, 0x20	; 32
    194c:	f4 e0       	ldi	r31, 0x04	; 4
    194e:	22 81       	ldd	r18, Z+2	; 0x02
    1950:	33 81       	ldd	r19, Z+3	; 0x03
    1952:	82 81       	ldd	r24, Z+2	; 0x02
    1954:	93 81       	ldd	r25, Z+3	; 0x03
    1956:	32 2f       	mov	r19, r18
    1958:	22 27       	eor	r18, r18
    195a:	89 2f       	mov	r24, r25
    195c:	99 27       	eor	r25, r25
    195e:	82 2b       	or	r24, r18
    1960:	93 2b       	or	r25, r19
    1962:	93 83       	std	Z+3, r25	; 0x03
    1964:	82 83       	std	Z+2, r24	; 0x02
	if((StartAddress <= 0x02) && (StopAddress >= 0x03))KeepRegisterTemp.OriginaLiquidAltitude = __ltobf(KeepRegisterTemp.OriginaLiquidAltitude);				//将液位初始高度数据大小端转换
    1966:	03 30       	cpi	r16, 0x03	; 3
    1968:	11 05       	cpc	r17, r1
    196a:	b0 f4       	brcc	.+44     	; 0x1998 <ModbusWriteSomeRegistor+0x43a>
    196c:	f3 e0       	ldi	r31, 0x03	; 3
    196e:	ef 16       	cp	r14, r31
    1970:	f1 04       	cpc	r15, r1
    1972:	90 f0       	brcs	.+36     	; 0x1998 <ModbusWriteSomeRegistor+0x43a>
    1974:	0f 2e       	mov	r0, r31
    1976:	f0 e2       	ldi	r31, 0x20	; 32
    1978:	af 2e       	mov	r10, r31
    197a:	f4 e0       	ldi	r31, 0x04	; 4
    197c:	bf 2e       	mov	r11, r31
    197e:	f0 2d       	mov	r31, r0
    1980:	f5 01       	movw	r30, r10
    1982:	64 81       	ldd	r22, Z+4	; 0x04
    1984:	75 81       	ldd	r23, Z+5	; 0x05
    1986:	86 81       	ldd	r24, Z+6	; 0x06
    1988:	97 81       	ldd	r25, Z+7	; 0x07
    198a:	0e 94 9a 03 	call	0x734	; 0x734 <__ltobf>
    198e:	f5 01       	movw	r30, r10
    1990:	64 83       	std	Z+4, r22	; 0x04
    1992:	75 83       	std	Z+5, r23	; 0x05
    1994:	86 83       	std	Z+6, r24	; 0x06
    1996:	97 83       	std	Z+7, r25	; 0x07
	if((StartAddress <= 0x04) && (StopAddress >= 0x05))KeepRegisterTemp.Reserve1and2 = __ltobf(KeepRegisterTemp.Reserve1and2 );							//将液体密度数据大小端转换
    1998:	05 30       	cpi	r16, 0x05	; 5
    199a:	11 05       	cpc	r17, r1
    199c:	b0 f4       	brcc	.+44     	; 0x19ca <ModbusWriteSomeRegistor+0x46c>
    199e:	f5 e0       	ldi	r31, 0x05	; 5
    19a0:	ef 16       	cp	r14, r31
    19a2:	f1 04       	cpc	r15, r1
    19a4:	90 f0       	brcs	.+36     	; 0x19ca <ModbusWriteSomeRegistor+0x46c>
    19a6:	0f 2e       	mov	r0, r31
    19a8:	f0 e2       	ldi	r31, 0x20	; 32
    19aa:	af 2e       	mov	r10, r31
    19ac:	f4 e0       	ldi	r31, 0x04	; 4
    19ae:	bf 2e       	mov	r11, r31
    19b0:	f0 2d       	mov	r31, r0
    19b2:	f5 01       	movw	r30, r10
    19b4:	60 85       	ldd	r22, Z+8	; 0x08
    19b6:	71 85       	ldd	r23, Z+9	; 0x09
    19b8:	82 85       	ldd	r24, Z+10	; 0x0a
    19ba:	93 85       	ldd	r25, Z+11	; 0x0b
    19bc:	0e 94 9a 03 	call	0x734	; 0x734 <__ltobf>
    19c0:	f5 01       	movw	r30, r10
    19c2:	60 87       	std	Z+8, r22	; 0x08
    19c4:	71 87       	std	Z+9, r23	; 0x09
    19c6:	82 87       	std	Z+10, r24	; 0x0a
    19c8:	93 87       	std	Z+11, r25	; 0x0b
	if((StartAddress <= 0x06) && (StopAddress >= 0x06))KeepRegisterTemp.Sensor_Range = htons(KeepRegisterTemp.Sensor_Range );									//将保留数据2数据大小端转换
    19ca:	07 30       	cpi	r16, 0x07	; 7
    19cc:	11 05       	cpc	r17, r1
    19ce:	90 f4       	brcc	.+36     	; 0x19f4 <ModbusWriteSomeRegistor+0x496>
    19d0:	f6 e0       	ldi	r31, 0x06	; 6
    19d2:	ef 16       	cp	r14, r31
    19d4:	f1 04       	cpc	r15, r1
    19d6:	70 f0       	brcs	.+28     	; 0x19f4 <ModbusWriteSomeRegistor+0x496>
    19d8:	e0 e2       	ldi	r30, 0x20	; 32
    19da:	f4 e0       	ldi	r31, 0x04	; 4
    19dc:	24 85       	ldd	r18, Z+12	; 0x0c
    19de:	35 85       	ldd	r19, Z+13	; 0x0d
    19e0:	84 85       	ldd	r24, Z+12	; 0x0c
    19e2:	95 85       	ldd	r25, Z+13	; 0x0d
    19e4:	32 2f       	mov	r19, r18
    19e6:	22 27       	eor	r18, r18
    19e8:	89 2f       	mov	r24, r25
    19ea:	99 27       	eor	r25, r25
    19ec:	82 2b       	or	r24, r18
    19ee:	93 2b       	or	r25, r19
    19f0:	95 87       	std	Z+13, r25	; 0x0d
    19f2:	84 87       	std	Z+12, r24	; 0x0c
	if((StartAddress <= 0x07) && (StopAddress >= 0x07))KeepRegisterTemp.Liquid_Sec = htons(KeepRegisterTemp.Liquid_Sec );											//将保留数据3数据大小端转换
    19f4:	08 30       	cpi	r16, 0x08	; 8
    19f6:	11 05       	cpc	r17, r1
    19f8:	90 f4       	brcc	.+36     	; 0x1a1e <ModbusWriteSomeRegistor+0x4c0>
    19fa:	27 e0       	ldi	r18, 0x07	; 7
    19fc:	e2 16       	cp	r14, r18
    19fe:	f1 04       	cpc	r15, r1
    1a00:	70 f0       	brcs	.+28     	; 0x1a1e <ModbusWriteSomeRegistor+0x4c0>
    1a02:	e0 e2       	ldi	r30, 0x20	; 32
    1a04:	f4 e0       	ldi	r31, 0x04	; 4
    1a06:	26 85       	ldd	r18, Z+14	; 0x0e
    1a08:	37 85       	ldd	r19, Z+15	; 0x0f
    1a0a:	86 85       	ldd	r24, Z+14	; 0x0e
    1a0c:	97 85       	ldd	r25, Z+15	; 0x0f
    1a0e:	32 2f       	mov	r19, r18
    1a10:	22 27       	eor	r18, r18
    1a12:	89 2f       	mov	r24, r25
    1a14:	99 27       	eor	r25, r25
    1a16:	82 2b       	or	r24, r18
    1a18:	93 2b       	or	r25, r19
    1a1a:	97 87       	std	Z+15, r25	; 0x0f
    1a1c:	86 87       	std	Z+14, r24	; 0x0e
	if((StartAddress <= 0x08) && (StopAddress >= 0x09))KeepRegisterTemp.LocalAccelerationOfGravity = __ltobf(KeepRegisterTemp.LocalAccelerationOfGravity );	//将当地重力加速度数据大小端转换
    1a1e:	09 30       	cpi	r16, 0x09	; 9
    1a20:	11 05       	cpc	r17, r1
    1a22:	b0 f4       	brcc	.+44     	; 0x1a50 <ModbusWriteSomeRegistor+0x4f2>
    1a24:	59 e0       	ldi	r21, 0x09	; 9
    1a26:	e5 16       	cp	r14, r21
    1a28:	f1 04       	cpc	r15, r1
    1a2a:	90 f0       	brcs	.+36     	; 0x1a50 <ModbusWriteSomeRegistor+0x4f2>
    1a2c:	0f 2e       	mov	r0, r31
    1a2e:	f0 e2       	ldi	r31, 0x20	; 32
    1a30:	af 2e       	mov	r10, r31
    1a32:	f4 e0       	ldi	r31, 0x04	; 4
    1a34:	bf 2e       	mov	r11, r31
    1a36:	f0 2d       	mov	r31, r0
    1a38:	f5 01       	movw	r30, r10
    1a3a:	60 89       	ldd	r22, Z+16	; 0x10
    1a3c:	71 89       	ldd	r23, Z+17	; 0x11
    1a3e:	82 89       	ldd	r24, Z+18	; 0x12
    1a40:	93 89       	ldd	r25, Z+19	; 0x13
    1a42:	0e 94 9a 03 	call	0x734	; 0x734 <__ltobf>
    1a46:	f5 01       	movw	r30, r10
    1a48:	60 8b       	std	Z+16, r22	; 0x10
    1a4a:	71 8b       	std	Z+17, r23	; 0x11
    1a4c:	82 8b       	std	Z+18, r24	; 0x12
    1a4e:	93 8b       	std	Z+19, r25	; 0x13
	if((StartAddress <= 0x0a) && (StopAddress >= 0x0b))KeepRegisterTemp.Sensor_FS_Val = __ltobf(KeepRegisterTemp.Sensor_FS_Val );							//
    1a50:	0b 30       	cpi	r16, 0x0B	; 11
    1a52:	11 05       	cpc	r17, r1
    1a54:	b0 f4       	brcc	.+44     	; 0x1a82 <ModbusWriteSomeRegistor+0x524>
    1a56:	fb e0       	ldi	r31, 0x0B	; 11
    1a58:	ef 16       	cp	r14, r31
    1a5a:	f1 04       	cpc	r15, r1
    1a5c:	90 f0       	brcs	.+36     	; 0x1a82 <ModbusWriteSomeRegistor+0x524>
    1a5e:	0f 2e       	mov	r0, r31
    1a60:	f0 e2       	ldi	r31, 0x20	; 32
    1a62:	af 2e       	mov	r10, r31
    1a64:	f4 e0       	ldi	r31, 0x04	; 4
    1a66:	bf 2e       	mov	r11, r31
    1a68:	f0 2d       	mov	r31, r0
    1a6a:	f5 01       	movw	r30, r10
    1a6c:	64 89       	ldd	r22, Z+20	; 0x14
    1a6e:	75 89       	ldd	r23, Z+21	; 0x15
    1a70:	86 89       	ldd	r24, Z+22	; 0x16
    1a72:	97 89       	ldd	r25, Z+23	; 0x17
    1a74:	0e 94 9a 03 	call	0x734	; 0x734 <__ltobf>
    1a78:	f5 01       	movw	r30, r10
    1a7a:	64 8b       	std	Z+20, r22	; 0x14
    1a7c:	75 8b       	std	Z+21, r23	; 0x15
    1a7e:	86 8b       	std	Z+22, r24	; 0x16
    1a80:	97 8b       	std	Z+23, r25	; 0x17
	if((StartAddress <= 0x0c) && (StopAddress >= 0x0d))KeepRegisterTemp.MV[0] = __ltobf(KeepRegisterTemp.MV[0] );
    1a82:	0d 30       	cpi	r16, 0x0D	; 13
    1a84:	11 05       	cpc	r17, r1
    1a86:	b0 f4       	brcc	.+44     	; 0x1ab4 <ModbusWriteSomeRegistor+0x556>
    1a88:	fd e0       	ldi	r31, 0x0D	; 13
    1a8a:	ef 16       	cp	r14, r31
    1a8c:	f1 04       	cpc	r15, r1
    1a8e:	90 f0       	brcs	.+36     	; 0x1ab4 <ModbusWriteSomeRegistor+0x556>
    1a90:	0f 2e       	mov	r0, r31
    1a92:	f0 e2       	ldi	r31, 0x20	; 32
    1a94:	af 2e       	mov	r10, r31
    1a96:	f4 e0       	ldi	r31, 0x04	; 4
    1a98:	bf 2e       	mov	r11, r31
    1a9a:	f0 2d       	mov	r31, r0
    1a9c:	f5 01       	movw	r30, r10
    1a9e:	60 8d       	ldd	r22, Z+24	; 0x18
    1aa0:	71 8d       	ldd	r23, Z+25	; 0x19
    1aa2:	82 8d       	ldd	r24, Z+26	; 0x1a
    1aa4:	93 8d       	ldd	r25, Z+27	; 0x1b
    1aa6:	0e 94 9a 03 	call	0x734	; 0x734 <__ltobf>
    1aaa:	f5 01       	movw	r30, r10
    1aac:	60 8f       	std	Z+24, r22	; 0x18
    1aae:	71 8f       	std	Z+25, r23	; 0x19
    1ab0:	82 8f       	std	Z+26, r24	; 0x1a
    1ab2:	93 8f       	std	Z+27, r25	; 0x1b
	if((StartAddress <= 0x0e) && (StopAddress >= 0x0f))KeepRegisterTemp.MV[1] = __ltobf(KeepRegisterTemp.MV[1] );
    1ab4:	0f 30       	cpi	r16, 0x0F	; 15
    1ab6:	11 05       	cpc	r17, r1
    1ab8:	b0 f4       	brcc	.+44     	; 0x1ae6 <ModbusWriteSomeRegistor+0x588>
    1aba:	ff e0       	ldi	r31, 0x0F	; 15
    1abc:	ef 16       	cp	r14, r31
    1abe:	f1 04       	cpc	r15, r1
    1ac0:	90 f0       	brcs	.+36     	; 0x1ae6 <ModbusWriteSomeRegistor+0x588>
    1ac2:	0f 2e       	mov	r0, r31
    1ac4:	f0 e2       	ldi	r31, 0x20	; 32
    1ac6:	af 2e       	mov	r10, r31
    1ac8:	f4 e0       	ldi	r31, 0x04	; 4
    1aca:	bf 2e       	mov	r11, r31
    1acc:	f0 2d       	mov	r31, r0
    1ace:	f5 01       	movw	r30, r10
    1ad0:	64 8d       	ldd	r22, Z+28	; 0x1c
    1ad2:	75 8d       	ldd	r23, Z+29	; 0x1d
    1ad4:	86 8d       	ldd	r24, Z+30	; 0x1e
    1ad6:	97 8d       	ldd	r25, Z+31	; 0x1f
    1ad8:	0e 94 9a 03 	call	0x734	; 0x734 <__ltobf>
    1adc:	f5 01       	movw	r30, r10
    1ade:	64 8f       	std	Z+28, r22	; 0x1c
    1ae0:	75 8f       	std	Z+29, r23	; 0x1d
    1ae2:	86 8f       	std	Z+30, r24	; 0x1e
    1ae4:	97 8f       	std	Z+31, r25	; 0x1f
	if((StartAddress <= 0x10) && (StopAddress >= 0x11))KeepRegisterTemp.MV[2] = __ltobf(KeepRegisterTemp.MV[2] );
    1ae6:	01 31       	cpi	r16, 0x11	; 17
    1ae8:	11 05       	cpc	r17, r1
    1aea:	b0 f4       	brcc	.+44     	; 0x1b18 <ModbusWriteSomeRegistor+0x5ba>
    1aec:	f1 e1       	ldi	r31, 0x11	; 17
    1aee:	ef 16       	cp	r14, r31
    1af0:	f1 04       	cpc	r15, r1
    1af2:	90 f0       	brcs	.+36     	; 0x1b18 <ModbusWriteSomeRegistor+0x5ba>
    1af4:	0f 2e       	mov	r0, r31
    1af6:	f0 e2       	ldi	r31, 0x20	; 32
    1af8:	af 2e       	mov	r10, r31
    1afa:	f4 e0       	ldi	r31, 0x04	; 4
    1afc:	bf 2e       	mov	r11, r31
    1afe:	f0 2d       	mov	r31, r0
    1b00:	f5 01       	movw	r30, r10
    1b02:	60 a1       	ldd	r22, Z+32	; 0x20
    1b04:	71 a1       	ldd	r23, Z+33	; 0x21
    1b06:	82 a1       	ldd	r24, Z+34	; 0x22
    1b08:	93 a1       	ldd	r25, Z+35	; 0x23
    1b0a:	0e 94 9a 03 	call	0x734	; 0x734 <__ltobf>
    1b0e:	f5 01       	movw	r30, r10
    1b10:	60 a3       	std	Z+32, r22	; 0x20
    1b12:	71 a3       	std	Z+33, r23	; 0x21
    1b14:	82 a3       	std	Z+34, r24	; 0x22
    1b16:	93 a3       	std	Z+35, r25	; 0x23
	if((StartAddress <= 0x12) && (StopAddress >= 0x13))KeepRegisterTemp.MV[3] = __ltobf(KeepRegisterTemp.MV[3] );
    1b18:	03 31       	cpi	r16, 0x13	; 19
    1b1a:	11 05       	cpc	r17, r1
    1b1c:	b0 f4       	brcc	.+44     	; 0x1b4a <ModbusWriteSomeRegistor+0x5ec>
    1b1e:	f3 e1       	ldi	r31, 0x13	; 19
    1b20:	ef 16       	cp	r14, r31
    1b22:	f1 04       	cpc	r15, r1
    1b24:	90 f0       	brcs	.+36     	; 0x1b4a <ModbusWriteSomeRegistor+0x5ec>
    1b26:	0f 2e       	mov	r0, r31
    1b28:	f0 e2       	ldi	r31, 0x20	; 32
    1b2a:	af 2e       	mov	r10, r31
    1b2c:	f4 e0       	ldi	r31, 0x04	; 4
    1b2e:	bf 2e       	mov	r11, r31
    1b30:	f0 2d       	mov	r31, r0
    1b32:	f5 01       	movw	r30, r10
    1b34:	64 a1       	ldd	r22, Z+36	; 0x24
    1b36:	75 a1       	ldd	r23, Z+37	; 0x25
    1b38:	86 a1       	ldd	r24, Z+38	; 0x26
    1b3a:	97 a1       	ldd	r25, Z+39	; 0x27
    1b3c:	0e 94 9a 03 	call	0x734	; 0x734 <__ltobf>
    1b40:	f5 01       	movw	r30, r10
    1b42:	64 a3       	std	Z+36, r22	; 0x24
    1b44:	75 a3       	std	Z+37, r23	; 0x25
    1b46:	86 a3       	std	Z+38, r24	; 0x26
    1b48:	97 a3       	std	Z+39, r25	; 0x27
	if((StartAddress <= 0x14) && (StopAddress >= 0x15))KeepRegisterTemp.MV[4] = __ltobf(KeepRegisterTemp.MV[4] );
    1b4a:	05 31       	cpi	r16, 0x15	; 21
    1b4c:	11 05       	cpc	r17, r1
    1b4e:	b0 f4       	brcc	.+44     	; 0x1b7c <ModbusWriteSomeRegistor+0x61e>
    1b50:	f5 e1       	ldi	r31, 0x15	; 21
    1b52:	ef 16       	cp	r14, r31
    1b54:	f1 04       	cpc	r15, r1
    1b56:	90 f0       	brcs	.+36     	; 0x1b7c <ModbusWriteSomeRegistor+0x61e>
    1b58:	0f 2e       	mov	r0, r31
    1b5a:	f0 e2       	ldi	r31, 0x20	; 32
    1b5c:	af 2e       	mov	r10, r31
    1b5e:	f4 e0       	ldi	r31, 0x04	; 4
    1b60:	bf 2e       	mov	r11, r31
    1b62:	f0 2d       	mov	r31, r0
    1b64:	f5 01       	movw	r30, r10
    1b66:	60 a5       	ldd	r22, Z+40	; 0x28
    1b68:	71 a5       	ldd	r23, Z+41	; 0x29
    1b6a:	82 a5       	ldd	r24, Z+42	; 0x2a
    1b6c:	93 a5       	ldd	r25, Z+43	; 0x2b
    1b6e:	0e 94 9a 03 	call	0x734	; 0x734 <__ltobf>
    1b72:	f5 01       	movw	r30, r10
    1b74:	60 a7       	std	Z+40, r22	; 0x28
    1b76:	71 a7       	std	Z+41, r23	; 0x29
    1b78:	82 a7       	std	Z+42, r24	; 0x2a
    1b7a:	93 a7       	std	Z+43, r25	; 0x2b
	if((StartAddress <= 0x16) && (StopAddress >= 0x17))KeepRegisterTemp.MV[5] = __ltobf(KeepRegisterTemp.MV[5] );
    1b7c:	07 31       	cpi	r16, 0x17	; 23
    1b7e:	11 05       	cpc	r17, r1
    1b80:	b0 f4       	brcc	.+44     	; 0x1bae <ModbusWriteSomeRegistor+0x650>
    1b82:	f7 e1       	ldi	r31, 0x17	; 23
    1b84:	ef 16       	cp	r14, r31
    1b86:	f1 04       	cpc	r15, r1
    1b88:	90 f0       	brcs	.+36     	; 0x1bae <ModbusWriteSomeRegistor+0x650>
    1b8a:	0f 2e       	mov	r0, r31
    1b8c:	f0 e2       	ldi	r31, 0x20	; 32
    1b8e:	af 2e       	mov	r10, r31
    1b90:	f4 e0       	ldi	r31, 0x04	; 4
    1b92:	bf 2e       	mov	r11, r31
    1b94:	f0 2d       	mov	r31, r0
    1b96:	f5 01       	movw	r30, r10
    1b98:	64 a5       	ldd	r22, Z+44	; 0x2c
    1b9a:	75 a5       	ldd	r23, Z+45	; 0x2d
    1b9c:	86 a5       	ldd	r24, Z+46	; 0x2e
    1b9e:	97 a5       	ldd	r25, Z+47	; 0x2f
    1ba0:	0e 94 9a 03 	call	0x734	; 0x734 <__ltobf>
    1ba4:	f5 01       	movw	r30, r10
    1ba6:	64 a7       	std	Z+44, r22	; 0x2c
    1ba8:	75 a7       	std	Z+45, r23	; 0x2d
    1baa:	86 a7       	std	Z+46, r24	; 0x2e
    1bac:	97 a7       	std	Z+47, r25	; 0x2f
	if((StartAddress <= 0x18) && (StopAddress >= 0x19))KeepRegisterTemp.Temp_T0 = __ltobf(KeepRegisterTemp.Temp_T0 );
    1bae:	09 31       	cpi	r16, 0x19	; 25
    1bb0:	11 05       	cpc	r17, r1
    1bb2:	b0 f4       	brcc	.+44     	; 0x1be0 <ModbusWriteSomeRegistor+0x682>
    1bb4:	f9 e1       	ldi	r31, 0x19	; 25
    1bb6:	ef 16       	cp	r14, r31
    1bb8:	f1 04       	cpc	r15, r1
    1bba:	90 f0       	brcs	.+36     	; 0x1be0 <ModbusWriteSomeRegistor+0x682>
    1bbc:	0f 2e       	mov	r0, r31
    1bbe:	f0 e2       	ldi	r31, 0x20	; 32
    1bc0:	af 2e       	mov	r10, r31
    1bc2:	f4 e0       	ldi	r31, 0x04	; 4
    1bc4:	bf 2e       	mov	r11, r31
    1bc6:	f0 2d       	mov	r31, r0
    1bc8:	f5 01       	movw	r30, r10
    1bca:	60 a9       	ldd	r22, Z+48	; 0x30
    1bcc:	71 a9       	ldd	r23, Z+49	; 0x31
    1bce:	82 a9       	ldd	r24, Z+50	; 0x32
    1bd0:	93 a9       	ldd	r25, Z+51	; 0x33
    1bd2:	0e 94 9a 03 	call	0x734	; 0x734 <__ltobf>
    1bd6:	f5 01       	movw	r30, r10
    1bd8:	60 ab       	std	Z+48, r22	; 0x30
    1bda:	71 ab       	std	Z+49, r23	; 0x31
    1bdc:	82 ab       	std	Z+50, r24	; 0x32
    1bde:	93 ab       	std	Z+51, r25	; 0x33
	if((StartAddress <= 0x1a) && (StopAddress >= 0x1b))KeepRegisterTemp.LTC0[0] = __ltobf(KeepRegisterTemp.LTC0[0] );
    1be0:	0b 31       	cpi	r16, 0x1B	; 27
    1be2:	11 05       	cpc	r17, r1
    1be4:	b0 f4       	brcc	.+44     	; 0x1c12 <ModbusWriteSomeRegistor+0x6b4>
    1be6:	fb e1       	ldi	r31, 0x1B	; 27
    1be8:	ef 16       	cp	r14, r31
    1bea:	f1 04       	cpc	r15, r1
    1bec:	90 f0       	brcs	.+36     	; 0x1c12 <ModbusWriteSomeRegistor+0x6b4>
    1bee:	0f 2e       	mov	r0, r31
    1bf0:	f0 e2       	ldi	r31, 0x20	; 32
    1bf2:	af 2e       	mov	r10, r31
    1bf4:	f4 e0       	ldi	r31, 0x04	; 4
    1bf6:	bf 2e       	mov	r11, r31
    1bf8:	f0 2d       	mov	r31, r0
    1bfa:	f5 01       	movw	r30, r10
    1bfc:	64 a9       	ldd	r22, Z+52	; 0x34
    1bfe:	75 a9       	ldd	r23, Z+53	; 0x35
    1c00:	86 a9       	ldd	r24, Z+54	; 0x36
    1c02:	97 a9       	ldd	r25, Z+55	; 0x37
    1c04:	0e 94 9a 03 	call	0x734	; 0x734 <__ltobf>
    1c08:	f5 01       	movw	r30, r10
    1c0a:	64 ab       	std	Z+52, r22	; 0x34
    1c0c:	75 ab       	std	Z+53, r23	; 0x35
    1c0e:	86 ab       	std	Z+54, r24	; 0x36
    1c10:	97 ab       	std	Z+55, r25	; 0x37
	if((StartAddress <= 0x1c) && (StopAddress >= 0x1d))KeepRegisterTemp.LTC0[1] = __ltobf(KeepRegisterTemp.LTC0[1] );
    1c12:	0d 31       	cpi	r16, 0x1D	; 29
    1c14:	11 05       	cpc	r17, r1
    1c16:	b0 f4       	brcc	.+44     	; 0x1c44 <ModbusWriteSomeRegistor+0x6e6>
    1c18:	fd e1       	ldi	r31, 0x1D	; 29
    1c1a:	ef 16       	cp	r14, r31
    1c1c:	f1 04       	cpc	r15, r1
    1c1e:	90 f0       	brcs	.+36     	; 0x1c44 <ModbusWriteSomeRegistor+0x6e6>
    1c20:	0f 2e       	mov	r0, r31
    1c22:	f0 e2       	ldi	r31, 0x20	; 32
    1c24:	af 2e       	mov	r10, r31
    1c26:	f4 e0       	ldi	r31, 0x04	; 4
    1c28:	bf 2e       	mov	r11, r31
    1c2a:	f0 2d       	mov	r31, r0
    1c2c:	f5 01       	movw	r30, r10
    1c2e:	60 ad       	ldd	r22, Z+56	; 0x38
    1c30:	71 ad       	ldd	r23, Z+57	; 0x39
    1c32:	82 ad       	ldd	r24, Z+58	; 0x3a
    1c34:	93 ad       	ldd	r25, Z+59	; 0x3b
    1c36:	0e 94 9a 03 	call	0x734	; 0x734 <__ltobf>
    1c3a:	f5 01       	movw	r30, r10
    1c3c:	60 af       	std	Z+56, r22	; 0x38
    1c3e:	71 af       	std	Z+57, r23	; 0x39
    1c40:	82 af       	std	Z+58, r24	; 0x3a
    1c42:	93 af       	std	Z+59, r25	; 0x3b
	if((StartAddress <= 0x1e) && (StopAddress >= 0x1f))KeepRegisterTemp.LTC0[2] = __ltobf(KeepRegisterTemp.LTC0[2] );
    1c44:	0f 31       	cpi	r16, 0x1F	; 31
    1c46:	11 05       	cpc	r17, r1
    1c48:	b0 f4       	brcc	.+44     	; 0x1c76 <ModbusWriteSomeRegistor+0x718>
    1c4a:	ff e1       	ldi	r31, 0x1F	; 31
    1c4c:	ef 16       	cp	r14, r31
    1c4e:	f1 04       	cpc	r15, r1
    1c50:	90 f0       	brcs	.+36     	; 0x1c76 <ModbusWriteSomeRegistor+0x718>
    1c52:	0f 2e       	mov	r0, r31
    1c54:	f0 e2       	ldi	r31, 0x20	; 32
    1c56:	af 2e       	mov	r10, r31
    1c58:	f4 e0       	ldi	r31, 0x04	; 4
    1c5a:	bf 2e       	mov	r11, r31
    1c5c:	f0 2d       	mov	r31, r0
    1c5e:	f5 01       	movw	r30, r10
    1c60:	64 ad       	ldd	r22, Z+60	; 0x3c
    1c62:	75 ad       	ldd	r23, Z+61	; 0x3d
    1c64:	86 ad       	ldd	r24, Z+62	; 0x3e
    1c66:	97 ad       	ldd	r25, Z+63	; 0x3f
    1c68:	0e 94 9a 03 	call	0x734	; 0x734 <__ltobf>
    1c6c:	f5 01       	movw	r30, r10
    1c6e:	64 af       	std	Z+60, r22	; 0x3c
    1c70:	75 af       	std	Z+61, r23	; 0x3d
    1c72:	86 af       	std	Z+62, r24	; 0x3e
    1c74:	97 af       	std	Z+63, r25	; 0x3f
	if((StartAddress <= 0x20) && (StopAddress >= 0x21))KeepRegisterTemp.LTC0[3] = __ltobf(KeepRegisterTemp.LTC0[3] );
    1c76:	01 32       	cpi	r16, 0x21	; 33
    1c78:	11 05       	cpc	r17, r1
    1c7a:	b0 f4       	brcc	.+44     	; 0x1ca8 <ModbusWriteSomeRegistor+0x74a>
    1c7c:	f1 e2       	ldi	r31, 0x21	; 33
    1c7e:	ef 16       	cp	r14, r31
    1c80:	f1 04       	cpc	r15, r1
    1c82:	90 f0       	brcs	.+36     	; 0x1ca8 <ModbusWriteSomeRegistor+0x74a>
    1c84:	0f 2e       	mov	r0, r31
    1c86:	f0 e6       	ldi	r31, 0x60	; 96
    1c88:	af 2e       	mov	r10, r31
    1c8a:	f4 e0       	ldi	r31, 0x04	; 4
    1c8c:	bf 2e       	mov	r11, r31
    1c8e:	f0 2d       	mov	r31, r0
    1c90:	f5 01       	movw	r30, r10
    1c92:	60 81       	ld	r22, Z
    1c94:	71 81       	ldd	r23, Z+1	; 0x01
    1c96:	82 81       	ldd	r24, Z+2	; 0x02
    1c98:	93 81       	ldd	r25, Z+3	; 0x03
    1c9a:	0e 94 9a 03 	call	0x734	; 0x734 <__ltobf>
    1c9e:	f5 01       	movw	r30, r10
    1ca0:	60 83       	st	Z, r22
    1ca2:	71 83       	std	Z+1, r23	; 0x01
    1ca4:	82 83       	std	Z+2, r24	; 0x02
    1ca6:	93 83       	std	Z+3, r25	; 0x03
	if((StartAddress <= 0x22) && (StopAddress >= 0x23))KeepRegisterTemp.LTC0[4] = __ltobf(KeepRegisterTemp.LTC0[4] );
    1ca8:	03 32       	cpi	r16, 0x23	; 35
    1caa:	11 05       	cpc	r17, r1
    1cac:	b0 f4       	brcc	.+44     	; 0x1cda <ModbusWriteSomeRegistor+0x77c>
    1cae:	f3 e2       	ldi	r31, 0x23	; 35
    1cb0:	ef 16       	cp	r14, r31
    1cb2:	f1 04       	cpc	r15, r1
    1cb4:	90 f0       	brcs	.+36     	; 0x1cda <ModbusWriteSomeRegistor+0x77c>
    1cb6:	0f 2e       	mov	r0, r31
    1cb8:	f4 e6       	ldi	r31, 0x64	; 100
    1cba:	af 2e       	mov	r10, r31
    1cbc:	f4 e0       	ldi	r31, 0x04	; 4
    1cbe:	bf 2e       	mov	r11, r31
    1cc0:	f0 2d       	mov	r31, r0
    1cc2:	f5 01       	movw	r30, r10
    1cc4:	60 81       	ld	r22, Z
    1cc6:	71 81       	ldd	r23, Z+1	; 0x01
    1cc8:	82 81       	ldd	r24, Z+2	; 0x02
    1cca:	93 81       	ldd	r25, Z+3	; 0x03
    1ccc:	0e 94 9a 03 	call	0x734	; 0x734 <__ltobf>
    1cd0:	f5 01       	movw	r30, r10
    1cd2:	60 83       	st	Z, r22
    1cd4:	71 83       	std	Z+1, r23	; 0x01
    1cd6:	82 83       	std	Z+2, r24	; 0x02
    1cd8:	93 83       	std	Z+3, r25	; 0x03
	
	if((StartAddress <= 0x24) && (StopAddress >= 0x25))KeepRegisterTemp.LTC1[0] = __ltobf(KeepRegisterTemp.LTC1[0] );
    1cda:	05 32       	cpi	r16, 0x25	; 37
    1cdc:	11 05       	cpc	r17, r1
    1cde:	b0 f4       	brcc	.+44     	; 0x1d0c <ModbusWriteSomeRegistor+0x7ae>
    1ce0:	f5 e2       	ldi	r31, 0x25	; 37
    1ce2:	ef 16       	cp	r14, r31
    1ce4:	f1 04       	cpc	r15, r1
    1ce6:	90 f0       	brcs	.+36     	; 0x1d0c <ModbusWriteSomeRegistor+0x7ae>
    1ce8:	0f 2e       	mov	r0, r31
    1cea:	f8 e6       	ldi	r31, 0x68	; 104
    1cec:	af 2e       	mov	r10, r31
    1cee:	f4 e0       	ldi	r31, 0x04	; 4
    1cf0:	bf 2e       	mov	r11, r31
    1cf2:	f0 2d       	mov	r31, r0
    1cf4:	f5 01       	movw	r30, r10
    1cf6:	60 81       	ld	r22, Z
    1cf8:	71 81       	ldd	r23, Z+1	; 0x01
    1cfa:	82 81       	ldd	r24, Z+2	; 0x02
    1cfc:	93 81       	ldd	r25, Z+3	; 0x03
    1cfe:	0e 94 9a 03 	call	0x734	; 0x734 <__ltobf>
    1d02:	f5 01       	movw	r30, r10
    1d04:	60 83       	st	Z, r22
    1d06:	71 83       	std	Z+1, r23	; 0x01
    1d08:	82 83       	std	Z+2, r24	; 0x02
    1d0a:	93 83       	std	Z+3, r25	; 0x03
	if((StartAddress <= 0x26) && (StopAddress >= 0x27))KeepRegisterTemp.LTC1[1] = __ltobf(KeepRegisterTemp.LTC1[1] );
    1d0c:	07 32       	cpi	r16, 0x27	; 39
    1d0e:	11 05       	cpc	r17, r1
    1d10:	b0 f4       	brcc	.+44     	; 0x1d3e <ModbusWriteSomeRegistor+0x7e0>
    1d12:	f7 e2       	ldi	r31, 0x27	; 39
    1d14:	ef 16       	cp	r14, r31
    1d16:	f1 04       	cpc	r15, r1
    1d18:	90 f0       	brcs	.+36     	; 0x1d3e <ModbusWriteSomeRegistor+0x7e0>
    1d1a:	0f 2e       	mov	r0, r31
    1d1c:	fc e6       	ldi	r31, 0x6C	; 108
    1d1e:	af 2e       	mov	r10, r31
    1d20:	f4 e0       	ldi	r31, 0x04	; 4
    1d22:	bf 2e       	mov	r11, r31
    1d24:	f0 2d       	mov	r31, r0
    1d26:	f5 01       	movw	r30, r10
    1d28:	60 81       	ld	r22, Z
    1d2a:	71 81       	ldd	r23, Z+1	; 0x01
    1d2c:	82 81       	ldd	r24, Z+2	; 0x02
    1d2e:	93 81       	ldd	r25, Z+3	; 0x03
    1d30:	0e 94 9a 03 	call	0x734	; 0x734 <__ltobf>
    1d34:	f5 01       	movw	r30, r10
    1d36:	60 83       	st	Z, r22
    1d38:	71 83       	std	Z+1, r23	; 0x01
    1d3a:	82 83       	std	Z+2, r24	; 0x02
    1d3c:	93 83       	std	Z+3, r25	; 0x03
	if((StartAddress <= 0x28) && (StopAddress >= 0x29))KeepRegisterTemp.LTC1[2] = __ltobf(KeepRegisterTemp.LTC1[2] );
    1d3e:	09 32       	cpi	r16, 0x29	; 41
    1d40:	11 05       	cpc	r17, r1
    1d42:	b0 f4       	brcc	.+44     	; 0x1d70 <ModbusWriteSomeRegistor+0x812>
    1d44:	f9 e2       	ldi	r31, 0x29	; 41
    1d46:	ef 16       	cp	r14, r31
    1d48:	f1 04       	cpc	r15, r1
    1d4a:	90 f0       	brcs	.+36     	; 0x1d70 <ModbusWriteSomeRegistor+0x812>
    1d4c:	0f 2e       	mov	r0, r31
    1d4e:	f0 e7       	ldi	r31, 0x70	; 112
    1d50:	af 2e       	mov	r10, r31
    1d52:	f4 e0       	ldi	r31, 0x04	; 4
    1d54:	bf 2e       	mov	r11, r31
    1d56:	f0 2d       	mov	r31, r0
    1d58:	f5 01       	movw	r30, r10
    1d5a:	60 81       	ld	r22, Z
    1d5c:	71 81       	ldd	r23, Z+1	; 0x01
    1d5e:	82 81       	ldd	r24, Z+2	; 0x02
    1d60:	93 81       	ldd	r25, Z+3	; 0x03
    1d62:	0e 94 9a 03 	call	0x734	; 0x734 <__ltobf>
    1d66:	f5 01       	movw	r30, r10
    1d68:	60 83       	st	Z, r22
    1d6a:	71 83       	std	Z+1, r23	; 0x01
    1d6c:	82 83       	std	Z+2, r24	; 0x02
    1d6e:	93 83       	std	Z+3, r25	; 0x03
	if((StartAddress <= 0x2a) && (StopAddress >= 0x2b))KeepRegisterTemp.LTC1[3] = __ltobf(KeepRegisterTemp.LTC1[3] );
    1d70:	0b 32       	cpi	r16, 0x2B	; 43
    1d72:	11 05       	cpc	r17, r1
    1d74:	b0 f4       	brcc	.+44     	; 0x1da2 <ModbusWriteSomeRegistor+0x844>
    1d76:	fb e2       	ldi	r31, 0x2B	; 43
    1d78:	ef 16       	cp	r14, r31
    1d7a:	f1 04       	cpc	r15, r1
    1d7c:	90 f0       	brcs	.+36     	; 0x1da2 <ModbusWriteSomeRegistor+0x844>
    1d7e:	0f 2e       	mov	r0, r31
    1d80:	f4 e7       	ldi	r31, 0x74	; 116
    1d82:	af 2e       	mov	r10, r31
    1d84:	f4 e0       	ldi	r31, 0x04	; 4
    1d86:	bf 2e       	mov	r11, r31
    1d88:	f0 2d       	mov	r31, r0
    1d8a:	f5 01       	movw	r30, r10
    1d8c:	60 81       	ld	r22, Z
    1d8e:	71 81       	ldd	r23, Z+1	; 0x01
    1d90:	82 81       	ldd	r24, Z+2	; 0x02
    1d92:	93 81       	ldd	r25, Z+3	; 0x03
    1d94:	0e 94 9a 03 	call	0x734	; 0x734 <__ltobf>
    1d98:	f5 01       	movw	r30, r10
    1d9a:	60 83       	st	Z, r22
    1d9c:	71 83       	std	Z+1, r23	; 0x01
    1d9e:	82 83       	std	Z+2, r24	; 0x02
    1da0:	93 83       	std	Z+3, r25	; 0x03
	if((StartAddress <= 0x2c) && (StopAddress >= 0x2d))KeepRegisterTemp.LTC1[4] = __ltobf(KeepRegisterTemp.LTC1[4] );
    1da2:	0d 32       	cpi	r16, 0x2D	; 45
    1da4:	11 05       	cpc	r17, r1
    1da6:	b0 f4       	brcc	.+44     	; 0x1dd4 <ModbusWriteSomeRegistor+0x876>
    1da8:	fd e2       	ldi	r31, 0x2D	; 45
    1daa:	ef 16       	cp	r14, r31
    1dac:	f1 04       	cpc	r15, r1
    1dae:	90 f0       	brcs	.+36     	; 0x1dd4 <ModbusWriteSomeRegistor+0x876>
    1db0:	0f 2e       	mov	r0, r31
    1db2:	f8 e7       	ldi	r31, 0x78	; 120
    1db4:	af 2e       	mov	r10, r31
    1db6:	f4 e0       	ldi	r31, 0x04	; 4
    1db8:	bf 2e       	mov	r11, r31
    1dba:	f0 2d       	mov	r31, r0
    1dbc:	f5 01       	movw	r30, r10
    1dbe:	60 81       	ld	r22, Z
    1dc0:	71 81       	ldd	r23, Z+1	; 0x01
    1dc2:	82 81       	ldd	r24, Z+2	; 0x02
    1dc4:	93 81       	ldd	r25, Z+3	; 0x03
    1dc6:	0e 94 9a 03 	call	0x734	; 0x734 <__ltobf>
    1dca:	f5 01       	movw	r30, r10
    1dcc:	60 83       	st	Z, r22
    1dce:	71 83       	std	Z+1, r23	; 0x01
    1dd0:	82 83       	std	Z+2, r24	; 0x02
    1dd2:	93 83       	std	Z+3, r25	; 0x03
	
	if((StartAddress <= 0x2e) && (StopAddress >= 0x2f))KeepRegisterTemp.LTC2[0] = __ltobf(KeepRegisterTemp.LTC2[0] );
    1dd4:	0f 32       	cpi	r16, 0x2F	; 47
    1dd6:	11 05       	cpc	r17, r1
    1dd8:	b0 f4       	brcc	.+44     	; 0x1e06 <ModbusWriteSomeRegistor+0x8a8>
    1dda:	ff e2       	ldi	r31, 0x2F	; 47
    1ddc:	ef 16       	cp	r14, r31
    1dde:	f1 04       	cpc	r15, r1
    1de0:	90 f0       	brcs	.+36     	; 0x1e06 <ModbusWriteSomeRegistor+0x8a8>
    1de2:	0f 2e       	mov	r0, r31
    1de4:	fc e7       	ldi	r31, 0x7C	; 124
    1de6:	af 2e       	mov	r10, r31
    1de8:	f4 e0       	ldi	r31, 0x04	; 4
    1dea:	bf 2e       	mov	r11, r31
    1dec:	f0 2d       	mov	r31, r0
    1dee:	f5 01       	movw	r30, r10
    1df0:	60 81       	ld	r22, Z
    1df2:	71 81       	ldd	r23, Z+1	; 0x01
    1df4:	82 81       	ldd	r24, Z+2	; 0x02
    1df6:	93 81       	ldd	r25, Z+3	; 0x03
    1df8:	0e 94 9a 03 	call	0x734	; 0x734 <__ltobf>
    1dfc:	f5 01       	movw	r30, r10
    1dfe:	60 83       	st	Z, r22
    1e00:	71 83       	std	Z+1, r23	; 0x01
    1e02:	82 83       	std	Z+2, r24	; 0x02
    1e04:	93 83       	std	Z+3, r25	; 0x03
	if((StartAddress <= 0x30) && (StopAddress >= 0x31))KeepRegisterTemp.LTC2[1] = __ltobf(KeepRegisterTemp.LTC2[1] );
    1e06:	01 33       	cpi	r16, 0x31	; 49
    1e08:	11 05       	cpc	r17, r1
    1e0a:	b0 f4       	brcc	.+44     	; 0x1e38 <ModbusWriteSomeRegistor+0x8da>
    1e0c:	f1 e3       	ldi	r31, 0x31	; 49
    1e0e:	ef 16       	cp	r14, r31
    1e10:	f1 04       	cpc	r15, r1
    1e12:	90 f0       	brcs	.+36     	; 0x1e38 <ModbusWriteSomeRegistor+0x8da>
    1e14:	0f 2e       	mov	r0, r31
    1e16:	f0 e8       	ldi	r31, 0x80	; 128
    1e18:	af 2e       	mov	r10, r31
    1e1a:	f4 e0       	ldi	r31, 0x04	; 4
    1e1c:	bf 2e       	mov	r11, r31
    1e1e:	f0 2d       	mov	r31, r0
    1e20:	f5 01       	movw	r30, r10
    1e22:	60 81       	ld	r22, Z
    1e24:	71 81       	ldd	r23, Z+1	; 0x01
    1e26:	82 81       	ldd	r24, Z+2	; 0x02
    1e28:	93 81       	ldd	r25, Z+3	; 0x03
    1e2a:	0e 94 9a 03 	call	0x734	; 0x734 <__ltobf>
    1e2e:	f5 01       	movw	r30, r10
    1e30:	60 83       	st	Z, r22
    1e32:	71 83       	std	Z+1, r23	; 0x01
    1e34:	82 83       	std	Z+2, r24	; 0x02
    1e36:	93 83       	std	Z+3, r25	; 0x03
	if((StartAddress <= 0x32) && (StopAddress >= 0x33))KeepRegisterTemp.LTC2[2] = __ltobf(KeepRegisterTemp.LTC2[2] );
    1e38:	03 33       	cpi	r16, 0x33	; 51
    1e3a:	11 05       	cpc	r17, r1
    1e3c:	b0 f4       	brcc	.+44     	; 0x1e6a <ModbusWriteSomeRegistor+0x90c>
    1e3e:	f3 e3       	ldi	r31, 0x33	; 51
    1e40:	ef 16       	cp	r14, r31
    1e42:	f1 04       	cpc	r15, r1
    1e44:	90 f0       	brcs	.+36     	; 0x1e6a <ModbusWriteSomeRegistor+0x90c>
    1e46:	0f 2e       	mov	r0, r31
    1e48:	f4 e8       	ldi	r31, 0x84	; 132
    1e4a:	af 2e       	mov	r10, r31
    1e4c:	f4 e0       	ldi	r31, 0x04	; 4
    1e4e:	bf 2e       	mov	r11, r31
    1e50:	f0 2d       	mov	r31, r0
    1e52:	f5 01       	movw	r30, r10
    1e54:	60 81       	ld	r22, Z
    1e56:	71 81       	ldd	r23, Z+1	; 0x01
    1e58:	82 81       	ldd	r24, Z+2	; 0x02
    1e5a:	93 81       	ldd	r25, Z+3	; 0x03
    1e5c:	0e 94 9a 03 	call	0x734	; 0x734 <__ltobf>
    1e60:	f5 01       	movw	r30, r10
    1e62:	60 83       	st	Z, r22
    1e64:	71 83       	std	Z+1, r23	; 0x01
    1e66:	82 83       	std	Z+2, r24	; 0x02
    1e68:	93 83       	std	Z+3, r25	; 0x03
	if((StartAddress <= 0x34) && (StopAddress >= 0x35))KeepRegisterTemp.LTC2[3] = __ltobf(KeepRegisterTemp.LTC2[3] );
    1e6a:	05 33       	cpi	r16, 0x35	; 53
    1e6c:	11 05       	cpc	r17, r1
    1e6e:	b0 f4       	brcc	.+44     	; 0x1e9c <ModbusWriteSomeRegistor+0x93e>
    1e70:	f5 e3       	ldi	r31, 0x35	; 53
    1e72:	ef 16       	cp	r14, r31
    1e74:	f1 04       	cpc	r15, r1
    1e76:	90 f0       	brcs	.+36     	; 0x1e9c <ModbusWriteSomeRegistor+0x93e>
    1e78:	0f 2e       	mov	r0, r31
    1e7a:	f8 e8       	ldi	r31, 0x88	; 136
    1e7c:	af 2e       	mov	r10, r31
    1e7e:	f4 e0       	ldi	r31, 0x04	; 4
    1e80:	bf 2e       	mov	r11, r31
    1e82:	f0 2d       	mov	r31, r0
    1e84:	f5 01       	movw	r30, r10
    1e86:	60 81       	ld	r22, Z
    1e88:	71 81       	ldd	r23, Z+1	; 0x01
    1e8a:	82 81       	ldd	r24, Z+2	; 0x02
    1e8c:	93 81       	ldd	r25, Z+3	; 0x03
    1e8e:	0e 94 9a 03 	call	0x734	; 0x734 <__ltobf>
    1e92:	f5 01       	movw	r30, r10
    1e94:	60 83       	st	Z, r22
    1e96:	71 83       	std	Z+1, r23	; 0x01
    1e98:	82 83       	std	Z+2, r24	; 0x02
    1e9a:	93 83       	std	Z+3, r25	; 0x03
	if((StartAddress <= 0x36) && (StopAddress >= 0x37))KeepRegisterTemp.LTC2[4] = __ltobf(KeepRegisterTemp.LTC2[4] );
    1e9c:	07 33       	cpi	r16, 0x37	; 55
    1e9e:	11 05       	cpc	r17, r1
    1ea0:	b0 f4       	brcc	.+44     	; 0x1ece <ModbusWriteSomeRegistor+0x970>
    1ea2:	f7 e3       	ldi	r31, 0x37	; 55
    1ea4:	ef 16       	cp	r14, r31
    1ea6:	f1 04       	cpc	r15, r1
    1ea8:	90 f0       	brcs	.+36     	; 0x1ece <ModbusWriteSomeRegistor+0x970>
    1eaa:	0f 2e       	mov	r0, r31
    1eac:	fc e8       	ldi	r31, 0x8C	; 140
    1eae:	af 2e       	mov	r10, r31
    1eb0:	f4 e0       	ldi	r31, 0x04	; 4
    1eb2:	bf 2e       	mov	r11, r31
    1eb4:	f0 2d       	mov	r31, r0
    1eb6:	f5 01       	movw	r30, r10
    1eb8:	60 81       	ld	r22, Z
    1eba:	71 81       	ldd	r23, Z+1	; 0x01
    1ebc:	82 81       	ldd	r24, Z+2	; 0x02
    1ebe:	93 81       	ldd	r25, Z+3	; 0x03
    1ec0:	0e 94 9a 03 	call	0x734	; 0x734 <__ltobf>
    1ec4:	f5 01       	movw	r30, r10
    1ec6:	60 83       	st	Z, r22
    1ec8:	71 83       	std	Z+1, r23	; 0x01
    1eca:	82 83       	std	Z+2, r24	; 0x02
    1ecc:	93 83       	std	Z+3, r25	; 0x03
	
	if((StartAddress <= 0x38) && (StopAddress >= 0x39))KeepRegisterTemp.LTC3[0] = __ltobf(KeepRegisterTemp.LTC3[0] );
    1ece:	09 33       	cpi	r16, 0x39	; 57
    1ed0:	11 05       	cpc	r17, r1
    1ed2:	b0 f4       	brcc	.+44     	; 0x1f00 <ModbusWriteSomeRegistor+0x9a2>
    1ed4:	f9 e3       	ldi	r31, 0x39	; 57
    1ed6:	ef 16       	cp	r14, r31
    1ed8:	f1 04       	cpc	r15, r1
    1eda:	90 f0       	brcs	.+36     	; 0x1f00 <ModbusWriteSomeRegistor+0x9a2>
    1edc:	0f 2e       	mov	r0, r31
    1ede:	f0 e9       	ldi	r31, 0x90	; 144
    1ee0:	af 2e       	mov	r10, r31
    1ee2:	f4 e0       	ldi	r31, 0x04	; 4
    1ee4:	bf 2e       	mov	r11, r31
    1ee6:	f0 2d       	mov	r31, r0
    1ee8:	f5 01       	movw	r30, r10
    1eea:	60 81       	ld	r22, Z
    1eec:	71 81       	ldd	r23, Z+1	; 0x01
    1eee:	82 81       	ldd	r24, Z+2	; 0x02
    1ef0:	93 81       	ldd	r25, Z+3	; 0x03
    1ef2:	0e 94 9a 03 	call	0x734	; 0x734 <__ltobf>
    1ef6:	f5 01       	movw	r30, r10
    1ef8:	60 83       	st	Z, r22
    1efa:	71 83       	std	Z+1, r23	; 0x01
    1efc:	82 83       	std	Z+2, r24	; 0x02
    1efe:	93 83       	std	Z+3, r25	; 0x03
	if((StartAddress <= 0x3a) && (StopAddress >= 0x3b))KeepRegisterTemp.LTC3[1] = __ltobf(KeepRegisterTemp.LTC3[1] );
    1f00:	0b 33       	cpi	r16, 0x3B	; 59
    1f02:	11 05       	cpc	r17, r1
    1f04:	b0 f4       	brcc	.+44     	; 0x1f32 <ModbusWriteSomeRegistor+0x9d4>
    1f06:	fb e3       	ldi	r31, 0x3B	; 59
    1f08:	ef 16       	cp	r14, r31
    1f0a:	f1 04       	cpc	r15, r1
    1f0c:	90 f0       	brcs	.+36     	; 0x1f32 <ModbusWriteSomeRegistor+0x9d4>
    1f0e:	0f 2e       	mov	r0, r31
    1f10:	f4 e9       	ldi	r31, 0x94	; 148
    1f12:	af 2e       	mov	r10, r31
    1f14:	f4 e0       	ldi	r31, 0x04	; 4
    1f16:	bf 2e       	mov	r11, r31
    1f18:	f0 2d       	mov	r31, r0
    1f1a:	f5 01       	movw	r30, r10
    1f1c:	60 81       	ld	r22, Z
    1f1e:	71 81       	ldd	r23, Z+1	; 0x01
    1f20:	82 81       	ldd	r24, Z+2	; 0x02
    1f22:	93 81       	ldd	r25, Z+3	; 0x03
    1f24:	0e 94 9a 03 	call	0x734	; 0x734 <__ltobf>
    1f28:	f5 01       	movw	r30, r10
    1f2a:	60 83       	st	Z, r22
    1f2c:	71 83       	std	Z+1, r23	; 0x01
    1f2e:	82 83       	std	Z+2, r24	; 0x02
    1f30:	93 83       	std	Z+3, r25	; 0x03
	if((StartAddress <= 0x3c) && (StopAddress >= 0x3d))KeepRegisterTemp.LTC3[2] = __ltobf(KeepRegisterTemp.LTC3[2] );
    1f32:	0d 33       	cpi	r16, 0x3D	; 61
    1f34:	11 05       	cpc	r17, r1
    1f36:	b0 f4       	brcc	.+44     	; 0x1f64 <ModbusWriteSomeRegistor+0xa06>
    1f38:	fd e3       	ldi	r31, 0x3D	; 61
    1f3a:	ef 16       	cp	r14, r31
    1f3c:	f1 04       	cpc	r15, r1
    1f3e:	90 f0       	brcs	.+36     	; 0x1f64 <ModbusWriteSomeRegistor+0xa06>
    1f40:	0f 2e       	mov	r0, r31
    1f42:	f8 e9       	ldi	r31, 0x98	; 152
    1f44:	af 2e       	mov	r10, r31
    1f46:	f4 e0       	ldi	r31, 0x04	; 4
    1f48:	bf 2e       	mov	r11, r31
    1f4a:	f0 2d       	mov	r31, r0
    1f4c:	f5 01       	movw	r30, r10
    1f4e:	60 81       	ld	r22, Z
    1f50:	71 81       	ldd	r23, Z+1	; 0x01
    1f52:	82 81       	ldd	r24, Z+2	; 0x02
    1f54:	93 81       	ldd	r25, Z+3	; 0x03
    1f56:	0e 94 9a 03 	call	0x734	; 0x734 <__ltobf>
    1f5a:	f5 01       	movw	r30, r10
    1f5c:	60 83       	st	Z, r22
    1f5e:	71 83       	std	Z+1, r23	; 0x01
    1f60:	82 83       	std	Z+2, r24	; 0x02
    1f62:	93 83       	std	Z+3, r25	; 0x03
	if((StartAddress <= 0x3e) && (StopAddress >= 0x3f))KeepRegisterTemp.LTC3[3] = __ltobf(KeepRegisterTemp.LTC3[3] );
    1f64:	0f 33       	cpi	r16, 0x3F	; 63
    1f66:	11 05       	cpc	r17, r1
    1f68:	b0 f4       	brcc	.+44     	; 0x1f96 <ModbusWriteSomeRegistor+0xa38>
    1f6a:	ff e3       	ldi	r31, 0x3F	; 63
    1f6c:	ef 16       	cp	r14, r31
    1f6e:	f1 04       	cpc	r15, r1
    1f70:	90 f0       	brcs	.+36     	; 0x1f96 <ModbusWriteSomeRegistor+0xa38>
    1f72:	0f 2e       	mov	r0, r31
    1f74:	fc e9       	ldi	r31, 0x9C	; 156
    1f76:	af 2e       	mov	r10, r31
    1f78:	f4 e0       	ldi	r31, 0x04	; 4
    1f7a:	bf 2e       	mov	r11, r31
    1f7c:	f0 2d       	mov	r31, r0
    1f7e:	f5 01       	movw	r30, r10
    1f80:	60 81       	ld	r22, Z
    1f82:	71 81       	ldd	r23, Z+1	; 0x01
    1f84:	82 81       	ldd	r24, Z+2	; 0x02
    1f86:	93 81       	ldd	r25, Z+3	; 0x03
    1f88:	0e 94 9a 03 	call	0x734	; 0x734 <__ltobf>
    1f8c:	f5 01       	movw	r30, r10
    1f8e:	60 83       	st	Z, r22
    1f90:	71 83       	std	Z+1, r23	; 0x01
    1f92:	82 83       	std	Z+2, r24	; 0x02
    1f94:	93 83       	std	Z+3, r25	; 0x03
	if((StartAddress <= 0x40) && (StopAddress >= 0x41))KeepRegisterTemp.LTC3[4] = __ltobf(KeepRegisterTemp.LTC3[4] );
    1f96:	01 34       	cpi	r16, 0x41	; 65
    1f98:	11 05       	cpc	r17, r1
    1f9a:	b0 f4       	brcc	.+44     	; 0x1fc8 <ModbusWriteSomeRegistor+0xa6a>
    1f9c:	f1 e4       	ldi	r31, 0x41	; 65
    1f9e:	ef 16       	cp	r14, r31
    1fa0:	f1 04       	cpc	r15, r1
    1fa2:	90 f0       	brcs	.+36     	; 0x1fc8 <ModbusWriteSomeRegistor+0xa6a>
    1fa4:	0f 2e       	mov	r0, r31
    1fa6:	f0 ea       	ldi	r31, 0xA0	; 160
    1fa8:	af 2e       	mov	r10, r31
    1faa:	f4 e0       	ldi	r31, 0x04	; 4
    1fac:	bf 2e       	mov	r11, r31
    1fae:	f0 2d       	mov	r31, r0
    1fb0:	f5 01       	movw	r30, r10
    1fb2:	60 81       	ld	r22, Z
    1fb4:	71 81       	ldd	r23, Z+1	; 0x01
    1fb6:	82 81       	ldd	r24, Z+2	; 0x02
    1fb8:	93 81       	ldd	r25, Z+3	; 0x03
    1fba:	0e 94 9a 03 	call	0x734	; 0x734 <__ltobf>
    1fbe:	f5 01       	movw	r30, r10
    1fc0:	60 83       	st	Z, r22
    1fc2:	71 83       	std	Z+1, r23	; 0x01
    1fc4:	82 83       	std	Z+2, r24	; 0x02
    1fc6:	93 83       	std	Z+3, r25	; 0x03
	
	if((StartAddress <= 0x42) && (StopAddress >= 0x43))KeepRegisterTemp.LTC4[0] = __ltobf(KeepRegisterTemp.LTC4[0] );
    1fc8:	03 34       	cpi	r16, 0x43	; 67
    1fca:	11 05       	cpc	r17, r1
    1fcc:	b0 f4       	brcc	.+44     	; 0x1ffa <ModbusWriteSomeRegistor+0xa9c>
    1fce:	f3 e4       	ldi	r31, 0x43	; 67
    1fd0:	ef 16       	cp	r14, r31
    1fd2:	f1 04       	cpc	r15, r1
    1fd4:	90 f0       	brcs	.+36     	; 0x1ffa <ModbusWriteSomeRegistor+0xa9c>
    1fd6:	0f 2e       	mov	r0, r31
    1fd8:	f4 ea       	ldi	r31, 0xA4	; 164
    1fda:	af 2e       	mov	r10, r31
    1fdc:	f4 e0       	ldi	r31, 0x04	; 4
    1fde:	bf 2e       	mov	r11, r31
    1fe0:	f0 2d       	mov	r31, r0
    1fe2:	f5 01       	movw	r30, r10
    1fe4:	60 81       	ld	r22, Z
    1fe6:	71 81       	ldd	r23, Z+1	; 0x01
    1fe8:	82 81       	ldd	r24, Z+2	; 0x02
    1fea:	93 81       	ldd	r25, Z+3	; 0x03
    1fec:	0e 94 9a 03 	call	0x734	; 0x734 <__ltobf>
    1ff0:	f5 01       	movw	r30, r10
    1ff2:	60 83       	st	Z, r22
    1ff4:	71 83       	std	Z+1, r23	; 0x01
    1ff6:	82 83       	std	Z+2, r24	; 0x02
    1ff8:	93 83       	std	Z+3, r25	; 0x03
	if((StartAddress <= 0x44) && (StopAddress >= 0x45))KeepRegisterTemp.LTC4[1] = __ltobf(KeepRegisterTemp.LTC4[1] );
    1ffa:	05 34       	cpi	r16, 0x45	; 69
    1ffc:	11 05       	cpc	r17, r1
    1ffe:	b0 f4       	brcc	.+44     	; 0x202c <ModbusWriteSomeRegistor+0xace>
    2000:	f5 e4       	ldi	r31, 0x45	; 69
    2002:	ef 16       	cp	r14, r31
    2004:	f1 04       	cpc	r15, r1
    2006:	90 f0       	brcs	.+36     	; 0x202c <ModbusWriteSomeRegistor+0xace>
    2008:	0f 2e       	mov	r0, r31
    200a:	f8 ea       	ldi	r31, 0xA8	; 168
    200c:	af 2e       	mov	r10, r31
    200e:	f4 e0       	ldi	r31, 0x04	; 4
    2010:	bf 2e       	mov	r11, r31
    2012:	f0 2d       	mov	r31, r0
    2014:	f5 01       	movw	r30, r10
    2016:	60 81       	ld	r22, Z
    2018:	71 81       	ldd	r23, Z+1	; 0x01
    201a:	82 81       	ldd	r24, Z+2	; 0x02
    201c:	93 81       	ldd	r25, Z+3	; 0x03
    201e:	0e 94 9a 03 	call	0x734	; 0x734 <__ltobf>
    2022:	f5 01       	movw	r30, r10
    2024:	60 83       	st	Z, r22
    2026:	71 83       	std	Z+1, r23	; 0x01
    2028:	82 83       	std	Z+2, r24	; 0x02
    202a:	93 83       	std	Z+3, r25	; 0x03
	if((StartAddress <= 0x46) && (StopAddress >= 0x47))KeepRegisterTemp.LTC4[2] = __ltobf(KeepRegisterTemp.LTC4[2] );
    202c:	07 34       	cpi	r16, 0x47	; 71
    202e:	11 05       	cpc	r17, r1
    2030:	b0 f4       	brcc	.+44     	; 0x205e <ModbusWriteSomeRegistor+0xb00>
    2032:	f7 e4       	ldi	r31, 0x47	; 71
    2034:	ef 16       	cp	r14, r31
    2036:	f1 04       	cpc	r15, r1
    2038:	90 f0       	brcs	.+36     	; 0x205e <ModbusWriteSomeRegistor+0xb00>
    203a:	0f 2e       	mov	r0, r31
    203c:	fc ea       	ldi	r31, 0xAC	; 172
    203e:	af 2e       	mov	r10, r31
    2040:	f4 e0       	ldi	r31, 0x04	; 4
    2042:	bf 2e       	mov	r11, r31
    2044:	f0 2d       	mov	r31, r0
    2046:	f5 01       	movw	r30, r10
    2048:	60 81       	ld	r22, Z
    204a:	71 81       	ldd	r23, Z+1	; 0x01
    204c:	82 81       	ldd	r24, Z+2	; 0x02
    204e:	93 81       	ldd	r25, Z+3	; 0x03
    2050:	0e 94 9a 03 	call	0x734	; 0x734 <__ltobf>
    2054:	f5 01       	movw	r30, r10
    2056:	60 83       	st	Z, r22
    2058:	71 83       	std	Z+1, r23	; 0x01
    205a:	82 83       	std	Z+2, r24	; 0x02
    205c:	93 83       	std	Z+3, r25	; 0x03
	if((StartAddress <= 0x48) && (StopAddress >= 0x49))KeepRegisterTemp.LTC4[3] = __ltobf(KeepRegisterTemp.LTC4[3] );
    205e:	09 34       	cpi	r16, 0x49	; 73
    2060:	11 05       	cpc	r17, r1
    2062:	b0 f4       	brcc	.+44     	; 0x2090 <ModbusWriteSomeRegistor+0xb32>
    2064:	f9 e4       	ldi	r31, 0x49	; 73
    2066:	ef 16       	cp	r14, r31
    2068:	f1 04       	cpc	r15, r1
    206a:	90 f0       	brcs	.+36     	; 0x2090 <ModbusWriteSomeRegistor+0xb32>
    206c:	0f 2e       	mov	r0, r31
    206e:	f0 eb       	ldi	r31, 0xB0	; 176
    2070:	af 2e       	mov	r10, r31
    2072:	f4 e0       	ldi	r31, 0x04	; 4
    2074:	bf 2e       	mov	r11, r31
    2076:	f0 2d       	mov	r31, r0
    2078:	f5 01       	movw	r30, r10
    207a:	60 81       	ld	r22, Z
    207c:	71 81       	ldd	r23, Z+1	; 0x01
    207e:	82 81       	ldd	r24, Z+2	; 0x02
    2080:	93 81       	ldd	r25, Z+3	; 0x03
    2082:	0e 94 9a 03 	call	0x734	; 0x734 <__ltobf>
    2086:	f5 01       	movw	r30, r10
    2088:	60 83       	st	Z, r22
    208a:	71 83       	std	Z+1, r23	; 0x01
    208c:	82 83       	std	Z+2, r24	; 0x02
    208e:	93 83       	std	Z+3, r25	; 0x03
	if((StartAddress <= 0x4a) && (StopAddress >= 0x4b))KeepRegisterTemp.LTC4[4] = __ltobf(KeepRegisterTemp.LTC4[4] );
    2090:	0b 34       	cpi	r16, 0x4B	; 75
    2092:	11 05       	cpc	r17, r1
    2094:	b0 f4       	brcc	.+44     	; 0x20c2 <ModbusWriteSomeRegistor+0xb64>
    2096:	fb e4       	ldi	r31, 0x4B	; 75
    2098:	ef 16       	cp	r14, r31
    209a:	f1 04       	cpc	r15, r1
    209c:	90 f0       	brcs	.+36     	; 0x20c2 <ModbusWriteSomeRegistor+0xb64>
    209e:	0f 2e       	mov	r0, r31
    20a0:	f4 eb       	ldi	r31, 0xB4	; 180
    20a2:	af 2e       	mov	r10, r31
    20a4:	f4 e0       	ldi	r31, 0x04	; 4
    20a6:	bf 2e       	mov	r11, r31
    20a8:	f0 2d       	mov	r31, r0
    20aa:	f5 01       	movw	r30, r10
    20ac:	60 81       	ld	r22, Z
    20ae:	71 81       	ldd	r23, Z+1	; 0x01
    20b0:	82 81       	ldd	r24, Z+2	; 0x02
    20b2:	93 81       	ldd	r25, Z+3	; 0x03
    20b4:	0e 94 9a 03 	call	0x734	; 0x734 <__ltobf>
    20b8:	f5 01       	movw	r30, r10
    20ba:	60 83       	st	Z, r22
    20bc:	71 83       	std	Z+1, r23	; 0x01
    20be:	82 83       	std	Z+2, r24	; 0x02
    20c0:	93 83       	std	Z+3, r25	; 0x03
	
	if((StartAddress <= 0x4c) && (StopAddress >= 0x4d))KeepRegisterTemp.LTC5[0] = __ltobf(KeepRegisterTemp.LTC5[0] );
    20c2:	0d 34       	cpi	r16, 0x4D	; 77
    20c4:	11 05       	cpc	r17, r1
    20c6:	b0 f4       	brcc	.+44     	; 0x20f4 <ModbusWriteSomeRegistor+0xb96>
    20c8:	fd e4       	ldi	r31, 0x4D	; 77
    20ca:	ef 16       	cp	r14, r31
    20cc:	f1 04       	cpc	r15, r1
    20ce:	90 f0       	brcs	.+36     	; 0x20f4 <ModbusWriteSomeRegistor+0xb96>
    20d0:	0f 2e       	mov	r0, r31
    20d2:	f8 eb       	ldi	r31, 0xB8	; 184
    20d4:	af 2e       	mov	r10, r31
    20d6:	f4 e0       	ldi	r31, 0x04	; 4
    20d8:	bf 2e       	mov	r11, r31
    20da:	f0 2d       	mov	r31, r0
    20dc:	f5 01       	movw	r30, r10
    20de:	60 81       	ld	r22, Z
    20e0:	71 81       	ldd	r23, Z+1	; 0x01
    20e2:	82 81       	ldd	r24, Z+2	; 0x02
    20e4:	93 81       	ldd	r25, Z+3	; 0x03
    20e6:	0e 94 9a 03 	call	0x734	; 0x734 <__ltobf>
    20ea:	f5 01       	movw	r30, r10
    20ec:	60 83       	st	Z, r22
    20ee:	71 83       	std	Z+1, r23	; 0x01
    20f0:	82 83       	std	Z+2, r24	; 0x02
    20f2:	93 83       	std	Z+3, r25	; 0x03
	if((StartAddress <= 0x4e) && (StopAddress >= 0x4f))KeepRegisterTemp.LTC5[1] = __ltobf(KeepRegisterTemp.LTC5[1] );
    20f4:	0f 34       	cpi	r16, 0x4F	; 79
    20f6:	11 05       	cpc	r17, r1
    20f8:	b0 f4       	brcc	.+44     	; 0x2126 <ModbusWriteSomeRegistor+0xbc8>
    20fa:	ff e4       	ldi	r31, 0x4F	; 79
    20fc:	ef 16       	cp	r14, r31
    20fe:	f1 04       	cpc	r15, r1
    2100:	90 f0       	brcs	.+36     	; 0x2126 <ModbusWriteSomeRegistor+0xbc8>
    2102:	0f 2e       	mov	r0, r31
    2104:	fc eb       	ldi	r31, 0xBC	; 188
    2106:	af 2e       	mov	r10, r31
    2108:	f4 e0       	ldi	r31, 0x04	; 4
    210a:	bf 2e       	mov	r11, r31
    210c:	f0 2d       	mov	r31, r0
    210e:	f5 01       	movw	r30, r10
    2110:	60 81       	ld	r22, Z
    2112:	71 81       	ldd	r23, Z+1	; 0x01
    2114:	82 81       	ldd	r24, Z+2	; 0x02
    2116:	93 81       	ldd	r25, Z+3	; 0x03
    2118:	0e 94 9a 03 	call	0x734	; 0x734 <__ltobf>
    211c:	f5 01       	movw	r30, r10
    211e:	60 83       	st	Z, r22
    2120:	71 83       	std	Z+1, r23	; 0x01
    2122:	82 83       	std	Z+2, r24	; 0x02
    2124:	93 83       	std	Z+3, r25	; 0x03
	if((StartAddress <= 0x50) && (StopAddress >= 0x51))KeepRegisterTemp.LTC5[2] = __ltobf(KeepRegisterTemp.LTC5[2] );
    2126:	01 35       	cpi	r16, 0x51	; 81
    2128:	11 05       	cpc	r17, r1
    212a:	b0 f4       	brcc	.+44     	; 0x2158 <ModbusWriteSomeRegistor+0xbfa>
    212c:	f1 e5       	ldi	r31, 0x51	; 81
    212e:	ef 16       	cp	r14, r31
    2130:	f1 04       	cpc	r15, r1
    2132:	90 f0       	brcs	.+36     	; 0x2158 <ModbusWriteSomeRegistor+0xbfa>
    2134:	0f 2e       	mov	r0, r31
    2136:	f0 ec       	ldi	r31, 0xC0	; 192
    2138:	af 2e       	mov	r10, r31
    213a:	f4 e0       	ldi	r31, 0x04	; 4
    213c:	bf 2e       	mov	r11, r31
    213e:	f0 2d       	mov	r31, r0
    2140:	f5 01       	movw	r30, r10
    2142:	60 81       	ld	r22, Z
    2144:	71 81       	ldd	r23, Z+1	; 0x01
    2146:	82 81       	ldd	r24, Z+2	; 0x02
    2148:	93 81       	ldd	r25, Z+3	; 0x03
    214a:	0e 94 9a 03 	call	0x734	; 0x734 <__ltobf>
    214e:	f5 01       	movw	r30, r10
    2150:	60 83       	st	Z, r22
    2152:	71 83       	std	Z+1, r23	; 0x01
    2154:	82 83       	std	Z+2, r24	; 0x02
    2156:	93 83       	std	Z+3, r25	; 0x03
	if((StartAddress <= 0x52) && (StopAddress >= 0x53))KeepRegisterTemp.LTC5[3] = __ltobf(KeepRegisterTemp.LTC5[3] );
    2158:	03 35       	cpi	r16, 0x53	; 83
    215a:	11 05       	cpc	r17, r1
    215c:	b0 f4       	brcc	.+44     	; 0x218a <ModbusWriteSomeRegistor+0xc2c>
    215e:	f3 e5       	ldi	r31, 0x53	; 83
    2160:	ef 16       	cp	r14, r31
    2162:	f1 04       	cpc	r15, r1
    2164:	90 f0       	brcs	.+36     	; 0x218a <ModbusWriteSomeRegistor+0xc2c>
    2166:	0f 2e       	mov	r0, r31
    2168:	f4 ec       	ldi	r31, 0xC4	; 196
    216a:	af 2e       	mov	r10, r31
    216c:	f4 e0       	ldi	r31, 0x04	; 4
    216e:	bf 2e       	mov	r11, r31
    2170:	f0 2d       	mov	r31, r0
    2172:	f5 01       	movw	r30, r10
    2174:	60 81       	ld	r22, Z
    2176:	71 81       	ldd	r23, Z+1	; 0x01
    2178:	82 81       	ldd	r24, Z+2	; 0x02
    217a:	93 81       	ldd	r25, Z+3	; 0x03
    217c:	0e 94 9a 03 	call	0x734	; 0x734 <__ltobf>
    2180:	f5 01       	movw	r30, r10
    2182:	60 83       	st	Z, r22
    2184:	71 83       	std	Z+1, r23	; 0x01
    2186:	82 83       	std	Z+2, r24	; 0x02
    2188:	93 83       	std	Z+3, r25	; 0x03
	if((StartAddress <= 0x54) && (StopAddress >= 0x55))KeepRegisterTemp.LTC5[4] = __ltobf(KeepRegisterTemp.LTC5[4] );
    218a:	05 35       	cpi	r16, 0x55	; 85
    218c:	11 05       	cpc	r17, r1
    218e:	90 f4       	brcc	.+36     	; 0x21b4 <ModbusWriteSomeRegistor+0xc56>
    2190:	f5 e5       	ldi	r31, 0x55	; 85
    2192:	ef 16       	cp	r14, r31
    2194:	f1 04       	cpc	r15, r1
    2196:	70 f0       	brcs	.+28     	; 0x21b4 <ModbusWriteSomeRegistor+0xc56>
    2198:	08 ec       	ldi	r16, 0xC8	; 200
    219a:	14 e0       	ldi	r17, 0x04	; 4
    219c:	f8 01       	movw	r30, r16
    219e:	60 81       	ld	r22, Z
    21a0:	71 81       	ldd	r23, Z+1	; 0x01
    21a2:	82 81       	ldd	r24, Z+2	; 0x02
    21a4:	93 81       	ldd	r25, Z+3	; 0x03
    21a6:	0e 94 9a 03 	call	0x734	; 0x734 <__ltobf>
    21aa:	f8 01       	movw	r30, r16
    21ac:	60 83       	st	Z, r22
    21ae:	71 83       	std	Z+1, r23	; 0x01
    21b0:	82 83       	std	Z+2, r24	; 0x02
    21b2:	93 83       	std	Z+3, r25	; 0x03
	
	//判断数据有效性
	if((KeepRegisterTemp.DeviceAddress == 0) || (KeepRegisterTemp.DeviceAddress > 247))err = err_Re_VOR;	//地址数据超出范围,返回异常功能码,寄存器值超出范围
    21b4:	80 91 20 04 	lds	r24, 0x0420	; 0x800420 <KeepRegisterTemp>
    21b8:	90 91 21 04 	lds	r25, 0x0421	; 0x800421 <KeepRegisterTemp+0x1>
    21bc:	89 2b       	or	r24, r25
    21be:	61 f0       	breq	.+24     	; 0x21d8 <ModbusWriteSomeRegistor+0xc7a>
    21c0:	80 91 20 04 	lds	r24, 0x0420	; 0x800420 <KeepRegisterTemp>
    21c4:	90 91 21 04 	lds	r25, 0x0421	; 0x800421 <KeepRegisterTemp+0x1>
    21c8:	88 3f       	cpi	r24, 0xF8	; 248
    21ca:	91 05       	cpc	r25, r1
    21cc:	48 f0       	brcs	.+18     	; 0x21e0 <ModbusWriteSomeRegistor+0xc82>
    21ce:	0f 2e       	mov	r0, r31
    21d0:	f3 e0       	ldi	r31, 0x03	; 3
    21d2:	df 2e       	mov	r13, r31
    21d4:	f0 2d       	mov	r31, r0
    21d6:	04 c0       	rjmp	.+8      	; 0x21e0 <ModbusWriteSomeRegistor+0xc82>
    21d8:	0f 2e       	mov	r0, r31
    21da:	f3 e0       	ldi	r31, 0x03	; 3
    21dc:	df 2e       	mov	r13, r31
    21de:	f0 2d       	mov	r31, r0
	//if((KeepRegisterTemp.Reserve1and2< 0.5) || (KeepRegisterTemp.Reserve1and2 > 2.0))err = err_Re_VOR;
	if((KeepRegisterTemp.LocalAccelerationOfGravity< 9.78) || (KeepRegisterTemp.LocalAccelerationOfGravity > 10.0))err = err_Re_VOR;
    21e0:	60 91 30 04 	lds	r22, 0x0430	; 0x800430 <KeepRegisterTemp+0x10>
    21e4:	70 91 31 04 	lds	r23, 0x0431	; 0x800431 <KeepRegisterTemp+0x11>
    21e8:	80 91 32 04 	lds	r24, 0x0432	; 0x800432 <KeepRegisterTemp+0x12>
    21ec:	90 91 33 04 	lds	r25, 0x0433	; 0x800433 <KeepRegisterTemp+0x13>
    21f0:	21 ee       	ldi	r18, 0xE1	; 225
    21f2:	3a e7       	ldi	r19, 0x7A	; 122
    21f4:	4c e1       	ldi	r20, 0x1C	; 28
    21f6:	51 e4       	ldi	r21, 0x41	; 65
    21f8:	0e 94 67 23 	call	0x46ce	; 0x46ce <__cmpsf2>
    21fc:	88 23       	and	r24, r24
    21fe:	24 f1       	brlt	.+72     	; 0x2248 <ModbusWriteSomeRegistor+0xcea>
    2200:	60 91 30 04 	lds	r22, 0x0430	; 0x800430 <KeepRegisterTemp+0x10>
    2204:	70 91 31 04 	lds	r23, 0x0431	; 0x800431 <KeepRegisterTemp+0x11>
    2208:	80 91 32 04 	lds	r24, 0x0432	; 0x800432 <KeepRegisterTemp+0x12>
    220c:	90 91 33 04 	lds	r25, 0x0433	; 0x800433 <KeepRegisterTemp+0x13>
    2210:	20 e0       	ldi	r18, 0x00	; 0
    2212:	30 e0       	ldi	r19, 0x00	; 0
    2214:	40 e2       	ldi	r20, 0x20	; 32
    2216:	51 e4       	ldi	r21, 0x41	; 65
    2218:	0e 94 90 24 	call	0x4920	; 0x4920 <__gesf2>
    221c:	18 16       	cp	r1, r24
    221e:	cc f0       	brlt	.+50     	; 0x2252 <ModbusWriteSomeRegistor+0xcf4>
	if(!err)																						//如果无错误,则将缓存的数据拷贝到寄存器中
    2220:	d1 10       	cpse	r13, r1
    2222:	1b c0       	rjmp	.+54     	; 0x225a <ModbusWriteSomeRegistor+0xcfc>
	{
		memcpy((uint8_t *)&KeepRegister,(uint8_t *)&KeepRegisterTemp,sizeof(KeepRegister));
    2224:	8c ea       	ldi	r24, 0xAC	; 172
    2226:	e0 e2       	ldi	r30, 0x20	; 32
    2228:	f4 e0       	ldi	r31, 0x04	; 4
    222a:	a4 e7       	ldi	r26, 0x74	; 116
    222c:	b3 e0       	ldi	r27, 0x03	; 3
    222e:	01 90       	ld	r0, Z+
    2230:	0d 92       	st	X+, r0
    2232:	8a 95       	dec	r24
    2234:	e1 f7       	brne	.-8      	; 0x222e <ModbusWriteSomeRegistor+0xcd0>
		EEWrite(KREEPROM_BASEADDR,(void *)&KeepRegisterTemp,sizeof(KeepRegister));					//保存数据，更新整个寄存器组
    2236:	4c ea       	ldi	r20, 0xAC	; 172
    2238:	50 e0       	ldi	r21, 0x00	; 0
    223a:	60 e2       	ldi	r22, 0x20	; 32
    223c:	74 e0       	ldi	r23, 0x04	; 4
    223e:	80 e4       	ldi	r24, 0x40	; 64
    2240:	90 e0       	ldi	r25, 0x00	; 0
    2242:	0e 94 5d 02 	call	0x4ba	; 0x4ba <EEWrite>
    2246:	12 c0       	rjmp	.+36     	; 0x226c <ModbusWriteSomeRegistor+0xd0e>
    2248:	0f 2e       	mov	r0, r31
    224a:	f3 e0       	ldi	r31, 0x03	; 3
    224c:	df 2e       	mov	r13, r31
    224e:	f0 2d       	mov	r31, r0
    2250:	04 c0       	rjmp	.+8      	; 0x225a <ModbusWriteSomeRegistor+0xcfc>
    2252:	0f 2e       	mov	r0, r31
    2254:	f3 e0       	ldi	r31, 0x03	; 3
    2256:	df 2e       	mov	r13, r31
    2258:	f0 2d       	mov	r31, r0
	}
	else if(ModbusDataPackage.dat[0])//如果数据范围错误
    225a:	80 91 34 02 	lds	r24, 0x0234	; 0x800234 <ModbusDataPackage+0x2>
    225e:	88 23       	and	r24, r24
    2260:	29 f0       	breq	.+10     	; 0x226c <ModbusWriteSomeRegistor+0xd0e>
	{
		ModbusReturnAckInfo(err);	 //向485返回异常码信息
    2262:	8d 2d       	mov	r24, r13
    2264:	0e 94 63 05 	call	0xac6	; 0xac6 <ModbusReturnAckInfo>
		return ERROR;
    2268:	80 e0       	ldi	r24, 0x00	; 0
    226a:	38 c0       	rjmp	.+112    	; 0x22dc <ModbusWriteSomeRegistor+0xd7e>
	}
	
	//指令返回
	temp[0] = KeepRegister.DeviceAddress;					//赋值设备地址
    226c:	80 91 74 03 	lds	r24, 0x0374	; 0x800374 <KeepRegister>
    2270:	90 91 75 03 	lds	r25, 0x0375	; 0x800375 <KeepRegister+0x1>
    2274:	89 83       	std	Y+1, r24	; 0x01
	temp[1] = ModbusDataPackage.dat[1];						//赋值功能码
    2276:	02 e3       	ldi	r16, 0x32	; 50
    2278:	12 e0       	ldi	r17, 0x02	; 2
    227a:	f8 01       	movw	r30, r16
    227c:	83 81       	ldd	r24, Z+3	; 0x03
    227e:	8a 83       	std	Y+2, r24	; 0x02
	memcpy(&temp[2],(uint8_t *)&ModbusDataPackage.dat[2],4);//赋值寄存器地址和数量,共4字节
    2280:	e6 e3       	ldi	r30, 0x36	; 54
    2282:	f2 e0       	ldi	r31, 0x02	; 2
    2284:	80 81       	ld	r24, Z
    2286:	91 81       	ldd	r25, Z+1	; 0x01
    2288:	9c 83       	std	Y+4, r25	; 0x04
    228a:	8b 83       	std	Y+3, r24	; 0x03
    228c:	82 81       	ldd	r24, Z+2	; 0x02
    228e:	93 81       	ldd	r25, Z+3	; 0x03
    2290:	9e 83       	std	Y+6, r25	; 0x06
    2292:	8d 83       	std	Y+5, r24	; 0x05
	//校验
	crc = CRC16_Check(temp,6);								//crc校验
    2294:	66 e0       	ldi	r22, 0x06	; 6
    2296:	ce 01       	movw	r24, r28
    2298:	01 96       	adiw	r24, 0x01	; 1
    229a:	0e 94 3f 05 	call	0xa7e	; 0xa7e <CRC16_Check>
	temp[6] = crc & 0xff;									//crc低位在前
    229e:	8f 83       	std	Y+7, r24	; 0x07
	temp[7] = crc >> 8;										//高位在后
    22a0:	98 87       	std	Y+8, r25	; 0x08
	if(ModbusDataPackage.dat[0]) U485SendData(temp,8);		//发送数据
    22a2:	f8 01       	movw	r30, r16
    22a4:	82 81       	ldd	r24, Z+2	; 0x02
    22a6:	88 23       	and	r24, r24
    22a8:	91 f0       	breq	.+36     	; 0x22ce <ModbusWriteSomeRegistor+0xd70>
    22aa:	5a 9a       	sbi	0x0b, 2	; 11
    22ac:	81 e0       	ldi	r24, 0x01	; 1
    22ae:	90 e0       	ldi	r25, 0x00	; 0
    22b0:	0e 94 a1 03 	call	0x742	; 0x742 <Delay_ms>
    22b4:	68 e0       	ldi	r22, 0x08	; 8
    22b6:	70 e0       	ldi	r23, 0x00	; 0
    22b8:	ce 01       	movw	r24, r28
    22ba:	01 96       	adiw	r24, 0x01	; 1
    22bc:	0e 94 5c 22 	call	0x44b8	; 0x44b8 <USART0_PutData>
    22c0:	8a e0       	ldi	r24, 0x0A	; 10
    22c2:	90 e0       	ldi	r25, 0x00	; 0
    22c4:	0e 94 a1 03 	call	0x742	; 0x742 <Delay_ms>
    22c8:	5a 98       	cbi	0x0b, 2	; 11
	
	return SUCCESS;
    22ca:	81 e0       	ldi	r24, 0x01	; 1
    22cc:	07 c0       	rjmp	.+14     	; 0x22dc <ModbusWriteSomeRegistor+0xd7e>
    22ce:	81 e0       	ldi	r24, 0x01	; 1
    22d0:	05 c0       	rjmp	.+10     	; 0x22dc <ModbusWriteSomeRegistor+0xd7e>
	
	if(StopAddress > 0x09)flag=1;		//判定操作危险寄存器标志位
	if(StartAddress > 0x09)flag=1;		//判定操作危险寄存器标志位
	
	
	if( (SuperMode_Flag==0) && (flag==1) )err=err_mode;		//如果是普通模式，同时操作到危险寄存器，则返回错误
    22d2:	20 91 22 01 	lds	r18, 0x0122	; 0x800122 <__data_end>
    22d6:	21 11       	cpse	r18, r1
    22d8:	fc ca       	rjmp	.-2568   	; 0x18d2 <ModbusWriteSomeRegistor+0x374>
    22da:	03 cb       	rjmp	.-2554   	; 0x18e2 <ModbusWriteSomeRegistor+0x384>
	temp[6] = crc & 0xff;									//crc低位在前
	temp[7] = crc >> 8;										//高位在后
	if(ModbusDataPackage.dat[0]) U485SendData(temp,8);		//发送数据
	
	return SUCCESS;
}
    22dc:	2a 96       	adiw	r28, 0x0a	; 10
    22de:	0f b6       	in	r0, 0x3f	; 63
    22e0:	f8 94       	cli
    22e2:	de bf       	out	0x3e, r29	; 62
    22e4:	0f be       	out	0x3f, r0	; 63
    22e6:	cd bf       	out	0x3d, r28	; 61
    22e8:	df 91       	pop	r29
    22ea:	cf 91       	pop	r28
    22ec:	1f 91       	pop	r17
    22ee:	0f 91       	pop	r16
    22f0:	ff 90       	pop	r15
    22f2:	ef 90       	pop	r14
    22f4:	df 90       	pop	r13
    22f6:	bf 90       	pop	r11
    22f8:	af 90       	pop	r10
    22fa:	08 95       	ret

000022fc <Level_height_conversion>:


float Level_height_conversion()
{
    22fc:	2f 92       	push	r2
    22fe:	3f 92       	push	r3
    2300:	4f 92       	push	r4
    2302:	5f 92       	push	r5
    2304:	6f 92       	push	r6
    2306:	7f 92       	push	r7
    2308:	8f 92       	push	r8
    230a:	9f 92       	push	r9
    230c:	af 92       	push	r10
    230e:	bf 92       	push	r11
    2310:	cf 92       	push	r12
    2312:	df 92       	push	r13
    2314:	ef 92       	push	r14
    2316:	ff 92       	push	r15
    2318:	0f 93       	push	r16
    231a:	1f 93       	push	r17
    231c:	cf 93       	push	r28
    231e:	df 93       	push	r29
    2320:	cd b7       	in	r28, 0x3d	; 61
    2322:	de b7       	in	r29, 0x3e	; 62
    2324:	c4 5d       	subi	r28, 0xD4	; 212
    2326:	d1 09       	sbc	r29, r1
    2328:	0f b6       	in	r0, 0x3f	; 63
    232a:	f8 94       	cli
    232c:	de bf       	out	0x3e, r29	; 62
    232e:	0f be       	out	0x3f, r0	; 63
    2330:	cd bf       	out	0x3d, r28	; 61
	unsigned char i;
	float SV[6]={0};
    2332:	88 e1       	ldi	r24, 0x18	; 24
    2334:	fe 01       	movw	r30, r28
    2336:	31 96       	adiw	r30, 0x01	; 1
    2338:	df 01       	movw	r26, r30
    233a:	28 2f       	mov	r18, r24
    233c:	1d 92       	st	X+, r1
    233e:	2a 95       	dec	r18
    2340:	e9 f7       	brne	.-6      	; 0x233c <Level_height_conversion+0x40>
	float SV_m[6]={0};
    2342:	78 96       	adiw	r30, 0x18	; 24
    2344:	df 01       	movw	r26, r30
    2346:	28 2f       	mov	r18, r24
    2348:	1d 92       	st	X+, r1
    234a:	2a 95       	dec	r18
    234c:	e9 f7       	brne	.-6      	; 0x2348 <Level_height_conversion+0x4c>
	float OriginaAltitudeTemp=0,PA=0,ADCValue=0;
	double T_d=0;
	double P0[5],P1[5],P2[5],P3[5],P4[5],P5[5];
	double TEMP_Cor_VAL[6]={0};
    234e:	e0 57       	subi	r30, 0x70	; 112
    2350:	ff 4f       	sbci	r31, 0xFF	; 255
    2352:	df 01       	movw	r26, r30
    2354:	1d 92       	st	X+, r1
    2356:	8a 95       	dec	r24
    2358:	e9 f7       	brne	.-6      	; 0x2354 <Level_height_conversion+0x58>
	double Cor_result=0;
	double Liquid_D=0;
	double LD_V[4]={0};
		
	T_d=InputRegister.Temperature;  //获取当前温度
    235a:	80 91 44 03 	lds	r24, 0x0344	; 0x800344 <InputRegister+0x10>
    235e:	90 91 45 03 	lds	r25, 0x0345	; 0x800345 <InputRegister+0x11>
    2362:	a0 91 46 03 	lds	r26, 0x0346	; 0x800346 <InputRegister+0x12>
    2366:	b0 91 47 03 	lds	r27, 0x0347	; 0x800347 <InputRegister+0x13>
    236a:	cf 53       	subi	r28, 0x3F	; 63
    236c:	df 4f       	sbci	r29, 0xFF	; 255
    236e:	88 83       	st	Y, r24
    2370:	99 83       	std	Y+1, r25	; 0x01
    2372:	aa 83       	std	Y+2, r26	; 0x02
    2374:	bb 83       	std	Y+3, r27	; 0x03
    2376:	c1 5c       	subi	r28, 0xC1	; 193
    2378:	d0 40       	sbci	r29, 0x00	; 0
//  	else if((KeepRegister.Liquid_Sec&0x0F00) == 0x0500) {LD_V[0] = -0.00000002093;  LD_V[1] = -0.0000001951; LD_V[2] = -0.0004336; LD_V[3] = 1.09;  }       //壳牌OAT -45℃
//  	
// 	Liquid_D=LD_V[0]*T_d*T_d*T_d + LD_V[1]*T_d*T_d + LD_V[2]*T_d + LD_V[3];  //计算液体密度 
	
	//判断液体类型
	if((KeepRegister.Liquid_Sec&0x0F00) == 0x0100)       Liquid_D = 1;       //纯净水
    237a:	80 91 82 03 	lds	r24, 0x0382	; 0x800382 <KeepRegister+0xe>
    237e:	90 91 83 03 	lds	r25, 0x0383	; 0x800383 <KeepRegister+0xf>
    2382:	88 27       	eor	r24, r24
    2384:	9f 70       	andi	r25, 0x0F	; 15
    2386:	81 15       	cp	r24, r1
    2388:	91 40       	sbci	r25, 0x01	; 1
    238a:	91 f1       	breq	.+100    	; 0x23f0 <Level_height_conversion+0xf4>
	else if((KeepRegister.Liquid_Sec&0x0F00) == 0x0200)  Liquid_D = 1.075;       //长城FD-1型 -25℃防冻液
    238c:	80 91 82 03 	lds	r24, 0x0382	; 0x800382 <KeepRegister+0xe>
    2390:	90 91 83 03 	lds	r25, 0x0383	; 0x800383 <KeepRegister+0xf>
    2394:	88 27       	eor	r24, r24
    2396:	9f 70       	andi	r25, 0x0F	; 15
    2398:	81 15       	cp	r24, r1
    239a:	92 40       	sbci	r25, 0x02	; 2
    239c:	b1 f1       	breq	.+108    	; 0x240a <Level_height_conversion+0x10e>
	else if((KeepRegister.Liquid_Sec&0x0F00) == 0x0300)  Liquid_D = 1.096;        //长城YF-2A型 -45℃防冻液
    239e:	80 91 82 03 	lds	r24, 0x0382	; 0x800382 <KeepRegister+0xe>
    23a2:	90 91 83 03 	lds	r25, 0x0383	; 0x800383 <KeepRegister+0xf>
    23a6:	88 27       	eor	r24, r24
    23a8:	9f 70       	andi	r25, 0x0F	; 15
    23aa:	81 15       	cp	r24, r1
    23ac:	93 40       	sbci	r25, 0x03	; 3
    23ae:	d1 f1       	breq	.+116    	; 0x2424 <Level_height_conversion+0x128>
	else if((KeepRegister.Liquid_Sec&0x0F00) == 0x0400)  Liquid_D = 1.078;       //壳牌OAT -30℃防冻液
    23b0:	80 91 82 03 	lds	r24, 0x0382	; 0x800382 <KeepRegister+0xe>
    23b4:	90 91 83 03 	lds	r25, 0x0383	; 0x800383 <KeepRegister+0xf>
    23b8:	88 27       	eor	r24, r24
    23ba:	9f 70       	andi	r25, 0x0F	; 15
    23bc:	81 15       	cp	r24, r1
    23be:	94 40       	sbci	r25, 0x04	; 4
    23c0:	f1 f1       	breq	.+124    	; 0x243e <Level_height_conversion+0x142>
	else if((KeepRegister.Liquid_Sec&0x0F00) == 0x0500)  Liquid_D = 1.09;         //壳牌OAT -45℃
    23c2:	80 91 82 03 	lds	r24, 0x0382	; 0x800382 <KeepRegister+0xe>
    23c6:	90 91 83 03 	lds	r25, 0x0383	; 0x800383 <KeepRegister+0xf>
    23ca:	88 27       	eor	r24, r24
    23cc:	9f 70       	andi	r25, 0x0F	; 15
    23ce:	81 15       	cp	r24, r1
    23d0:	95 40       	sbci	r25, 0x05	; 5
    23d2:	09 f0       	breq	.+2      	; 0x23d6 <Level_height_conversion+0xda>
    23d4:	41 c0       	rjmp	.+130    	; 0x2458 <Level_height_conversion+0x15c>
    23d6:	8f e1       	ldi	r24, 0x1F	; 31
    23d8:	95 e8       	ldi	r25, 0x85	; 133
    23da:	ab e8       	ldi	r26, 0x8B	; 139
    23dc:	bf e3       	ldi	r27, 0x3F	; 63
    23de:	cb 53       	subi	r28, 0x3B	; 59
    23e0:	df 4f       	sbci	r29, 0xFF	; 255
    23e2:	88 83       	st	Y, r24
    23e4:	99 83       	std	Y+1, r25	; 0x01
    23e6:	aa 83       	std	Y+2, r26	; 0x02
    23e8:	bb 83       	std	Y+3, r27	; 0x03
    23ea:	c5 5c       	subi	r28, 0xC5	; 197
    23ec:	d0 40       	sbci	r29, 0x00	; 0
    23ee:	3c c0       	rjmp	.+120    	; 0x2468 <Level_height_conversion+0x16c>
//  	else if((KeepRegister.Liquid_Sec&0x0F00) == 0x0500) {LD_V[0] = -0.00000002093;  LD_V[1] = -0.0000001951; LD_V[2] = -0.0004336; LD_V[3] = 1.09;  }       //壳牌OAT -45℃
//  	
// 	Liquid_D=LD_V[0]*T_d*T_d*T_d + LD_V[1]*T_d*T_d + LD_V[2]*T_d + LD_V[3];  //计算液体密度 
	
	//判断液体类型
	if((KeepRegister.Liquid_Sec&0x0F00) == 0x0100)       Liquid_D = 1;       //纯净水
    23f0:	80 e0       	ldi	r24, 0x00	; 0
    23f2:	90 e0       	ldi	r25, 0x00	; 0
    23f4:	a0 e8       	ldi	r26, 0x80	; 128
    23f6:	bf e3       	ldi	r27, 0x3F	; 63
    23f8:	cb 53       	subi	r28, 0x3B	; 59
    23fa:	df 4f       	sbci	r29, 0xFF	; 255
    23fc:	88 83       	st	Y, r24
    23fe:	99 83       	std	Y+1, r25	; 0x01
    2400:	aa 83       	std	Y+2, r26	; 0x02
    2402:	bb 83       	std	Y+3, r27	; 0x03
    2404:	c5 5c       	subi	r28, 0xC5	; 197
    2406:	d0 40       	sbci	r29, 0x00	; 0
    2408:	2f c0       	rjmp	.+94     	; 0x2468 <Level_height_conversion+0x16c>
	else if((KeepRegister.Liquid_Sec&0x0F00) == 0x0200)  Liquid_D = 1.075;       //长城FD-1型 -25℃防冻液
    240a:	8a e9       	ldi	r24, 0x9A	; 154
    240c:	99 e9       	ldi	r25, 0x99	; 153
    240e:	a9 e8       	ldi	r26, 0x89	; 137
    2410:	bf e3       	ldi	r27, 0x3F	; 63
    2412:	cb 53       	subi	r28, 0x3B	; 59
    2414:	df 4f       	sbci	r29, 0xFF	; 255
    2416:	88 83       	st	Y, r24
    2418:	99 83       	std	Y+1, r25	; 0x01
    241a:	aa 83       	std	Y+2, r26	; 0x02
    241c:	bb 83       	std	Y+3, r27	; 0x03
    241e:	c5 5c       	subi	r28, 0xC5	; 197
    2420:	d0 40       	sbci	r29, 0x00	; 0
    2422:	22 c0       	rjmp	.+68     	; 0x2468 <Level_height_conversion+0x16c>
	else if((KeepRegister.Liquid_Sec&0x0F00) == 0x0300)  Liquid_D = 1.096;        //长城YF-2A型 -45℃防冻液
    2424:	8a eb       	ldi	r24, 0xBA	; 186
    2426:	99 e4       	ldi	r25, 0x49	; 73
    2428:	ac e8       	ldi	r26, 0x8C	; 140
    242a:	bf e3       	ldi	r27, 0x3F	; 63
    242c:	cb 53       	subi	r28, 0x3B	; 59
    242e:	df 4f       	sbci	r29, 0xFF	; 255
    2430:	88 83       	st	Y, r24
    2432:	99 83       	std	Y+1, r25	; 0x01
    2434:	aa 83       	std	Y+2, r26	; 0x02
    2436:	bb 83       	std	Y+3, r27	; 0x03
    2438:	c5 5c       	subi	r28, 0xC5	; 197
    243a:	d0 40       	sbci	r29, 0x00	; 0
    243c:	15 c0       	rjmp	.+42     	; 0x2468 <Level_height_conversion+0x16c>
	else if((KeepRegister.Liquid_Sec&0x0F00) == 0x0400)  Liquid_D = 1.078;       //壳牌OAT -30℃防冻液
    243e:	87 ee       	ldi	r24, 0xE7	; 231
    2440:	9b ef       	ldi	r25, 0xFB	; 251
    2442:	a9 e8       	ldi	r26, 0x89	; 137
    2444:	bf e3       	ldi	r27, 0x3F	; 63
    2446:	cb 53       	subi	r28, 0x3B	; 59
    2448:	df 4f       	sbci	r29, 0xFF	; 255
    244a:	88 83       	st	Y, r24
    244c:	99 83       	std	Y+1, r25	; 0x01
    244e:	aa 83       	std	Y+2, r26	; 0x02
    2450:	bb 83       	std	Y+3, r27	; 0x03
    2452:	c5 5c       	subi	r28, 0xC5	; 197
    2454:	d0 40       	sbci	r29, 0x00	; 0
    2456:	08 c0       	rjmp	.+16     	; 0x2468 <Level_height_conversion+0x16c>
	float OriginaAltitudeTemp=0,PA=0,ADCValue=0;
	double T_d=0;
	double P0[5],P1[5],P2[5],P3[5],P4[5],P5[5];
	double TEMP_Cor_VAL[6]={0};
	double Cor_result=0;
	double Liquid_D=0;
    2458:	cb 53       	subi	r28, 0x3B	; 59
    245a:	df 4f       	sbci	r29, 0xFF	; 255
    245c:	18 82       	st	Y, r1
    245e:	19 82       	std	Y+1, r1	; 0x01
    2460:	1a 82       	std	Y+2, r1	; 0x02
    2462:	1b 82       	std	Y+3, r1	; 0x03
    2464:	c5 5c       	subi	r28, 0xC5	; 197
    2466:	d0 40       	sbci	r29, 0x00	; 0
    2468:	de 01       	movw	r26, r28
    246a:	11 96       	adiw	r26, 0x01	; 1
    246c:	1d 01       	movw	r2, r26
	//判断液体类型
	if((KeepRegister.Liquid_Sec&0x0F00) == 0x0100)       Liquid_D = 1;       //纯净水
	else if((KeepRegister.Liquid_Sec&0x0F00) == 0x0200)  Liquid_D = 1.075;       //长城FD-1型 -25℃防冻液
	else if((KeepRegister.Liquid_Sec&0x0F00) == 0x0300)  Liquid_D = 1.096;        //长城YF-2A型 -45℃防冻液
	else if((KeepRegister.Liquid_Sec&0x0F00) == 0x0400)  Liquid_D = 1.078;       //壳牌OAT -30℃防冻液
	else if((KeepRegister.Liquid_Sec&0x0F00) == 0x0500)  Liquid_D = 1.09;         //壳牌OAT -45℃
    246e:	6d 01       	movw	r12, r26
    2470:	00 e0       	ldi	r16, 0x00	; 0
    2472:	10 e0       	ldi	r17, 0x00	; 0
	
	/************************************************************************
	**多阶线性校准                                                           
	************************************************************************/
	for(i=0;i<6;i++) SV[i]= i*(float)KeepRegister.Sensor_Range*1000/5;       //计算五阶校准标准点
    2474:	0f 2e       	mov	r0, r31
    2476:	f4 e7       	ldi	r31, 0x74	; 116
    2478:	af 2e       	mov	r10, r31
    247a:	f3 e0       	ldi	r31, 0x03	; 3
    247c:	bf 2e       	mov	r11, r31
    247e:	f0 2d       	mov	r31, r0
    2480:	f5 01       	movw	r30, r10
    2482:	e4 84       	ldd	r14, Z+12	; 0x0c
    2484:	f5 84       	ldd	r15, Z+13	; 0x0d
    2486:	b8 01       	movw	r22, r16
    2488:	01 2e       	mov	r0, r17
    248a:	00 0c       	add	r0, r0
    248c:	88 0b       	sbc	r24, r24
    248e:	99 0b       	sbc	r25, r25
    2490:	0e 94 e0 23 	call	0x47c0	; 0x47c0 <__floatsisf>
    2494:	2b 01       	movw	r4, r22
    2496:	3c 01       	movw	r6, r24
    2498:	b7 01       	movw	r22, r14
    249a:	80 e0       	ldi	r24, 0x00	; 0
    249c:	90 e0       	ldi	r25, 0x00	; 0
    249e:	0e 94 de 23 	call	0x47bc	; 0x47bc <__floatunsisf>
    24a2:	9b 01       	movw	r18, r22
    24a4:	ac 01       	movw	r20, r24
    24a6:	c3 01       	movw	r24, r6
    24a8:	b2 01       	movw	r22, r4
    24aa:	0e 94 95 24 	call	0x492a	; 0x492a <__mulsf3>
    24ae:	20 e0       	ldi	r18, 0x00	; 0
    24b0:	30 e0       	ldi	r19, 0x00	; 0
    24b2:	4a e7       	ldi	r20, 0x7A	; 122
    24b4:	54 e4       	ldi	r21, 0x44	; 68
    24b6:	0e 94 95 24 	call	0x492a	; 0x492a <__mulsf3>
    24ba:	20 e0       	ldi	r18, 0x00	; 0
    24bc:	30 e0       	ldi	r19, 0x00	; 0
    24be:	40 ea       	ldi	r20, 0xA0	; 160
    24c0:	50 e4       	ldi	r21, 0x40	; 64
    24c2:	0e 94 6c 23 	call	0x46d8	; 0x46d8 <__divsf3>
    24c6:	d6 01       	movw	r26, r12
    24c8:	6d 93       	st	X+, r22
    24ca:	7d 93       	st	X+, r23
    24cc:	8d 93       	st	X+, r24
    24ce:	9d 93       	st	X+, r25
    24d0:	6d 01       	movw	r12, r26
    24d2:	0f 5f       	subi	r16, 0xFF	; 255
    24d4:	1f 4f       	sbci	r17, 0xFF	; 255
    24d6:	06 30       	cpi	r16, 0x06	; 6
    24d8:	11 05       	cpc	r17, r1
    24da:	91 f6       	brne	.-92     	; 0x2480 <Level_height_conversion+0x184>
    24dc:	0c 94 e3 1a 	jmp	0x35c6	; 0x35c6 <Level_height_conversion+0x12ca>
	
	for(i=0;i<1;i++) ADCValue += ADCSmaple();	                             //采样
	ADCValue=ADCValue/1;
	
	//传感器五阶校准，同时将电信号（mV）转换为压力信号（Pa）
	if     (ADCValue < KeepRegister.MV[1]){PA=(ADCValue-KeepRegister.MV[0])*(SV[1]-SV[0])/(KeepRegister.MV[1]-KeepRegister.MV[0])+SV[0];}
    24e0:	e4 e7       	ldi	r30, 0x74	; 116
    24e2:	f3 e0       	ldi	r31, 0x03	; 3
    24e4:	80 8d       	ldd	r24, Z+24	; 0x18
    24e6:	91 8d       	ldd	r25, Z+25	; 0x19
    24e8:	a2 8d       	ldd	r26, Z+26	; 0x1a
    24ea:	b3 8d       	ldd	r27, Z+27	; 0x1b
    24ec:	c7 53       	subi	r28, 0x37	; 55
    24ee:	df 4f       	sbci	r29, 0xFF	; 255
    24f0:	88 83       	st	Y, r24
    24f2:	99 83       	std	Y+1, r25	; 0x01
    24f4:	aa 83       	std	Y+2, r26	; 0x02
    24f6:	bb 83       	std	Y+3, r27	; 0x03
    24f8:	c9 5c       	subi	r28, 0xC9	; 201
    24fa:	d0 40       	sbci	r29, 0x00	; 0
    24fc:	c9 80       	ldd	r12, Y+1	; 0x01
    24fe:	da 80       	ldd	r13, Y+2	; 0x02
    2500:	eb 80       	ldd	r14, Y+3	; 0x03
    2502:	fc 80       	ldd	r15, Y+4	; 0x04
    2504:	84 8c       	ldd	r8, Z+28	; 0x1c
    2506:	95 8c       	ldd	r9, Z+29	; 0x1d
    2508:	a6 8c       	ldd	r10, Z+30	; 0x1e
    250a:	b7 8c       	ldd	r11, Z+31	; 0x1f
    250c:	80 8d       	ldd	r24, Z+24	; 0x18
    250e:	91 8d       	ldd	r25, Z+25	; 0x19
    2510:	a2 8d       	ldd	r26, Z+26	; 0x1a
    2512:	b3 8d       	ldd	r27, Z+27	; 0x1b
    2514:	c3 53       	subi	r28, 0x33	; 51
    2516:	df 4f       	sbci	r29, 0xFF	; 255
    2518:	88 83       	st	Y, r24
    251a:	99 83       	std	Y+1, r25	; 0x01
    251c:	aa 83       	std	Y+2, r26	; 0x02
    251e:	bb 83       	std	Y+3, r27	; 0x03
    2520:	cd 5c       	subi	r28, 0xCD	; 205
    2522:	d0 40       	sbci	r29, 0x00	; 0
    2524:	a7 01       	movw	r20, r14
    2526:	96 01       	movw	r18, r12
    2528:	6d 81       	ldd	r22, Y+5	; 0x05
    252a:	7e 81       	ldd	r23, Y+6	; 0x06
    252c:	8f 81       	ldd	r24, Y+7	; 0x07
    252e:	98 85       	ldd	r25, Y+8	; 0x08
    2530:	0e 94 fa 22 	call	0x45f4	; 0x45f4 <__subsf3>
    2534:	cf 52       	subi	r28, 0x2F	; 47
    2536:	df 4f       	sbci	r29, 0xFF	; 255
    2538:	68 83       	st	Y, r22
    253a:	79 83       	std	Y+1, r23	; 0x01
    253c:	8a 83       	std	Y+2, r24	; 0x02
    253e:	9b 83       	std	Y+3, r25	; 0x03
    2540:	c1 5d       	subi	r28, 0xD1	; 209
    2542:	d0 40       	sbci	r29, 0x00	; 0
    2544:	c7 53       	subi	r28, 0x37	; 55
    2546:	df 4f       	sbci	r29, 0xFF	; 255
    2548:	28 81       	ld	r18, Y
    254a:	39 81       	ldd	r19, Y+1	; 0x01
    254c:	4a 81       	ldd	r20, Y+2	; 0x02
    254e:	5b 81       	ldd	r21, Y+3	; 0x03
    2550:	c9 5c       	subi	r28, 0xC9	; 201
    2552:	d0 40       	sbci	r29, 0x00	; 0
    2554:	c3 01       	movw	r24, r6
    2556:	b2 01       	movw	r22, r4
    2558:	0e 94 fa 22 	call	0x45f4	; 0x45f4 <__subsf3>
    255c:	9b 01       	movw	r18, r22
    255e:	ac 01       	movw	r20, r24
    2560:	cf 52       	subi	r28, 0x2F	; 47
    2562:	df 4f       	sbci	r29, 0xFF	; 255
    2564:	68 81       	ld	r22, Y
    2566:	79 81       	ldd	r23, Y+1	; 0x01
    2568:	8a 81       	ldd	r24, Y+2	; 0x02
    256a:	9b 81       	ldd	r25, Y+3	; 0x03
    256c:	c1 5d       	subi	r28, 0xD1	; 209
    256e:	d0 40       	sbci	r29, 0x00	; 0
    2570:	0e 94 95 24 	call	0x492a	; 0x492a <__mulsf3>
    2574:	c7 53       	subi	r28, 0x37	; 55
    2576:	df 4f       	sbci	r29, 0xFF	; 255
    2578:	68 83       	st	Y, r22
    257a:	79 83       	std	Y+1, r23	; 0x01
    257c:	8a 83       	std	Y+2, r24	; 0x02
    257e:	9b 83       	std	Y+3, r25	; 0x03
    2580:	c9 5c       	subi	r28, 0xC9	; 201
    2582:	d0 40       	sbci	r29, 0x00	; 0
    2584:	c3 53       	subi	r28, 0x33	; 51
    2586:	df 4f       	sbci	r29, 0xFF	; 255
    2588:	28 81       	ld	r18, Y
    258a:	39 81       	ldd	r19, Y+1	; 0x01
    258c:	4a 81       	ldd	r20, Y+2	; 0x02
    258e:	5b 81       	ldd	r21, Y+3	; 0x03
    2590:	cd 5c       	subi	r28, 0xCD	; 205
    2592:	d0 40       	sbci	r29, 0x00	; 0
    2594:	c5 01       	movw	r24, r10
    2596:	b4 01       	movw	r22, r8
    2598:	0e 94 fa 22 	call	0x45f4	; 0x45f4 <__subsf3>
    259c:	9b 01       	movw	r18, r22
    259e:	ac 01       	movw	r20, r24
    25a0:	c7 53       	subi	r28, 0x37	; 55
    25a2:	df 4f       	sbci	r29, 0xFF	; 255
    25a4:	68 81       	ld	r22, Y
    25a6:	79 81       	ldd	r23, Y+1	; 0x01
    25a8:	8a 81       	ldd	r24, Y+2	; 0x02
    25aa:	9b 81       	ldd	r25, Y+3	; 0x03
    25ac:	c9 5c       	subi	r28, 0xC9	; 201
    25ae:	d0 40       	sbci	r29, 0x00	; 0
    25b0:	0e 94 6c 23 	call	0x46d8	; 0x46d8 <__divsf3>
    25b4:	a7 01       	movw	r20, r14
    25b6:	96 01       	movw	r18, r12
    25b8:	0e 94 fb 22 	call	0x45f6	; 0x45f6 <__addsf3>
    25bc:	c7 53       	subi	r28, 0x37	; 55
    25be:	df 4f       	sbci	r29, 0xFF	; 255
    25c0:	68 83       	st	Y, r22
    25c2:	79 83       	std	Y+1, r23	; 0x01
    25c4:	8a 83       	std	Y+2, r24	; 0x02
    25c6:	9b 83       	std	Y+3, r25	; 0x03
    25c8:	c9 5c       	subi	r28, 0xC9	; 201
    25ca:	d0 40       	sbci	r29, 0x00	; 0
    25cc:	d8 c1       	rjmp	.+944    	; 0x297e <Level_height_conversion+0x682>
	else if(ADCValue < KeepRegister.MV[2]){PA=(ADCValue-KeepRegister.MV[1])*(SV[2]-SV[1])/(KeepRegister.MV[2]-KeepRegister.MV[1])+SV[1];}
    25ce:	60 91 94 03 	lds	r22, 0x0394	; 0x800394 <KeepRegister+0x20>
    25d2:	70 91 95 03 	lds	r23, 0x0395	; 0x800395 <KeepRegister+0x21>
    25d6:	80 91 96 03 	lds	r24, 0x0396	; 0x800396 <KeepRegister+0x22>
    25da:	90 91 97 03 	lds	r25, 0x0397	; 0x800397 <KeepRegister+0x23>
    25de:	a3 01       	movw	r20, r6
    25e0:	92 01       	movw	r18, r4
    25e2:	0e 94 90 24 	call	0x4920	; 0x4920 <__gesf2>
    25e6:	18 16       	cp	r1, r24
    25e8:	0c f0       	brlt	.+2      	; 0x25ec <Level_height_conversion+0x2f0>
    25ea:	6b c0       	rjmp	.+214    	; 0x26c2 <Level_height_conversion+0x3c6>
    25ec:	e4 e7       	ldi	r30, 0x74	; 116
    25ee:	f3 e0       	ldi	r31, 0x03	; 3
    25f0:	84 8c       	ldd	r8, Z+28	; 0x1c
    25f2:	95 8c       	ldd	r9, Z+29	; 0x1d
    25f4:	a6 8c       	ldd	r10, Z+30	; 0x1e
    25f6:	b7 8c       	ldd	r11, Z+31	; 0x1f
    25f8:	cd 80       	ldd	r12, Y+5	; 0x05
    25fa:	de 80       	ldd	r13, Y+6	; 0x06
    25fc:	ef 80       	ldd	r14, Y+7	; 0x07
    25fe:	f8 84       	ldd	r15, Y+8	; 0x08
    2600:	80 a1       	ldd	r24, Z+32	; 0x20
    2602:	91 a1       	ldd	r25, Z+33	; 0x21
    2604:	a2 a1       	ldd	r26, Z+34	; 0x22
    2606:	b3 a1       	ldd	r27, Z+35	; 0x23
    2608:	c7 53       	subi	r28, 0x37	; 55
    260a:	df 4f       	sbci	r29, 0xFF	; 255
    260c:	88 83       	st	Y, r24
    260e:	99 83       	std	Y+1, r25	; 0x01
    2610:	aa 83       	std	Y+2, r26	; 0x02
    2612:	bb 83       	std	Y+3, r27	; 0x03
    2614:	c9 5c       	subi	r28, 0xC9	; 201
    2616:	d0 40       	sbci	r29, 0x00	; 0
    2618:	84 8d       	ldd	r24, Z+28	; 0x1c
    261a:	95 8d       	ldd	r25, Z+29	; 0x1d
    261c:	a6 8d       	ldd	r26, Z+30	; 0x1e
    261e:	b7 8d       	ldd	r27, Z+31	; 0x1f
    2620:	c3 53       	subi	r28, 0x33	; 51
    2622:	df 4f       	sbci	r29, 0xFF	; 255
    2624:	88 83       	st	Y, r24
    2626:	99 83       	std	Y+1, r25	; 0x01
    2628:	aa 83       	std	Y+2, r26	; 0x02
    262a:	bb 83       	std	Y+3, r27	; 0x03
    262c:	cd 5c       	subi	r28, 0xCD	; 205
    262e:	d0 40       	sbci	r29, 0x00	; 0
    2630:	a7 01       	movw	r20, r14
    2632:	96 01       	movw	r18, r12
    2634:	69 85       	ldd	r22, Y+9	; 0x09
    2636:	7a 85       	ldd	r23, Y+10	; 0x0a
    2638:	8b 85       	ldd	r24, Y+11	; 0x0b
    263a:	9c 85       	ldd	r25, Y+12	; 0x0c
    263c:	0e 94 fa 22 	call	0x45f4	; 0x45f4 <__subsf3>
    2640:	cf 52       	subi	r28, 0x2F	; 47
    2642:	df 4f       	sbci	r29, 0xFF	; 255
    2644:	68 83       	st	Y, r22
    2646:	79 83       	std	Y+1, r23	; 0x01
    2648:	8a 83       	std	Y+2, r24	; 0x02
    264a:	9b 83       	std	Y+3, r25	; 0x03
    264c:	c1 5d       	subi	r28, 0xD1	; 209
    264e:	d0 40       	sbci	r29, 0x00	; 0
    2650:	a5 01       	movw	r20, r10
    2652:	94 01       	movw	r18, r8
    2654:	c3 01       	movw	r24, r6
    2656:	b2 01       	movw	r22, r4
    2658:	0e 94 fa 22 	call	0x45f4	; 0x45f4 <__subsf3>
    265c:	9b 01       	movw	r18, r22
    265e:	ac 01       	movw	r20, r24
    2660:	cf 52       	subi	r28, 0x2F	; 47
    2662:	df 4f       	sbci	r29, 0xFF	; 255
    2664:	68 81       	ld	r22, Y
    2666:	79 81       	ldd	r23, Y+1	; 0x01
    2668:	8a 81       	ldd	r24, Y+2	; 0x02
    266a:	9b 81       	ldd	r25, Y+3	; 0x03
    266c:	c1 5d       	subi	r28, 0xD1	; 209
    266e:	d0 40       	sbci	r29, 0x00	; 0
    2670:	0e 94 95 24 	call	0x492a	; 0x492a <__mulsf3>
    2674:	4b 01       	movw	r8, r22
    2676:	5c 01       	movw	r10, r24
    2678:	c3 53       	subi	r28, 0x33	; 51
    267a:	df 4f       	sbci	r29, 0xFF	; 255
    267c:	28 81       	ld	r18, Y
    267e:	39 81       	ldd	r19, Y+1	; 0x01
    2680:	4a 81       	ldd	r20, Y+2	; 0x02
    2682:	5b 81       	ldd	r21, Y+3	; 0x03
    2684:	cd 5c       	subi	r28, 0xCD	; 205
    2686:	d0 40       	sbci	r29, 0x00	; 0
    2688:	c7 53       	subi	r28, 0x37	; 55
    268a:	df 4f       	sbci	r29, 0xFF	; 255
    268c:	68 81       	ld	r22, Y
    268e:	79 81       	ldd	r23, Y+1	; 0x01
    2690:	8a 81       	ldd	r24, Y+2	; 0x02
    2692:	9b 81       	ldd	r25, Y+3	; 0x03
    2694:	c9 5c       	subi	r28, 0xC9	; 201
    2696:	d0 40       	sbci	r29, 0x00	; 0
    2698:	0e 94 fa 22 	call	0x45f4	; 0x45f4 <__subsf3>
    269c:	9b 01       	movw	r18, r22
    269e:	ac 01       	movw	r20, r24
    26a0:	c5 01       	movw	r24, r10
    26a2:	b4 01       	movw	r22, r8
    26a4:	0e 94 6c 23 	call	0x46d8	; 0x46d8 <__divsf3>
    26a8:	a7 01       	movw	r20, r14
    26aa:	96 01       	movw	r18, r12
    26ac:	0e 94 fb 22 	call	0x45f6	; 0x45f6 <__addsf3>
    26b0:	c7 53       	subi	r28, 0x37	; 55
    26b2:	df 4f       	sbci	r29, 0xFF	; 255
    26b4:	68 83       	st	Y, r22
    26b6:	79 83       	std	Y+1, r23	; 0x01
    26b8:	8a 83       	std	Y+2, r24	; 0x02
    26ba:	9b 83       	std	Y+3, r25	; 0x03
    26bc:	c9 5c       	subi	r28, 0xC9	; 201
    26be:	d0 40       	sbci	r29, 0x00	; 0
    26c0:	5e c1       	rjmp	.+700    	; 0x297e <Level_height_conversion+0x682>
	else if(ADCValue < KeepRegister.MV[3]){PA=(ADCValue-KeepRegister.MV[2])*(SV[3]-SV[2])/(KeepRegister.MV[3]-KeepRegister.MV[2])+SV[2];}
    26c2:	60 91 98 03 	lds	r22, 0x0398	; 0x800398 <KeepRegister+0x24>
    26c6:	70 91 99 03 	lds	r23, 0x0399	; 0x800399 <KeepRegister+0x25>
    26ca:	80 91 9a 03 	lds	r24, 0x039A	; 0x80039a <KeepRegister+0x26>
    26ce:	90 91 9b 03 	lds	r25, 0x039B	; 0x80039b <KeepRegister+0x27>
    26d2:	a3 01       	movw	r20, r6
    26d4:	92 01       	movw	r18, r4
    26d6:	0e 94 90 24 	call	0x4920	; 0x4920 <__gesf2>
    26da:	18 16       	cp	r1, r24
    26dc:	0c f0       	brlt	.+2      	; 0x26e0 <Level_height_conversion+0x3e4>
    26de:	6b c0       	rjmp	.+214    	; 0x27b6 <Level_height_conversion+0x4ba>
    26e0:	e4 e7       	ldi	r30, 0x74	; 116
    26e2:	f3 e0       	ldi	r31, 0x03	; 3
    26e4:	80 a0       	ldd	r8, Z+32	; 0x20
    26e6:	91 a0       	ldd	r9, Z+33	; 0x21
    26e8:	a2 a0       	ldd	r10, Z+34	; 0x22
    26ea:	b3 a0       	ldd	r11, Z+35	; 0x23
    26ec:	c9 84       	ldd	r12, Y+9	; 0x09
    26ee:	da 84       	ldd	r13, Y+10	; 0x0a
    26f0:	eb 84       	ldd	r14, Y+11	; 0x0b
    26f2:	fc 84       	ldd	r15, Y+12	; 0x0c
    26f4:	84 a1       	ldd	r24, Z+36	; 0x24
    26f6:	95 a1       	ldd	r25, Z+37	; 0x25
    26f8:	a6 a1       	ldd	r26, Z+38	; 0x26
    26fa:	b7 a1       	ldd	r27, Z+39	; 0x27
    26fc:	c7 53       	subi	r28, 0x37	; 55
    26fe:	df 4f       	sbci	r29, 0xFF	; 255
    2700:	88 83       	st	Y, r24
    2702:	99 83       	std	Y+1, r25	; 0x01
    2704:	aa 83       	std	Y+2, r26	; 0x02
    2706:	bb 83       	std	Y+3, r27	; 0x03
    2708:	c9 5c       	subi	r28, 0xC9	; 201
    270a:	d0 40       	sbci	r29, 0x00	; 0
    270c:	80 a1       	ldd	r24, Z+32	; 0x20
    270e:	91 a1       	ldd	r25, Z+33	; 0x21
    2710:	a2 a1       	ldd	r26, Z+34	; 0x22
    2712:	b3 a1       	ldd	r27, Z+35	; 0x23
    2714:	c3 53       	subi	r28, 0x33	; 51
    2716:	df 4f       	sbci	r29, 0xFF	; 255
    2718:	88 83       	st	Y, r24
    271a:	99 83       	std	Y+1, r25	; 0x01
    271c:	aa 83       	std	Y+2, r26	; 0x02
    271e:	bb 83       	std	Y+3, r27	; 0x03
    2720:	cd 5c       	subi	r28, 0xCD	; 205
    2722:	d0 40       	sbci	r29, 0x00	; 0
    2724:	a7 01       	movw	r20, r14
    2726:	96 01       	movw	r18, r12
    2728:	6d 85       	ldd	r22, Y+13	; 0x0d
    272a:	7e 85       	ldd	r23, Y+14	; 0x0e
    272c:	8f 85       	ldd	r24, Y+15	; 0x0f
    272e:	98 89       	ldd	r25, Y+16	; 0x10
    2730:	0e 94 fa 22 	call	0x45f4	; 0x45f4 <__subsf3>
    2734:	cf 52       	subi	r28, 0x2F	; 47
    2736:	df 4f       	sbci	r29, 0xFF	; 255
    2738:	68 83       	st	Y, r22
    273a:	79 83       	std	Y+1, r23	; 0x01
    273c:	8a 83       	std	Y+2, r24	; 0x02
    273e:	9b 83       	std	Y+3, r25	; 0x03
    2740:	c1 5d       	subi	r28, 0xD1	; 209
    2742:	d0 40       	sbci	r29, 0x00	; 0
    2744:	a5 01       	movw	r20, r10
    2746:	94 01       	movw	r18, r8
    2748:	c3 01       	movw	r24, r6
    274a:	b2 01       	movw	r22, r4
    274c:	0e 94 fa 22 	call	0x45f4	; 0x45f4 <__subsf3>
    2750:	9b 01       	movw	r18, r22
    2752:	ac 01       	movw	r20, r24
    2754:	cf 52       	subi	r28, 0x2F	; 47
    2756:	df 4f       	sbci	r29, 0xFF	; 255
    2758:	68 81       	ld	r22, Y
    275a:	79 81       	ldd	r23, Y+1	; 0x01
    275c:	8a 81       	ldd	r24, Y+2	; 0x02
    275e:	9b 81       	ldd	r25, Y+3	; 0x03
    2760:	c1 5d       	subi	r28, 0xD1	; 209
    2762:	d0 40       	sbci	r29, 0x00	; 0
    2764:	0e 94 95 24 	call	0x492a	; 0x492a <__mulsf3>
    2768:	4b 01       	movw	r8, r22
    276a:	5c 01       	movw	r10, r24
    276c:	c3 53       	subi	r28, 0x33	; 51
    276e:	df 4f       	sbci	r29, 0xFF	; 255
    2770:	28 81       	ld	r18, Y
    2772:	39 81       	ldd	r19, Y+1	; 0x01
    2774:	4a 81       	ldd	r20, Y+2	; 0x02
    2776:	5b 81       	ldd	r21, Y+3	; 0x03
    2778:	cd 5c       	subi	r28, 0xCD	; 205
    277a:	d0 40       	sbci	r29, 0x00	; 0
    277c:	c7 53       	subi	r28, 0x37	; 55
    277e:	df 4f       	sbci	r29, 0xFF	; 255
    2780:	68 81       	ld	r22, Y
    2782:	79 81       	ldd	r23, Y+1	; 0x01
    2784:	8a 81       	ldd	r24, Y+2	; 0x02
    2786:	9b 81       	ldd	r25, Y+3	; 0x03
    2788:	c9 5c       	subi	r28, 0xC9	; 201
    278a:	d0 40       	sbci	r29, 0x00	; 0
    278c:	0e 94 fa 22 	call	0x45f4	; 0x45f4 <__subsf3>
    2790:	9b 01       	movw	r18, r22
    2792:	ac 01       	movw	r20, r24
    2794:	c5 01       	movw	r24, r10
    2796:	b4 01       	movw	r22, r8
    2798:	0e 94 6c 23 	call	0x46d8	; 0x46d8 <__divsf3>
    279c:	a7 01       	movw	r20, r14
    279e:	96 01       	movw	r18, r12
    27a0:	0e 94 fb 22 	call	0x45f6	; 0x45f6 <__addsf3>
    27a4:	c7 53       	subi	r28, 0x37	; 55
    27a6:	df 4f       	sbci	r29, 0xFF	; 255
    27a8:	68 83       	st	Y, r22
    27aa:	79 83       	std	Y+1, r23	; 0x01
    27ac:	8a 83       	std	Y+2, r24	; 0x02
    27ae:	9b 83       	std	Y+3, r25	; 0x03
    27b0:	c9 5c       	subi	r28, 0xC9	; 201
    27b2:	d0 40       	sbci	r29, 0x00	; 0
    27b4:	e4 c0       	rjmp	.+456    	; 0x297e <Level_height_conversion+0x682>
	else if(ADCValue < KeepRegister.MV[4]){PA=(ADCValue-KeepRegister.MV[3])*(SV[4]-SV[3])/(KeepRegister.MV[4]-KeepRegister.MV[3])+SV[3];}
    27b6:	60 91 9c 03 	lds	r22, 0x039C	; 0x80039c <KeepRegister+0x28>
    27ba:	70 91 9d 03 	lds	r23, 0x039D	; 0x80039d <KeepRegister+0x29>
    27be:	80 91 9e 03 	lds	r24, 0x039E	; 0x80039e <KeepRegister+0x2a>
    27c2:	90 91 9f 03 	lds	r25, 0x039F	; 0x80039f <KeepRegister+0x2b>
    27c6:	a3 01       	movw	r20, r6
    27c8:	92 01       	movw	r18, r4
    27ca:	0e 94 90 24 	call	0x4920	; 0x4920 <__gesf2>
    27ce:	18 16       	cp	r1, r24
    27d0:	0c f0       	brlt	.+2      	; 0x27d4 <Level_height_conversion+0x4d8>
    27d2:	6b c0       	rjmp	.+214    	; 0x28aa <Level_height_conversion+0x5ae>
    27d4:	e4 e7       	ldi	r30, 0x74	; 116
    27d6:	f3 e0       	ldi	r31, 0x03	; 3
    27d8:	84 a0       	ldd	r8, Z+36	; 0x24
    27da:	95 a0       	ldd	r9, Z+37	; 0x25
    27dc:	a6 a0       	ldd	r10, Z+38	; 0x26
    27de:	b7 a0       	ldd	r11, Z+39	; 0x27
    27e0:	cd 84       	ldd	r12, Y+13	; 0x0d
    27e2:	de 84       	ldd	r13, Y+14	; 0x0e
    27e4:	ef 84       	ldd	r14, Y+15	; 0x0f
    27e6:	f8 88       	ldd	r15, Y+16	; 0x10
    27e8:	80 a5       	ldd	r24, Z+40	; 0x28
    27ea:	91 a5       	ldd	r25, Z+41	; 0x29
    27ec:	a2 a5       	ldd	r26, Z+42	; 0x2a
    27ee:	b3 a5       	ldd	r27, Z+43	; 0x2b
    27f0:	c7 53       	subi	r28, 0x37	; 55
    27f2:	df 4f       	sbci	r29, 0xFF	; 255
    27f4:	88 83       	st	Y, r24
    27f6:	99 83       	std	Y+1, r25	; 0x01
    27f8:	aa 83       	std	Y+2, r26	; 0x02
    27fa:	bb 83       	std	Y+3, r27	; 0x03
    27fc:	c9 5c       	subi	r28, 0xC9	; 201
    27fe:	d0 40       	sbci	r29, 0x00	; 0
    2800:	84 a1       	ldd	r24, Z+36	; 0x24
    2802:	95 a1       	ldd	r25, Z+37	; 0x25
    2804:	a6 a1       	ldd	r26, Z+38	; 0x26
    2806:	b7 a1       	ldd	r27, Z+39	; 0x27
    2808:	c3 53       	subi	r28, 0x33	; 51
    280a:	df 4f       	sbci	r29, 0xFF	; 255
    280c:	88 83       	st	Y, r24
    280e:	99 83       	std	Y+1, r25	; 0x01
    2810:	aa 83       	std	Y+2, r26	; 0x02
    2812:	bb 83       	std	Y+3, r27	; 0x03
    2814:	cd 5c       	subi	r28, 0xCD	; 205
    2816:	d0 40       	sbci	r29, 0x00	; 0
    2818:	a7 01       	movw	r20, r14
    281a:	96 01       	movw	r18, r12
    281c:	69 89       	ldd	r22, Y+17	; 0x11
    281e:	7a 89       	ldd	r23, Y+18	; 0x12
    2820:	8b 89       	ldd	r24, Y+19	; 0x13
    2822:	9c 89       	ldd	r25, Y+20	; 0x14
    2824:	0e 94 fa 22 	call	0x45f4	; 0x45f4 <__subsf3>
    2828:	cf 52       	subi	r28, 0x2F	; 47
    282a:	df 4f       	sbci	r29, 0xFF	; 255
    282c:	68 83       	st	Y, r22
    282e:	79 83       	std	Y+1, r23	; 0x01
    2830:	8a 83       	std	Y+2, r24	; 0x02
    2832:	9b 83       	std	Y+3, r25	; 0x03
    2834:	c1 5d       	subi	r28, 0xD1	; 209
    2836:	d0 40       	sbci	r29, 0x00	; 0
    2838:	a5 01       	movw	r20, r10
    283a:	94 01       	movw	r18, r8
    283c:	c3 01       	movw	r24, r6
    283e:	b2 01       	movw	r22, r4
    2840:	0e 94 fa 22 	call	0x45f4	; 0x45f4 <__subsf3>
    2844:	9b 01       	movw	r18, r22
    2846:	ac 01       	movw	r20, r24
    2848:	cf 52       	subi	r28, 0x2F	; 47
    284a:	df 4f       	sbci	r29, 0xFF	; 255
    284c:	68 81       	ld	r22, Y
    284e:	79 81       	ldd	r23, Y+1	; 0x01
    2850:	8a 81       	ldd	r24, Y+2	; 0x02
    2852:	9b 81       	ldd	r25, Y+3	; 0x03
    2854:	c1 5d       	subi	r28, 0xD1	; 209
    2856:	d0 40       	sbci	r29, 0x00	; 0
    2858:	0e 94 95 24 	call	0x492a	; 0x492a <__mulsf3>
    285c:	4b 01       	movw	r8, r22
    285e:	5c 01       	movw	r10, r24
    2860:	c3 53       	subi	r28, 0x33	; 51
    2862:	df 4f       	sbci	r29, 0xFF	; 255
    2864:	28 81       	ld	r18, Y
    2866:	39 81       	ldd	r19, Y+1	; 0x01
    2868:	4a 81       	ldd	r20, Y+2	; 0x02
    286a:	5b 81       	ldd	r21, Y+3	; 0x03
    286c:	cd 5c       	subi	r28, 0xCD	; 205
    286e:	d0 40       	sbci	r29, 0x00	; 0
    2870:	c7 53       	subi	r28, 0x37	; 55
    2872:	df 4f       	sbci	r29, 0xFF	; 255
    2874:	68 81       	ld	r22, Y
    2876:	79 81       	ldd	r23, Y+1	; 0x01
    2878:	8a 81       	ldd	r24, Y+2	; 0x02
    287a:	9b 81       	ldd	r25, Y+3	; 0x03
    287c:	c9 5c       	subi	r28, 0xC9	; 201
    287e:	d0 40       	sbci	r29, 0x00	; 0
    2880:	0e 94 fa 22 	call	0x45f4	; 0x45f4 <__subsf3>
    2884:	9b 01       	movw	r18, r22
    2886:	ac 01       	movw	r20, r24
    2888:	c5 01       	movw	r24, r10
    288a:	b4 01       	movw	r22, r8
    288c:	0e 94 6c 23 	call	0x46d8	; 0x46d8 <__divsf3>
    2890:	a7 01       	movw	r20, r14
    2892:	96 01       	movw	r18, r12
    2894:	0e 94 fb 22 	call	0x45f6	; 0x45f6 <__addsf3>
    2898:	c7 53       	subi	r28, 0x37	; 55
    289a:	df 4f       	sbci	r29, 0xFF	; 255
    289c:	68 83       	st	Y, r22
    289e:	79 83       	std	Y+1, r23	; 0x01
    28a0:	8a 83       	std	Y+2, r24	; 0x02
    28a2:	9b 83       	std	Y+3, r25	; 0x03
    28a4:	c9 5c       	subi	r28, 0xC9	; 201
    28a6:	d0 40       	sbci	r29, 0x00	; 0
    28a8:	6a c0       	rjmp	.+212    	; 0x297e <Level_height_conversion+0x682>
	else                                  {PA=(ADCValue-KeepRegister.MV[4])*(SV[5]-SV[4])/(KeepRegister.MV[5]-KeepRegister.MV[4])+SV[4];}
    28aa:	e4 e7       	ldi	r30, 0x74	; 116
    28ac:	f3 e0       	ldi	r31, 0x03	; 3
    28ae:	80 a4       	ldd	r8, Z+40	; 0x28
    28b0:	91 a4       	ldd	r9, Z+41	; 0x29
    28b2:	a2 a4       	ldd	r10, Z+42	; 0x2a
    28b4:	b3 a4       	ldd	r11, Z+43	; 0x2b
    28b6:	c9 88       	ldd	r12, Y+17	; 0x11
    28b8:	da 88       	ldd	r13, Y+18	; 0x12
    28ba:	eb 88       	ldd	r14, Y+19	; 0x13
    28bc:	fc 88       	ldd	r15, Y+20	; 0x14
    28be:	84 a5       	ldd	r24, Z+44	; 0x2c
    28c0:	95 a5       	ldd	r25, Z+45	; 0x2d
    28c2:	a6 a5       	ldd	r26, Z+46	; 0x2e
    28c4:	b7 a5       	ldd	r27, Z+47	; 0x2f
    28c6:	c7 53       	subi	r28, 0x37	; 55
    28c8:	df 4f       	sbci	r29, 0xFF	; 255
    28ca:	88 83       	st	Y, r24
    28cc:	99 83       	std	Y+1, r25	; 0x01
    28ce:	aa 83       	std	Y+2, r26	; 0x02
    28d0:	bb 83       	std	Y+3, r27	; 0x03
    28d2:	c9 5c       	subi	r28, 0xC9	; 201
    28d4:	d0 40       	sbci	r29, 0x00	; 0
    28d6:	80 a5       	ldd	r24, Z+40	; 0x28
    28d8:	91 a5       	ldd	r25, Z+41	; 0x29
    28da:	a2 a5       	ldd	r26, Z+42	; 0x2a
    28dc:	b3 a5       	ldd	r27, Z+43	; 0x2b
    28de:	c3 53       	subi	r28, 0x33	; 51
    28e0:	df 4f       	sbci	r29, 0xFF	; 255
    28e2:	88 83       	st	Y, r24
    28e4:	99 83       	std	Y+1, r25	; 0x01
    28e6:	aa 83       	std	Y+2, r26	; 0x02
    28e8:	bb 83       	std	Y+3, r27	; 0x03
    28ea:	cd 5c       	subi	r28, 0xCD	; 205
    28ec:	d0 40       	sbci	r29, 0x00	; 0
    28ee:	a7 01       	movw	r20, r14
    28f0:	96 01       	movw	r18, r12
    28f2:	6d 89       	ldd	r22, Y+21	; 0x15
    28f4:	7e 89       	ldd	r23, Y+22	; 0x16
    28f6:	8f 89       	ldd	r24, Y+23	; 0x17
    28f8:	98 8d       	ldd	r25, Y+24	; 0x18
    28fa:	0e 94 fa 22 	call	0x45f4	; 0x45f4 <__subsf3>
    28fe:	cf 52       	subi	r28, 0x2F	; 47
    2900:	df 4f       	sbci	r29, 0xFF	; 255
    2902:	68 83       	st	Y, r22
    2904:	79 83       	std	Y+1, r23	; 0x01
    2906:	8a 83       	std	Y+2, r24	; 0x02
    2908:	9b 83       	std	Y+3, r25	; 0x03
    290a:	c1 5d       	subi	r28, 0xD1	; 209
    290c:	d0 40       	sbci	r29, 0x00	; 0
    290e:	a5 01       	movw	r20, r10
    2910:	94 01       	movw	r18, r8
    2912:	c3 01       	movw	r24, r6
    2914:	b2 01       	movw	r22, r4
    2916:	0e 94 fa 22 	call	0x45f4	; 0x45f4 <__subsf3>
    291a:	9b 01       	movw	r18, r22
    291c:	ac 01       	movw	r20, r24
    291e:	cf 52       	subi	r28, 0x2F	; 47
    2920:	df 4f       	sbci	r29, 0xFF	; 255
    2922:	68 81       	ld	r22, Y
    2924:	79 81       	ldd	r23, Y+1	; 0x01
    2926:	8a 81       	ldd	r24, Y+2	; 0x02
    2928:	9b 81       	ldd	r25, Y+3	; 0x03
    292a:	c1 5d       	subi	r28, 0xD1	; 209
    292c:	d0 40       	sbci	r29, 0x00	; 0
    292e:	0e 94 95 24 	call	0x492a	; 0x492a <__mulsf3>
    2932:	4b 01       	movw	r8, r22
    2934:	5c 01       	movw	r10, r24
    2936:	c3 53       	subi	r28, 0x33	; 51
    2938:	df 4f       	sbci	r29, 0xFF	; 255
    293a:	28 81       	ld	r18, Y
    293c:	39 81       	ldd	r19, Y+1	; 0x01
    293e:	4a 81       	ldd	r20, Y+2	; 0x02
    2940:	5b 81       	ldd	r21, Y+3	; 0x03
    2942:	cd 5c       	subi	r28, 0xCD	; 205
    2944:	d0 40       	sbci	r29, 0x00	; 0
    2946:	c7 53       	subi	r28, 0x37	; 55
    2948:	df 4f       	sbci	r29, 0xFF	; 255
    294a:	68 81       	ld	r22, Y
    294c:	79 81       	ldd	r23, Y+1	; 0x01
    294e:	8a 81       	ldd	r24, Y+2	; 0x02
    2950:	9b 81       	ldd	r25, Y+3	; 0x03
    2952:	c9 5c       	subi	r28, 0xC9	; 201
    2954:	d0 40       	sbci	r29, 0x00	; 0
    2956:	0e 94 fa 22 	call	0x45f4	; 0x45f4 <__subsf3>
    295a:	9b 01       	movw	r18, r22
    295c:	ac 01       	movw	r20, r24
    295e:	c5 01       	movw	r24, r10
    2960:	b4 01       	movw	r22, r8
    2962:	0e 94 6c 23 	call	0x46d8	; 0x46d8 <__divsf3>
    2966:	a7 01       	movw	r20, r14
    2968:	96 01       	movw	r18, r12
    296a:	0e 94 fb 22 	call	0x45f6	; 0x45f6 <__addsf3>
    296e:	c7 53       	subi	r28, 0x37	; 55
    2970:	df 4f       	sbci	r29, 0xFF	; 255
    2972:	68 83       	st	Y, r22
    2974:	79 83       	std	Y+1, r23	; 0x01
    2976:	8a 83       	std	Y+2, r24	; 0x02
    2978:	9b 83       	std	Y+3, r25	; 0x03
    297a:	c9 5c       	subi	r28, 0xC9	; 201
    297c:	d0 40       	sbci	r29, 0x00	; 0
	
	OriginaAltitudeTemp= ( PA/(Liquid_D*1000*KeepRegister.LocalAccelerationOfGravity) );   //p=ρgh+此地的大气压 ρ:水：1.0X1000 Kg/m3    g：9.8N/kg     高度:m
    297e:	04 e7       	ldi	r16, 0x74	; 116
    2980:	13 e0       	ldi	r17, 0x03	; 3
    2982:	d8 01       	movw	r26, r16
    2984:	50 96       	adiw	r26, 0x10	; 16
    2986:	cd 90       	ld	r12, X+
    2988:	dd 90       	ld	r13, X+
    298a:	ed 90       	ld	r14, X+
    298c:	fc 90       	ld	r15, X
    298e:	53 97       	sbiw	r26, 0x13	; 19
    2990:	20 e0       	ldi	r18, 0x00	; 0
    2992:	30 e0       	ldi	r19, 0x00	; 0
    2994:	4a e7       	ldi	r20, 0x7A	; 122
    2996:	54 e4       	ldi	r21, 0x44	; 68
    2998:	cb 53       	subi	r28, 0x3B	; 59
    299a:	df 4f       	sbci	r29, 0xFF	; 255
    299c:	68 81       	ld	r22, Y
    299e:	79 81       	ldd	r23, Y+1	; 0x01
    29a0:	8a 81       	ldd	r24, Y+2	; 0x02
    29a2:	9b 81       	ldd	r25, Y+3	; 0x03
    29a4:	c5 5c       	subi	r28, 0xC5	; 197
    29a6:	d0 40       	sbci	r29, 0x00	; 0
    29a8:	0e 94 95 24 	call	0x492a	; 0x492a <__mulsf3>
    29ac:	a7 01       	movw	r20, r14
    29ae:	96 01       	movw	r18, r12
    29b0:	0e 94 95 24 	call	0x492a	; 0x492a <__mulsf3>
    29b4:	9b 01       	movw	r18, r22
    29b6:	ac 01       	movw	r20, r24
    29b8:	c7 53       	subi	r28, 0x37	; 55
    29ba:	df 4f       	sbci	r29, 0xFF	; 255
    29bc:	68 81       	ld	r22, Y
    29be:	79 81       	ldd	r23, Y+1	; 0x01
    29c0:	8a 81       	ldd	r24, Y+2	; 0x02
    29c2:	9b 81       	ldd	r25, Y+3	; 0x03
    29c4:	c9 5c       	subi	r28, 0xC9	; 201
    29c6:	d0 40       	sbci	r29, 0x00	; 0
    29c8:	0e 94 6c 23 	call	0x46d8	; 0x46d8 <__divsf3>
	OriginaAltitudeTemp =OriginaAltitudeTemp*1000;//转换成mm
    29cc:	20 e0       	ldi	r18, 0x00	; 0
    29ce:	30 e0       	ldi	r19, 0x00	; 0
    29d0:	4a e7       	ldi	r20, 0x7A	; 122
    29d2:	54 e4       	ldi	r21, 0x44	; 68
    29d4:	0e 94 95 24 	call	0x492a	; 0x492a <__mulsf3>
    29d8:	cf 52       	subi	r28, 0x2F	; 47
    29da:	df 4f       	sbci	r29, 0xFF	; 255
    29dc:	68 83       	st	Y, r22
    29de:	79 83       	std	Y+1, r23	; 0x01
    29e0:	8a 83       	std	Y+2, r24	; 0x02
    29e2:	9b 83       	std	Y+3, r25	; 0x03
    29e4:	c1 5d       	subi	r28, 0xD1	; 209
    29e6:	d0 40       	sbci	r29, 0x00	; 0
	
	/************************************************************************
	**多负载温度修正                                                         
	************************************************************************/
	if( (KeepRegister.Liquid_Sec & 0x0F) == 0x01)
    29e8:	f8 01       	movw	r30, r16
    29ea:	86 85       	ldd	r24, Z+14	; 0x0e
    29ec:	97 85       	ldd	r25, Z+15	; 0x0f
    29ee:	8f 70       	andi	r24, 0x0F	; 15
    29f0:	99 27       	eor	r25, r25
    29f2:	01 97       	sbiw	r24, 0x01	; 1
    29f4:	09 f0       	breq	.+2      	; 0x29f8 <Level_height_conversion+0x6fc>
    29f6:	e3 c5       	rjmp	.+3014   	; 0x35be <Level_height_conversion+0x12c2>
    29f8:	8e 01       	movw	r16, r28
    29fa:	07 5e       	subi	r16, 0xE7	; 231
    29fc:	1f 4f       	sbci	r17, 0xFF	; 255
    29fe:	78 01       	movw	r14, r16
	{
		
		for(i=0;i<6;i++)SV_m[i]=SV[i]/(Liquid_D*KeepRegister.LocalAccelerationOfGravity);   //计算标准压力下的mm液体柱
    2a00:	6f 01       	movw	r12, r30
    2a02:	d1 01       	movw	r26, r2
    2a04:	8d 90       	ld	r8, X+
    2a06:	9d 90       	ld	r9, X+
    2a08:	ad 90       	ld	r10, X+
    2a0a:	bd 90       	ld	r11, X+
    2a0c:	1d 01       	movw	r2, r26
    2a0e:	f6 01       	movw	r30, r12
    2a10:	20 89       	ldd	r18, Z+16	; 0x10
    2a12:	31 89       	ldd	r19, Z+17	; 0x11
    2a14:	42 89       	ldd	r20, Z+18	; 0x12
    2a16:	53 89       	ldd	r21, Z+19	; 0x13
    2a18:	cb 53       	subi	r28, 0x3B	; 59
    2a1a:	df 4f       	sbci	r29, 0xFF	; 255
    2a1c:	68 81       	ld	r22, Y
    2a1e:	79 81       	ldd	r23, Y+1	; 0x01
    2a20:	8a 81       	ldd	r24, Y+2	; 0x02
    2a22:	9b 81       	ldd	r25, Y+3	; 0x03
    2a24:	c5 5c       	subi	r28, 0xC5	; 197
    2a26:	d0 40       	sbci	r29, 0x00	; 0
    2a28:	0e 94 95 24 	call	0x492a	; 0x492a <__mulsf3>
    2a2c:	9b 01       	movw	r18, r22
    2a2e:	ac 01       	movw	r20, r24
    2a30:	c5 01       	movw	r24, r10
    2a32:	b4 01       	movw	r22, r8
    2a34:	0e 94 6c 23 	call	0x46d8	; 0x46d8 <__divsf3>
    2a38:	d8 01       	movw	r26, r16
    2a3a:	6d 93       	st	X+, r22
    2a3c:	7d 93       	st	X+, r23
    2a3e:	8d 93       	st	X+, r24
    2a40:	9d 93       	st	X+, r25
    2a42:	8d 01       	movw	r16, r26
    2a44:	2e 14       	cp	r2, r14
    2a46:	3f 04       	cpc	r3, r15
    2a48:	e1 f6       	brne	.-72     	; 0x2a02 <Level_height_conversion+0x706>
    2a4a:	7e 01       	movw	r14, r28
    2a4c:	b1 e3       	ldi	r27, 0x31	; 49
    2a4e:	eb 0e       	add	r14, r27
    2a50:	f1 1c       	adc	r15, r1
    2a52:	00 e0       	ldi	r16, 0x00	; 0
    2a54:	10 e0       	ldi	r17, 0x00	; 0
		//6条校准曲线，温度-压强差曲线
		//除1000，获取真实系数
		for(i=0;i<5;i++)P0[i]=((double)KeepRegister.LTC0[i])/1000;
    2a56:	f8 01       	movw	r30, r16
    2a58:	ee 0f       	add	r30, r30
    2a5a:	ff 1f       	adc	r31, r31
    2a5c:	ee 0f       	add	r30, r30
    2a5e:	ff 1f       	adc	r31, r31
    2a60:	e8 55       	subi	r30, 0x58	; 88
    2a62:	fc 4f       	sbci	r31, 0xFC	; 252
    2a64:	60 81       	ld	r22, Z
    2a66:	71 81       	ldd	r23, Z+1	; 0x01
    2a68:	82 81       	ldd	r24, Z+2	; 0x02
    2a6a:	93 81       	ldd	r25, Z+3	; 0x03
    2a6c:	20 e0       	ldi	r18, 0x00	; 0
    2a6e:	30 e0       	ldi	r19, 0x00	; 0
    2a70:	4a e7       	ldi	r20, 0x7A	; 122
    2a72:	54 e4       	ldi	r21, 0x44	; 68
    2a74:	0e 94 6c 23 	call	0x46d8	; 0x46d8 <__divsf3>
    2a78:	f7 01       	movw	r30, r14
    2a7a:	61 93       	st	Z+, r22
    2a7c:	71 93       	st	Z+, r23
    2a7e:	81 93       	st	Z+, r24
    2a80:	91 93       	st	Z+, r25
    2a82:	7f 01       	movw	r14, r30
    2a84:	0f 5f       	subi	r16, 0xFF	; 255
    2a86:	1f 4f       	sbci	r17, 0xFF	; 255
    2a88:	05 30       	cpi	r16, 0x05	; 5
    2a8a:	11 05       	cpc	r17, r1
    2a8c:	21 f7       	brne	.-56     	; 0x2a56 <Level_height_conversion+0x75a>
    2a8e:	7e 01       	movw	r14, r28
    2a90:	f5 e4       	ldi	r31, 0x45	; 69
    2a92:	ef 0e       	add	r14, r31
    2a94:	f1 1c       	adc	r15, r1
    2a96:	00 e0       	ldi	r16, 0x00	; 0
    2a98:	10 e0       	ldi	r17, 0x00	; 0
		for(i=0;i<5;i++)P1[i]=((double)KeepRegister.LTC1[i])/1000;
    2a9a:	f8 01       	movw	r30, r16
    2a9c:	ee 0f       	add	r30, r30
    2a9e:	ff 1f       	adc	r31, r31
    2aa0:	ee 0f       	add	r30, r30
    2aa2:	ff 1f       	adc	r31, r31
    2aa4:	e4 54       	subi	r30, 0x44	; 68
    2aa6:	fc 4f       	sbci	r31, 0xFC	; 252
    2aa8:	60 81       	ld	r22, Z
    2aaa:	71 81       	ldd	r23, Z+1	; 0x01
    2aac:	82 81       	ldd	r24, Z+2	; 0x02
    2aae:	93 81       	ldd	r25, Z+3	; 0x03
    2ab0:	20 e0       	ldi	r18, 0x00	; 0
    2ab2:	30 e0       	ldi	r19, 0x00	; 0
    2ab4:	4a e7       	ldi	r20, 0x7A	; 122
    2ab6:	54 e4       	ldi	r21, 0x44	; 68
    2ab8:	0e 94 6c 23 	call	0x46d8	; 0x46d8 <__divsf3>
    2abc:	d7 01       	movw	r26, r14
    2abe:	6d 93       	st	X+, r22
    2ac0:	7d 93       	st	X+, r23
    2ac2:	8d 93       	st	X+, r24
    2ac4:	9d 93       	st	X+, r25
    2ac6:	7d 01       	movw	r14, r26
    2ac8:	0f 5f       	subi	r16, 0xFF	; 255
    2aca:	1f 4f       	sbci	r17, 0xFF	; 255
    2acc:	05 30       	cpi	r16, 0x05	; 5
    2ace:	11 05       	cpc	r17, r1
    2ad0:	21 f7       	brne	.-56     	; 0x2a9a <Level_height_conversion+0x79e>
    2ad2:	7e 01       	movw	r14, r28
    2ad4:	b9 e5       	ldi	r27, 0x59	; 89
    2ad6:	eb 0e       	add	r14, r27
    2ad8:	f1 1c       	adc	r15, r1
    2ada:	00 e0       	ldi	r16, 0x00	; 0
    2adc:	10 e0       	ldi	r17, 0x00	; 0
		for(i=0;i<5;i++)P2[i]=((double)KeepRegister.LTC2[i])/1000;
    2ade:	f8 01       	movw	r30, r16
    2ae0:	ee 0f       	add	r30, r30
    2ae2:	ff 1f       	adc	r31, r31
    2ae4:	ee 0f       	add	r30, r30
    2ae6:	ff 1f       	adc	r31, r31
    2ae8:	e0 53       	subi	r30, 0x30	; 48
    2aea:	fc 4f       	sbci	r31, 0xFC	; 252
    2aec:	60 81       	ld	r22, Z
    2aee:	71 81       	ldd	r23, Z+1	; 0x01
    2af0:	82 81       	ldd	r24, Z+2	; 0x02
    2af2:	93 81       	ldd	r25, Z+3	; 0x03
    2af4:	20 e0       	ldi	r18, 0x00	; 0
    2af6:	30 e0       	ldi	r19, 0x00	; 0
    2af8:	4a e7       	ldi	r20, 0x7A	; 122
    2afa:	54 e4       	ldi	r21, 0x44	; 68
    2afc:	0e 94 6c 23 	call	0x46d8	; 0x46d8 <__divsf3>
    2b00:	f7 01       	movw	r30, r14
    2b02:	61 93       	st	Z+, r22
    2b04:	71 93       	st	Z+, r23
    2b06:	81 93       	st	Z+, r24
    2b08:	91 93       	st	Z+, r25
    2b0a:	7f 01       	movw	r14, r30
    2b0c:	0f 5f       	subi	r16, 0xFF	; 255
    2b0e:	1f 4f       	sbci	r17, 0xFF	; 255
    2b10:	05 30       	cpi	r16, 0x05	; 5
    2b12:	11 05       	cpc	r17, r1
    2b14:	21 f7       	brne	.-56     	; 0x2ade <Level_height_conversion+0x7e2>
    2b16:	7e 01       	movw	r14, r28
    2b18:	fd e6       	ldi	r31, 0x6D	; 109
    2b1a:	ef 0e       	add	r14, r31
    2b1c:	f1 1c       	adc	r15, r1
    2b1e:	00 e0       	ldi	r16, 0x00	; 0
    2b20:	10 e0       	ldi	r17, 0x00	; 0
		for(i=0;i<5;i++)P3[i]=((double)KeepRegister.LTC3[i])/1000;
    2b22:	f8 01       	movw	r30, r16
    2b24:	ee 0f       	add	r30, r30
    2b26:	ff 1f       	adc	r31, r31
    2b28:	ee 0f       	add	r30, r30
    2b2a:	ff 1f       	adc	r31, r31
    2b2c:	ec 51       	subi	r30, 0x1C	; 28
    2b2e:	fc 4f       	sbci	r31, 0xFC	; 252
    2b30:	60 81       	ld	r22, Z
    2b32:	71 81       	ldd	r23, Z+1	; 0x01
    2b34:	82 81       	ldd	r24, Z+2	; 0x02
    2b36:	93 81       	ldd	r25, Z+3	; 0x03
    2b38:	20 e0       	ldi	r18, 0x00	; 0
    2b3a:	30 e0       	ldi	r19, 0x00	; 0
    2b3c:	4a e7       	ldi	r20, 0x7A	; 122
    2b3e:	54 e4       	ldi	r21, 0x44	; 68
    2b40:	0e 94 6c 23 	call	0x46d8	; 0x46d8 <__divsf3>
    2b44:	d7 01       	movw	r26, r14
    2b46:	6d 93       	st	X+, r22
    2b48:	7d 93       	st	X+, r23
    2b4a:	8d 93       	st	X+, r24
    2b4c:	9d 93       	st	X+, r25
    2b4e:	7d 01       	movw	r14, r26
    2b50:	0f 5f       	subi	r16, 0xFF	; 255
    2b52:	1f 4f       	sbci	r17, 0xFF	; 255
    2b54:	05 30       	cpi	r16, 0x05	; 5
    2b56:	11 05       	cpc	r17, r1
    2b58:	21 f7       	brne	.-56     	; 0x2b22 <Level_height_conversion+0x826>
    2b5a:	7e 01       	movw	r14, r28
    2b5c:	b1 e8       	ldi	r27, 0x81	; 129
    2b5e:	eb 0e       	add	r14, r27
    2b60:	f1 1c       	adc	r15, r1
    2b62:	00 e0       	ldi	r16, 0x00	; 0
    2b64:	10 e0       	ldi	r17, 0x00	; 0
		for(i=0;i<5;i++)P4[i]=((double)KeepRegister.LTC4[i])/1000;
    2b66:	f8 01       	movw	r30, r16
    2b68:	ee 0f       	add	r30, r30
    2b6a:	ff 1f       	adc	r31, r31
    2b6c:	ee 0f       	add	r30, r30
    2b6e:	ff 1f       	adc	r31, r31
    2b70:	e8 50       	subi	r30, 0x08	; 8
    2b72:	fc 4f       	sbci	r31, 0xFC	; 252
    2b74:	60 81       	ld	r22, Z
    2b76:	71 81       	ldd	r23, Z+1	; 0x01
    2b78:	82 81       	ldd	r24, Z+2	; 0x02
    2b7a:	93 81       	ldd	r25, Z+3	; 0x03
    2b7c:	20 e0       	ldi	r18, 0x00	; 0
    2b7e:	30 e0       	ldi	r19, 0x00	; 0
    2b80:	4a e7       	ldi	r20, 0x7A	; 122
    2b82:	54 e4       	ldi	r21, 0x44	; 68
    2b84:	0e 94 6c 23 	call	0x46d8	; 0x46d8 <__divsf3>
    2b88:	f7 01       	movw	r30, r14
    2b8a:	61 93       	st	Z+, r22
    2b8c:	71 93       	st	Z+, r23
    2b8e:	81 93       	st	Z+, r24
    2b90:	91 93       	st	Z+, r25
    2b92:	7f 01       	movw	r14, r30
    2b94:	0f 5f       	subi	r16, 0xFF	; 255
    2b96:	1f 4f       	sbci	r17, 0xFF	; 255
    2b98:	05 30       	cpi	r16, 0x05	; 5
    2b9a:	11 05       	cpc	r17, r1
    2b9c:	21 f7       	brne	.-56     	; 0x2b66 <Level_height_conversion+0x86a>
    2b9e:	7e 01       	movw	r14, r28
    2ba0:	f5 e9       	ldi	r31, 0x95	; 149
    2ba2:	ef 0e       	add	r14, r31
    2ba4:	f1 1c       	adc	r15, r1
    2ba6:	00 e0       	ldi	r16, 0x00	; 0
    2ba8:	10 e0       	ldi	r17, 0x00	; 0
		for(i=0;i<5;i++)P5[i]=((double)KeepRegister.LTC5[i])/1000;
    2baa:	f8 01       	movw	r30, r16
    2bac:	ee 0f       	add	r30, r30
    2bae:	ff 1f       	adc	r31, r31
    2bb0:	ee 0f       	add	r30, r30
    2bb2:	ff 1f       	adc	r31, r31
    2bb4:	e4 5f       	subi	r30, 0xF4	; 244
    2bb6:	fb 4f       	sbci	r31, 0xFB	; 251
    2bb8:	60 81       	ld	r22, Z
    2bba:	71 81       	ldd	r23, Z+1	; 0x01
    2bbc:	82 81       	ldd	r24, Z+2	; 0x02
    2bbe:	93 81       	ldd	r25, Z+3	; 0x03
    2bc0:	20 e0       	ldi	r18, 0x00	; 0
    2bc2:	30 e0       	ldi	r19, 0x00	; 0
    2bc4:	4a e7       	ldi	r20, 0x7A	; 122
    2bc6:	54 e4       	ldi	r21, 0x44	; 68
    2bc8:	0e 94 6c 23 	call	0x46d8	; 0x46d8 <__divsf3>
    2bcc:	d7 01       	movw	r26, r14
    2bce:	6d 93       	st	X+, r22
    2bd0:	7d 93       	st	X+, r23
    2bd2:	8d 93       	st	X+, r24
    2bd4:	9d 93       	st	X+, r25
    2bd6:	7d 01       	movw	r14, r26
    2bd8:	0f 5f       	subi	r16, 0xFF	; 255
    2bda:	1f 4f       	sbci	r17, 0xFF	; 255
    2bdc:	05 30       	cpi	r16, 0x05	; 5
    2bde:	11 05       	cpc	r17, r1
    2be0:	21 f7       	brne	.-56     	; 0x2baa <Level_height_conversion+0x8ae>
		
		//6条温度曲线
		//根据当前温度，获取6条曲线上的压强差校准点，
		//温度修正公式，四阶修正
		TEMP_Cor_VAL[0] = P0[4]*pow(T_d,4) + P0[3]*pow(T_d,3) + P0[2]*T_d*T_d + P0[1]*T_d + P0[0];   //  零负载下温度-修正值曲线
    2be2:	20 e0       	ldi	r18, 0x00	; 0
    2be4:	30 e0       	ldi	r19, 0x00	; 0
    2be6:	40 e8       	ldi	r20, 0x80	; 128
    2be8:	50 e4       	ldi	r21, 0x40	; 64
    2bea:	cf 53       	subi	r28, 0x3F	; 63
    2bec:	df 4f       	sbci	r29, 0xFF	; 255
    2bee:	68 81       	ld	r22, Y
    2bf0:	79 81       	ldd	r23, Y+1	; 0x01
    2bf2:	8a 81       	ldd	r24, Y+2	; 0x02
    2bf4:	9b 81       	ldd	r25, Y+3	; 0x03
    2bf6:	c1 5c       	subi	r28, 0xC1	; 193
    2bf8:	d0 40       	sbci	r29, 0x00	; 0
    2bfa:	0e 94 02 25 	call	0x4a04	; 0x4a04 <pow>
    2bfe:	4b 01       	movw	r8, r22
    2c00:	5c 01       	movw	r10, r24
    2c02:	20 e0       	ldi	r18, 0x00	; 0
    2c04:	30 e0       	ldi	r19, 0x00	; 0
    2c06:	40 e4       	ldi	r20, 0x40	; 64
    2c08:	50 e4       	ldi	r21, 0x40	; 64
    2c0a:	cf 53       	subi	r28, 0x3F	; 63
    2c0c:	df 4f       	sbci	r29, 0xFF	; 255
    2c0e:	68 81       	ld	r22, Y
    2c10:	79 81       	ldd	r23, Y+1	; 0x01
    2c12:	8a 81       	ldd	r24, Y+2	; 0x02
    2c14:	9b 81       	ldd	r25, Y+3	; 0x03
    2c16:	c1 5c       	subi	r28, 0xC1	; 193
    2c18:	d0 40       	sbci	r29, 0x00	; 0
    2c1a:	0e 94 02 25 	call	0x4a04	; 0x4a04 <pow>
    2c1e:	c3 53       	subi	r28, 0x33	; 51
    2c20:	df 4f       	sbci	r29, 0xFF	; 255
    2c22:	68 83       	st	Y, r22
    2c24:	79 83       	std	Y+1, r23	; 0x01
    2c26:	8a 83       	std	Y+2, r24	; 0x02
    2c28:	9b 83       	std	Y+3, r25	; 0x03
    2c2a:	cd 5c       	subi	r28, 0xCD	; 205
    2c2c:	d0 40       	sbci	r29, 0x00	; 0
    2c2e:	25 96       	adiw	r28, 0x05	; 5
    2c30:	2c ad       	ldd	r18, Y+60	; 0x3c
    2c32:	3d ad       	ldd	r19, Y+61	; 0x3d
    2c34:	4e ad       	ldd	r20, Y+62	; 0x3e
    2c36:	5f ad       	ldd	r21, Y+63	; 0x3f
    2c38:	25 97       	sbiw	r28, 0x05	; 5
    2c3a:	c5 01       	movw	r24, r10
    2c3c:	b4 01       	movw	r22, r8
    2c3e:	0e 94 95 24 	call	0x492a	; 0x492a <__mulsf3>
    2c42:	6b 01       	movw	r12, r22
    2c44:	7c 01       	movw	r14, r24
    2c46:	21 96       	adiw	r28, 0x01	; 1
    2c48:	2c ad       	ldd	r18, Y+60	; 0x3c
    2c4a:	3d ad       	ldd	r19, Y+61	; 0x3d
    2c4c:	4e ad       	ldd	r20, Y+62	; 0x3e
    2c4e:	5f ad       	ldd	r21, Y+63	; 0x3f
    2c50:	21 97       	sbiw	r28, 0x01	; 1
    2c52:	c3 53       	subi	r28, 0x33	; 51
    2c54:	df 4f       	sbci	r29, 0xFF	; 255
    2c56:	68 81       	ld	r22, Y
    2c58:	79 81       	ldd	r23, Y+1	; 0x01
    2c5a:	8a 81       	ldd	r24, Y+2	; 0x02
    2c5c:	9b 81       	ldd	r25, Y+3	; 0x03
    2c5e:	cd 5c       	subi	r28, 0xCD	; 205
    2c60:	d0 40       	sbci	r29, 0x00	; 0
    2c62:	0e 94 95 24 	call	0x492a	; 0x492a <__mulsf3>
    2c66:	9b 01       	movw	r18, r22
    2c68:	ac 01       	movw	r20, r24
    2c6a:	c7 01       	movw	r24, r14
    2c6c:	b6 01       	movw	r22, r12
    2c6e:	0e 94 fb 22 	call	0x45f6	; 0x45f6 <__addsf3>
    2c72:	6b 01       	movw	r12, r22
    2c74:	7c 01       	movw	r14, r24
    2c76:	29 ad       	ldd	r18, Y+57	; 0x39
    2c78:	3a ad       	ldd	r19, Y+58	; 0x3a
    2c7a:	4b ad       	ldd	r20, Y+59	; 0x3b
    2c7c:	5c ad       	ldd	r21, Y+60	; 0x3c
    2c7e:	cf 53       	subi	r28, 0x3F	; 63
    2c80:	df 4f       	sbci	r29, 0xFF	; 255
    2c82:	68 81       	ld	r22, Y
    2c84:	79 81       	ldd	r23, Y+1	; 0x01
    2c86:	8a 81       	ldd	r24, Y+2	; 0x02
    2c88:	9b 81       	ldd	r25, Y+3	; 0x03
    2c8a:	c1 5c       	subi	r28, 0xC1	; 193
    2c8c:	d0 40       	sbci	r29, 0x00	; 0
    2c8e:	0e 94 95 24 	call	0x492a	; 0x492a <__mulsf3>
    2c92:	cf 53       	subi	r28, 0x3F	; 63
    2c94:	df 4f       	sbci	r29, 0xFF	; 255
    2c96:	28 81       	ld	r18, Y
    2c98:	39 81       	ldd	r19, Y+1	; 0x01
    2c9a:	4a 81       	ldd	r20, Y+2	; 0x02
    2c9c:	5b 81       	ldd	r21, Y+3	; 0x03
    2c9e:	c1 5c       	subi	r28, 0xC1	; 193
    2ca0:	d0 40       	sbci	r29, 0x00	; 0
    2ca2:	0e 94 95 24 	call	0x492a	; 0x492a <__mulsf3>
    2ca6:	9b 01       	movw	r18, r22
    2ca8:	ac 01       	movw	r20, r24
    2caa:	c7 01       	movw	r24, r14
    2cac:	b6 01       	movw	r22, r12
    2cae:	0e 94 fb 22 	call	0x45f6	; 0x45f6 <__addsf3>
    2cb2:	6b 01       	movw	r12, r22
    2cb4:	7c 01       	movw	r14, r24
    2cb6:	2d a9       	ldd	r18, Y+53	; 0x35
    2cb8:	3e a9       	ldd	r19, Y+54	; 0x36
    2cba:	4f a9       	ldd	r20, Y+55	; 0x37
    2cbc:	58 ad       	ldd	r21, Y+56	; 0x38
    2cbe:	cf 53       	subi	r28, 0x3F	; 63
    2cc0:	df 4f       	sbci	r29, 0xFF	; 255
    2cc2:	68 81       	ld	r22, Y
    2cc4:	79 81       	ldd	r23, Y+1	; 0x01
    2cc6:	8a 81       	ldd	r24, Y+2	; 0x02
    2cc8:	9b 81       	ldd	r25, Y+3	; 0x03
    2cca:	c1 5c       	subi	r28, 0xC1	; 193
    2ccc:	d0 40       	sbci	r29, 0x00	; 0
    2cce:	0e 94 95 24 	call	0x492a	; 0x492a <__mulsf3>
    2cd2:	9b 01       	movw	r18, r22
    2cd4:	ac 01       	movw	r20, r24
    2cd6:	c7 01       	movw	r24, r14
    2cd8:	b6 01       	movw	r22, r12
    2cda:	0e 94 fb 22 	call	0x45f6	; 0x45f6 <__addsf3>
    2cde:	29 a9       	ldd	r18, Y+49	; 0x31
    2ce0:	3a a9       	ldd	r19, Y+50	; 0x32
    2ce2:	4b a9       	ldd	r20, Y+51	; 0x33
    2ce4:	5c a9       	ldd	r21, Y+52	; 0x34
    2ce6:	0e 94 fb 22 	call	0x45f6	; 0x45f6 <__addsf3>
    2cea:	c7 55       	subi	r28, 0x57	; 87
    2cec:	df 4f       	sbci	r29, 0xFF	; 255
    2cee:	68 83       	st	Y, r22
    2cf0:	79 83       	std	Y+1, r23	; 0x01
    2cf2:	8a 83       	std	Y+2, r24	; 0x02
    2cf4:	9b 83       	std	Y+3, r25	; 0x03
    2cf6:	c9 5a       	subi	r28, 0xA9	; 169
    2cf8:	d0 40       	sbci	r29, 0x00	; 0
		TEMP_Cor_VAL[1] = P1[4]*pow(T_d,4) + P1[3]*pow(T_d,3) + P1[2]*T_d*T_d + P1[1]*T_d + P1[0];   //  1/5负载下温度-修正值曲线
    2cfa:	69 96       	adiw	r28, 0x19	; 25
    2cfc:	2c ad       	ldd	r18, Y+60	; 0x3c
    2cfe:	3d ad       	ldd	r19, Y+61	; 0x3d
    2d00:	4e ad       	ldd	r20, Y+62	; 0x3e
    2d02:	5f ad       	ldd	r21, Y+63	; 0x3f
    2d04:	69 97       	sbiw	r28, 0x19	; 25
    2d06:	c5 01       	movw	r24, r10
    2d08:	b4 01       	movw	r22, r8
    2d0a:	0e 94 95 24 	call	0x492a	; 0x492a <__mulsf3>
    2d0e:	6b 01       	movw	r12, r22
    2d10:	7c 01       	movw	r14, r24
    2d12:	65 96       	adiw	r28, 0x15	; 21
    2d14:	2c ad       	ldd	r18, Y+60	; 0x3c
    2d16:	3d ad       	ldd	r19, Y+61	; 0x3d
    2d18:	4e ad       	ldd	r20, Y+62	; 0x3e
    2d1a:	5f ad       	ldd	r21, Y+63	; 0x3f
    2d1c:	65 97       	sbiw	r28, 0x15	; 21
    2d1e:	c3 53       	subi	r28, 0x33	; 51
    2d20:	df 4f       	sbci	r29, 0xFF	; 255
    2d22:	68 81       	ld	r22, Y
    2d24:	79 81       	ldd	r23, Y+1	; 0x01
    2d26:	8a 81       	ldd	r24, Y+2	; 0x02
    2d28:	9b 81       	ldd	r25, Y+3	; 0x03
    2d2a:	cd 5c       	subi	r28, 0xCD	; 205
    2d2c:	d0 40       	sbci	r29, 0x00	; 0
    2d2e:	0e 94 95 24 	call	0x492a	; 0x492a <__mulsf3>
    2d32:	9b 01       	movw	r18, r22
    2d34:	ac 01       	movw	r20, r24
    2d36:	c7 01       	movw	r24, r14
    2d38:	b6 01       	movw	r22, r12
    2d3a:	0e 94 fb 22 	call	0x45f6	; 0x45f6 <__addsf3>
    2d3e:	6b 01       	movw	r12, r22
    2d40:	7c 01       	movw	r14, r24
    2d42:	61 96       	adiw	r28, 0x11	; 17
    2d44:	2c ad       	ldd	r18, Y+60	; 0x3c
    2d46:	3d ad       	ldd	r19, Y+61	; 0x3d
    2d48:	4e ad       	ldd	r20, Y+62	; 0x3e
    2d4a:	5f ad       	ldd	r21, Y+63	; 0x3f
    2d4c:	61 97       	sbiw	r28, 0x11	; 17
    2d4e:	cf 53       	subi	r28, 0x3F	; 63
    2d50:	df 4f       	sbci	r29, 0xFF	; 255
    2d52:	68 81       	ld	r22, Y
    2d54:	79 81       	ldd	r23, Y+1	; 0x01
    2d56:	8a 81       	ldd	r24, Y+2	; 0x02
    2d58:	9b 81       	ldd	r25, Y+3	; 0x03
    2d5a:	c1 5c       	subi	r28, 0xC1	; 193
    2d5c:	d0 40       	sbci	r29, 0x00	; 0
    2d5e:	0e 94 95 24 	call	0x492a	; 0x492a <__mulsf3>
    2d62:	cf 53       	subi	r28, 0x3F	; 63
    2d64:	df 4f       	sbci	r29, 0xFF	; 255
    2d66:	28 81       	ld	r18, Y
    2d68:	39 81       	ldd	r19, Y+1	; 0x01
    2d6a:	4a 81       	ldd	r20, Y+2	; 0x02
    2d6c:	5b 81       	ldd	r21, Y+3	; 0x03
    2d6e:	c1 5c       	subi	r28, 0xC1	; 193
    2d70:	d0 40       	sbci	r29, 0x00	; 0
    2d72:	0e 94 95 24 	call	0x492a	; 0x492a <__mulsf3>
    2d76:	9b 01       	movw	r18, r22
    2d78:	ac 01       	movw	r20, r24
    2d7a:	c7 01       	movw	r24, r14
    2d7c:	b6 01       	movw	r22, r12
    2d7e:	0e 94 fb 22 	call	0x45f6	; 0x45f6 <__addsf3>
    2d82:	6b 01       	movw	r12, r22
    2d84:	7c 01       	movw	r14, r24
    2d86:	2d 96       	adiw	r28, 0x0d	; 13
    2d88:	2c ad       	ldd	r18, Y+60	; 0x3c
    2d8a:	3d ad       	ldd	r19, Y+61	; 0x3d
    2d8c:	4e ad       	ldd	r20, Y+62	; 0x3e
    2d8e:	5f ad       	ldd	r21, Y+63	; 0x3f
    2d90:	2d 97       	sbiw	r28, 0x0d	; 13
    2d92:	cf 53       	subi	r28, 0x3F	; 63
    2d94:	df 4f       	sbci	r29, 0xFF	; 255
    2d96:	68 81       	ld	r22, Y
    2d98:	79 81       	ldd	r23, Y+1	; 0x01
    2d9a:	8a 81       	ldd	r24, Y+2	; 0x02
    2d9c:	9b 81       	ldd	r25, Y+3	; 0x03
    2d9e:	c1 5c       	subi	r28, 0xC1	; 193
    2da0:	d0 40       	sbci	r29, 0x00	; 0
    2da2:	0e 94 95 24 	call	0x492a	; 0x492a <__mulsf3>
    2da6:	9b 01       	movw	r18, r22
    2da8:	ac 01       	movw	r20, r24
    2daa:	c7 01       	movw	r24, r14
    2dac:	b6 01       	movw	r22, r12
    2dae:	0e 94 fb 22 	call	0x45f6	; 0x45f6 <__addsf3>
    2db2:	29 96       	adiw	r28, 0x09	; 9
    2db4:	2c ad       	ldd	r18, Y+60	; 0x3c
    2db6:	3d ad       	ldd	r19, Y+61	; 0x3d
    2db8:	4e ad       	ldd	r20, Y+62	; 0x3e
    2dba:	5f ad       	ldd	r21, Y+63	; 0x3f
    2dbc:	29 97       	sbiw	r28, 0x09	; 9
    2dbe:	0e 94 fb 22 	call	0x45f6	; 0x45f6 <__addsf3>
    2dc2:	c3 55       	subi	r28, 0x53	; 83
    2dc4:	df 4f       	sbci	r29, 0xFF	; 255
    2dc6:	68 83       	st	Y, r22
    2dc8:	79 83       	std	Y+1, r23	; 0x01
    2dca:	8a 83       	std	Y+2, r24	; 0x02
    2dcc:	9b 83       	std	Y+3, r25	; 0x03
    2dce:	cd 5a       	subi	r28, 0xAD	; 173
    2dd0:	d0 40       	sbci	r29, 0x00	; 0
		TEMP_Cor_VAL[2] = P2[4]*pow(T_d,4) + P2[3]*pow(T_d,3) + P2[2]*T_d*T_d + P2[1]*T_d + P2[0];   //  1/5负载下温度-修正值曲线
    2dd2:	ad 96       	adiw	r28, 0x2d	; 45
    2dd4:	2c ad       	ldd	r18, Y+60	; 0x3c
    2dd6:	3d ad       	ldd	r19, Y+61	; 0x3d
    2dd8:	4e ad       	ldd	r20, Y+62	; 0x3e
    2dda:	5f ad       	ldd	r21, Y+63	; 0x3f
    2ddc:	ad 97       	sbiw	r28, 0x2d	; 45
    2dde:	c5 01       	movw	r24, r10
    2de0:	b4 01       	movw	r22, r8
    2de2:	0e 94 95 24 	call	0x492a	; 0x492a <__mulsf3>
    2de6:	6b 01       	movw	r12, r22
    2de8:	7c 01       	movw	r14, r24
    2dea:	a9 96       	adiw	r28, 0x29	; 41
    2dec:	2c ad       	ldd	r18, Y+60	; 0x3c
    2dee:	3d ad       	ldd	r19, Y+61	; 0x3d
    2df0:	4e ad       	ldd	r20, Y+62	; 0x3e
    2df2:	5f ad       	ldd	r21, Y+63	; 0x3f
    2df4:	a9 97       	sbiw	r28, 0x29	; 41
    2df6:	c3 53       	subi	r28, 0x33	; 51
    2df8:	df 4f       	sbci	r29, 0xFF	; 255
    2dfa:	68 81       	ld	r22, Y
    2dfc:	79 81       	ldd	r23, Y+1	; 0x01
    2dfe:	8a 81       	ldd	r24, Y+2	; 0x02
    2e00:	9b 81       	ldd	r25, Y+3	; 0x03
    2e02:	cd 5c       	subi	r28, 0xCD	; 205
    2e04:	d0 40       	sbci	r29, 0x00	; 0
    2e06:	0e 94 95 24 	call	0x492a	; 0x492a <__mulsf3>
    2e0a:	9b 01       	movw	r18, r22
    2e0c:	ac 01       	movw	r20, r24
    2e0e:	c7 01       	movw	r24, r14
    2e10:	b6 01       	movw	r22, r12
    2e12:	0e 94 fb 22 	call	0x45f6	; 0x45f6 <__addsf3>
    2e16:	6b 01       	movw	r12, r22
    2e18:	7c 01       	movw	r14, r24
    2e1a:	a5 96       	adiw	r28, 0x25	; 37
    2e1c:	2c ad       	ldd	r18, Y+60	; 0x3c
    2e1e:	3d ad       	ldd	r19, Y+61	; 0x3d
    2e20:	4e ad       	ldd	r20, Y+62	; 0x3e
    2e22:	5f ad       	ldd	r21, Y+63	; 0x3f
    2e24:	a5 97       	sbiw	r28, 0x25	; 37
    2e26:	cf 53       	subi	r28, 0x3F	; 63
    2e28:	df 4f       	sbci	r29, 0xFF	; 255
    2e2a:	68 81       	ld	r22, Y
    2e2c:	79 81       	ldd	r23, Y+1	; 0x01
    2e2e:	8a 81       	ldd	r24, Y+2	; 0x02
    2e30:	9b 81       	ldd	r25, Y+3	; 0x03
    2e32:	c1 5c       	subi	r28, 0xC1	; 193
    2e34:	d0 40       	sbci	r29, 0x00	; 0
    2e36:	0e 94 95 24 	call	0x492a	; 0x492a <__mulsf3>
    2e3a:	cf 53       	subi	r28, 0x3F	; 63
    2e3c:	df 4f       	sbci	r29, 0xFF	; 255
    2e3e:	28 81       	ld	r18, Y
    2e40:	39 81       	ldd	r19, Y+1	; 0x01
    2e42:	4a 81       	ldd	r20, Y+2	; 0x02
    2e44:	5b 81       	ldd	r21, Y+3	; 0x03
    2e46:	c1 5c       	subi	r28, 0xC1	; 193
    2e48:	d0 40       	sbci	r29, 0x00	; 0
    2e4a:	0e 94 95 24 	call	0x492a	; 0x492a <__mulsf3>
    2e4e:	9b 01       	movw	r18, r22
    2e50:	ac 01       	movw	r20, r24
    2e52:	c7 01       	movw	r24, r14
    2e54:	b6 01       	movw	r22, r12
    2e56:	0e 94 fb 22 	call	0x45f6	; 0x45f6 <__addsf3>
    2e5a:	6b 01       	movw	r12, r22
    2e5c:	7c 01       	movw	r14, r24
    2e5e:	a1 96       	adiw	r28, 0x21	; 33
    2e60:	2c ad       	ldd	r18, Y+60	; 0x3c
    2e62:	3d ad       	ldd	r19, Y+61	; 0x3d
    2e64:	4e ad       	ldd	r20, Y+62	; 0x3e
    2e66:	5f ad       	ldd	r21, Y+63	; 0x3f
    2e68:	a1 97       	sbiw	r28, 0x21	; 33
    2e6a:	cf 53       	subi	r28, 0x3F	; 63
    2e6c:	df 4f       	sbci	r29, 0xFF	; 255
    2e6e:	68 81       	ld	r22, Y
    2e70:	79 81       	ldd	r23, Y+1	; 0x01
    2e72:	8a 81       	ldd	r24, Y+2	; 0x02
    2e74:	9b 81       	ldd	r25, Y+3	; 0x03
    2e76:	c1 5c       	subi	r28, 0xC1	; 193
    2e78:	d0 40       	sbci	r29, 0x00	; 0
    2e7a:	0e 94 95 24 	call	0x492a	; 0x492a <__mulsf3>
    2e7e:	9b 01       	movw	r18, r22
    2e80:	ac 01       	movw	r20, r24
    2e82:	c7 01       	movw	r24, r14
    2e84:	b6 01       	movw	r22, r12
    2e86:	0e 94 fb 22 	call	0x45f6	; 0x45f6 <__addsf3>
    2e8a:	6d 96       	adiw	r28, 0x1d	; 29
    2e8c:	2c ad       	ldd	r18, Y+60	; 0x3c
    2e8e:	3d ad       	ldd	r19, Y+61	; 0x3d
    2e90:	4e ad       	ldd	r20, Y+62	; 0x3e
    2e92:	5f ad       	ldd	r21, Y+63	; 0x3f
    2e94:	6d 97       	sbiw	r28, 0x1d	; 29
    2e96:	0e 94 fb 22 	call	0x45f6	; 0x45f6 <__addsf3>
    2e9a:	cf 54       	subi	r28, 0x4F	; 79
    2e9c:	df 4f       	sbci	r29, 0xFF	; 255
    2e9e:	68 83       	st	Y, r22
    2ea0:	79 83       	std	Y+1, r23	; 0x01
    2ea2:	8a 83       	std	Y+2, r24	; 0x02
    2ea4:	9b 83       	std	Y+3, r25	; 0x03
    2ea6:	c1 5b       	subi	r28, 0xB1	; 177
    2ea8:	d0 40       	sbci	r29, 0x00	; 0
		TEMP_Cor_VAL[3] = P3[4]*pow(T_d,4) + P3[3]*pow(T_d,3) + P3[2]*T_d*T_d + P3[1]*T_d + P3[0];   //  1/5负载下温度-修正值曲线
    2eaa:	c3 58       	subi	r28, 0x83	; 131
    2eac:	df 4f       	sbci	r29, 0xFF	; 255
    2eae:	28 81       	ld	r18, Y
    2eb0:	39 81       	ldd	r19, Y+1	; 0x01
    2eb2:	4a 81       	ldd	r20, Y+2	; 0x02
    2eb4:	5b 81       	ldd	r21, Y+3	; 0x03
    2eb6:	cd 57       	subi	r28, 0x7D	; 125
    2eb8:	d0 40       	sbci	r29, 0x00	; 0
    2eba:	c5 01       	movw	r24, r10
    2ebc:	b4 01       	movw	r22, r8
    2ebe:	0e 94 95 24 	call	0x492a	; 0x492a <__mulsf3>
    2ec2:	6b 01       	movw	r12, r22
    2ec4:	7c 01       	movw	r14, r24
    2ec6:	ed 96       	adiw	r28, 0x3d	; 61
    2ec8:	2c ad       	ldd	r18, Y+60	; 0x3c
    2eca:	3d ad       	ldd	r19, Y+61	; 0x3d
    2ecc:	4e ad       	ldd	r20, Y+62	; 0x3e
    2ece:	5f ad       	ldd	r21, Y+63	; 0x3f
    2ed0:	ed 97       	sbiw	r28, 0x3d	; 61
    2ed2:	c3 53       	subi	r28, 0x33	; 51
    2ed4:	df 4f       	sbci	r29, 0xFF	; 255
    2ed6:	68 81       	ld	r22, Y
    2ed8:	79 81       	ldd	r23, Y+1	; 0x01
    2eda:	8a 81       	ldd	r24, Y+2	; 0x02
    2edc:	9b 81       	ldd	r25, Y+3	; 0x03
    2ede:	cd 5c       	subi	r28, 0xCD	; 205
    2ee0:	d0 40       	sbci	r29, 0x00	; 0
    2ee2:	0e 94 95 24 	call	0x492a	; 0x492a <__mulsf3>
    2ee6:	9b 01       	movw	r18, r22
    2ee8:	ac 01       	movw	r20, r24
    2eea:	c7 01       	movw	r24, r14
    2eec:	b6 01       	movw	r22, r12
    2eee:	0e 94 fb 22 	call	0x45f6	; 0x45f6 <__addsf3>
    2ef2:	6b 01       	movw	r12, r22
    2ef4:	7c 01       	movw	r14, r24
    2ef6:	e9 96       	adiw	r28, 0x39	; 57
    2ef8:	2c ad       	ldd	r18, Y+60	; 0x3c
    2efa:	3d ad       	ldd	r19, Y+61	; 0x3d
    2efc:	4e ad       	ldd	r20, Y+62	; 0x3e
    2efe:	5f ad       	ldd	r21, Y+63	; 0x3f
    2f00:	e9 97       	sbiw	r28, 0x39	; 57
    2f02:	cf 53       	subi	r28, 0x3F	; 63
    2f04:	df 4f       	sbci	r29, 0xFF	; 255
    2f06:	68 81       	ld	r22, Y
    2f08:	79 81       	ldd	r23, Y+1	; 0x01
    2f0a:	8a 81       	ldd	r24, Y+2	; 0x02
    2f0c:	9b 81       	ldd	r25, Y+3	; 0x03
    2f0e:	c1 5c       	subi	r28, 0xC1	; 193
    2f10:	d0 40       	sbci	r29, 0x00	; 0
    2f12:	0e 94 95 24 	call	0x492a	; 0x492a <__mulsf3>
    2f16:	cf 53       	subi	r28, 0x3F	; 63
    2f18:	df 4f       	sbci	r29, 0xFF	; 255
    2f1a:	28 81       	ld	r18, Y
    2f1c:	39 81       	ldd	r19, Y+1	; 0x01
    2f1e:	4a 81       	ldd	r20, Y+2	; 0x02
    2f20:	5b 81       	ldd	r21, Y+3	; 0x03
    2f22:	c1 5c       	subi	r28, 0xC1	; 193
    2f24:	d0 40       	sbci	r29, 0x00	; 0
    2f26:	0e 94 95 24 	call	0x492a	; 0x492a <__mulsf3>
    2f2a:	9b 01       	movw	r18, r22
    2f2c:	ac 01       	movw	r20, r24
    2f2e:	c7 01       	movw	r24, r14
    2f30:	b6 01       	movw	r22, r12
    2f32:	0e 94 fb 22 	call	0x45f6	; 0x45f6 <__addsf3>
    2f36:	6b 01       	movw	r12, r22
    2f38:	7c 01       	movw	r14, r24
    2f3a:	e5 96       	adiw	r28, 0x35	; 53
    2f3c:	2c ad       	ldd	r18, Y+60	; 0x3c
    2f3e:	3d ad       	ldd	r19, Y+61	; 0x3d
    2f40:	4e ad       	ldd	r20, Y+62	; 0x3e
    2f42:	5f ad       	ldd	r21, Y+63	; 0x3f
    2f44:	e5 97       	sbiw	r28, 0x35	; 53
    2f46:	cf 53       	subi	r28, 0x3F	; 63
    2f48:	df 4f       	sbci	r29, 0xFF	; 255
    2f4a:	68 81       	ld	r22, Y
    2f4c:	79 81       	ldd	r23, Y+1	; 0x01
    2f4e:	8a 81       	ldd	r24, Y+2	; 0x02
    2f50:	9b 81       	ldd	r25, Y+3	; 0x03
    2f52:	c1 5c       	subi	r28, 0xC1	; 193
    2f54:	d0 40       	sbci	r29, 0x00	; 0
    2f56:	0e 94 95 24 	call	0x492a	; 0x492a <__mulsf3>
    2f5a:	9b 01       	movw	r18, r22
    2f5c:	ac 01       	movw	r20, r24
    2f5e:	c7 01       	movw	r24, r14
    2f60:	b6 01       	movw	r22, r12
    2f62:	0e 94 fb 22 	call	0x45f6	; 0x45f6 <__addsf3>
    2f66:	e1 96       	adiw	r28, 0x31	; 49
    2f68:	2c ad       	ldd	r18, Y+60	; 0x3c
    2f6a:	3d ad       	ldd	r19, Y+61	; 0x3d
    2f6c:	4e ad       	ldd	r20, Y+62	; 0x3e
    2f6e:	5f ad       	ldd	r21, Y+63	; 0x3f
    2f70:	e1 97       	sbiw	r28, 0x31	; 49
    2f72:	0e 94 fb 22 	call	0x45f6	; 0x45f6 <__addsf3>
    2f76:	cb 54       	subi	r28, 0x4B	; 75
    2f78:	df 4f       	sbci	r29, 0xFF	; 255
    2f7a:	68 83       	st	Y, r22
    2f7c:	79 83       	std	Y+1, r23	; 0x01
    2f7e:	8a 83       	std	Y+2, r24	; 0x02
    2f80:	9b 83       	std	Y+3, r25	; 0x03
    2f82:	c5 5b       	subi	r28, 0xB5	; 181
    2f84:	d0 40       	sbci	r29, 0x00	; 0
		TEMP_Cor_VAL[4] = P4[4]*pow(T_d,4) + P4[3]*pow(T_d,3) + P4[2]*T_d*T_d + P4[1]*T_d + P4[0];   //  1/5负载下温度-修正值曲线
    2f86:	cf 56       	subi	r28, 0x6F	; 111
    2f88:	df 4f       	sbci	r29, 0xFF	; 255
    2f8a:	28 81       	ld	r18, Y
    2f8c:	39 81       	ldd	r19, Y+1	; 0x01
    2f8e:	4a 81       	ldd	r20, Y+2	; 0x02
    2f90:	5b 81       	ldd	r21, Y+3	; 0x03
    2f92:	c1 59       	subi	r28, 0x91	; 145
    2f94:	d0 40       	sbci	r29, 0x00	; 0
    2f96:	c5 01       	movw	r24, r10
    2f98:	b4 01       	movw	r22, r8
    2f9a:	0e 94 95 24 	call	0x492a	; 0x492a <__mulsf3>
    2f9e:	6b 01       	movw	r12, r22
    2fa0:	7c 01       	movw	r14, r24
    2fa2:	c3 57       	subi	r28, 0x73	; 115
    2fa4:	df 4f       	sbci	r29, 0xFF	; 255
    2fa6:	28 81       	ld	r18, Y
    2fa8:	39 81       	ldd	r19, Y+1	; 0x01
    2faa:	4a 81       	ldd	r20, Y+2	; 0x02
    2fac:	5b 81       	ldd	r21, Y+3	; 0x03
    2fae:	cd 58       	subi	r28, 0x8D	; 141
    2fb0:	d0 40       	sbci	r29, 0x00	; 0
    2fb2:	c3 53       	subi	r28, 0x33	; 51
    2fb4:	df 4f       	sbci	r29, 0xFF	; 255
    2fb6:	68 81       	ld	r22, Y
    2fb8:	79 81       	ldd	r23, Y+1	; 0x01
    2fba:	8a 81       	ldd	r24, Y+2	; 0x02
    2fbc:	9b 81       	ldd	r25, Y+3	; 0x03
    2fbe:	cd 5c       	subi	r28, 0xCD	; 205
    2fc0:	d0 40       	sbci	r29, 0x00	; 0
    2fc2:	0e 94 95 24 	call	0x492a	; 0x492a <__mulsf3>
    2fc6:	9b 01       	movw	r18, r22
    2fc8:	ac 01       	movw	r20, r24
    2fca:	c7 01       	movw	r24, r14
    2fcc:	b6 01       	movw	r22, r12
    2fce:	0e 94 fb 22 	call	0x45f6	; 0x45f6 <__addsf3>
    2fd2:	6b 01       	movw	r12, r22
    2fd4:	7c 01       	movw	r14, r24
    2fd6:	c7 57       	subi	r28, 0x77	; 119
    2fd8:	df 4f       	sbci	r29, 0xFF	; 255
    2fda:	28 81       	ld	r18, Y
    2fdc:	39 81       	ldd	r19, Y+1	; 0x01
    2fde:	4a 81       	ldd	r20, Y+2	; 0x02
    2fe0:	5b 81       	ldd	r21, Y+3	; 0x03
    2fe2:	c9 58       	subi	r28, 0x89	; 137
    2fe4:	d0 40       	sbci	r29, 0x00	; 0
    2fe6:	cf 53       	subi	r28, 0x3F	; 63
    2fe8:	df 4f       	sbci	r29, 0xFF	; 255
    2fea:	68 81       	ld	r22, Y
    2fec:	79 81       	ldd	r23, Y+1	; 0x01
    2fee:	8a 81       	ldd	r24, Y+2	; 0x02
    2ff0:	9b 81       	ldd	r25, Y+3	; 0x03
    2ff2:	c1 5c       	subi	r28, 0xC1	; 193
    2ff4:	d0 40       	sbci	r29, 0x00	; 0
    2ff6:	0e 94 95 24 	call	0x492a	; 0x492a <__mulsf3>
    2ffa:	cf 53       	subi	r28, 0x3F	; 63
    2ffc:	df 4f       	sbci	r29, 0xFF	; 255
    2ffe:	28 81       	ld	r18, Y
    3000:	39 81       	ldd	r19, Y+1	; 0x01
    3002:	4a 81       	ldd	r20, Y+2	; 0x02
    3004:	5b 81       	ldd	r21, Y+3	; 0x03
    3006:	c1 5c       	subi	r28, 0xC1	; 193
    3008:	d0 40       	sbci	r29, 0x00	; 0
    300a:	0e 94 95 24 	call	0x492a	; 0x492a <__mulsf3>
    300e:	9b 01       	movw	r18, r22
    3010:	ac 01       	movw	r20, r24
    3012:	c7 01       	movw	r24, r14
    3014:	b6 01       	movw	r22, r12
    3016:	0e 94 fb 22 	call	0x45f6	; 0x45f6 <__addsf3>
    301a:	6b 01       	movw	r12, r22
    301c:	7c 01       	movw	r14, r24
    301e:	cb 57       	subi	r28, 0x7B	; 123
    3020:	df 4f       	sbci	r29, 0xFF	; 255
    3022:	28 81       	ld	r18, Y
    3024:	39 81       	ldd	r19, Y+1	; 0x01
    3026:	4a 81       	ldd	r20, Y+2	; 0x02
    3028:	5b 81       	ldd	r21, Y+3	; 0x03
    302a:	c5 58       	subi	r28, 0x85	; 133
    302c:	d0 40       	sbci	r29, 0x00	; 0
    302e:	cf 53       	subi	r28, 0x3F	; 63
    3030:	df 4f       	sbci	r29, 0xFF	; 255
    3032:	68 81       	ld	r22, Y
    3034:	79 81       	ldd	r23, Y+1	; 0x01
    3036:	8a 81       	ldd	r24, Y+2	; 0x02
    3038:	9b 81       	ldd	r25, Y+3	; 0x03
    303a:	c1 5c       	subi	r28, 0xC1	; 193
    303c:	d0 40       	sbci	r29, 0x00	; 0
    303e:	0e 94 95 24 	call	0x492a	; 0x492a <__mulsf3>
    3042:	9b 01       	movw	r18, r22
    3044:	ac 01       	movw	r20, r24
    3046:	c7 01       	movw	r24, r14
    3048:	b6 01       	movw	r22, r12
    304a:	0e 94 fb 22 	call	0x45f6	; 0x45f6 <__addsf3>
    304e:	cf 57       	subi	r28, 0x7F	; 127
    3050:	df 4f       	sbci	r29, 0xFF	; 255
    3052:	28 81       	ld	r18, Y
    3054:	39 81       	ldd	r19, Y+1	; 0x01
    3056:	4a 81       	ldd	r20, Y+2	; 0x02
    3058:	5b 81       	ldd	r21, Y+3	; 0x03
    305a:	c1 58       	subi	r28, 0x81	; 129
    305c:	d0 40       	sbci	r29, 0x00	; 0
    305e:	0e 94 fb 22 	call	0x45f6	; 0x45f6 <__addsf3>
    3062:	c7 54       	subi	r28, 0x47	; 71
    3064:	df 4f       	sbci	r29, 0xFF	; 255
    3066:	68 83       	st	Y, r22
    3068:	79 83       	std	Y+1, r23	; 0x01
    306a:	8a 83       	std	Y+2, r24	; 0x02
    306c:	9b 83       	std	Y+3, r25	; 0x03
    306e:	c9 5b       	subi	r28, 0xB9	; 185
    3070:	d0 40       	sbci	r29, 0x00	; 0
		TEMP_Cor_VAL[5] = P5[4]*pow(T_d,4) + P5[3]*pow(T_d,3) + P5[2]*T_d*T_d + P5[1]*T_d + P5[0];   //  满负载下温度-修正值曲线
    3072:	cb 55       	subi	r28, 0x5B	; 91
    3074:	df 4f       	sbci	r29, 0xFF	; 255
    3076:	28 81       	ld	r18, Y
    3078:	39 81       	ldd	r19, Y+1	; 0x01
    307a:	4a 81       	ldd	r20, Y+2	; 0x02
    307c:	5b 81       	ldd	r21, Y+3	; 0x03
    307e:	c5 5a       	subi	r28, 0xA5	; 165
    3080:	d0 40       	sbci	r29, 0x00	; 0
    3082:	c5 01       	movw	r24, r10
    3084:	b4 01       	movw	r22, r8
    3086:	0e 94 95 24 	call	0x492a	; 0x492a <__mulsf3>
    308a:	6b 01       	movw	r12, r22
    308c:	7c 01       	movw	r14, r24
    308e:	cf 55       	subi	r28, 0x5F	; 95
    3090:	df 4f       	sbci	r29, 0xFF	; 255
    3092:	28 81       	ld	r18, Y
    3094:	39 81       	ldd	r19, Y+1	; 0x01
    3096:	4a 81       	ldd	r20, Y+2	; 0x02
    3098:	5b 81       	ldd	r21, Y+3	; 0x03
    309a:	c1 5a       	subi	r28, 0xA1	; 161
    309c:	d0 40       	sbci	r29, 0x00	; 0
    309e:	c3 53       	subi	r28, 0x33	; 51
    30a0:	df 4f       	sbci	r29, 0xFF	; 255
    30a2:	68 81       	ld	r22, Y
    30a4:	79 81       	ldd	r23, Y+1	; 0x01
    30a6:	8a 81       	ldd	r24, Y+2	; 0x02
    30a8:	9b 81       	ldd	r25, Y+3	; 0x03
    30aa:	cd 5c       	subi	r28, 0xCD	; 205
    30ac:	d0 40       	sbci	r29, 0x00	; 0
    30ae:	0e 94 95 24 	call	0x492a	; 0x492a <__mulsf3>
    30b2:	9b 01       	movw	r18, r22
    30b4:	ac 01       	movw	r20, r24
    30b6:	c7 01       	movw	r24, r14
    30b8:	b6 01       	movw	r22, r12
    30ba:	0e 94 fb 22 	call	0x45f6	; 0x45f6 <__addsf3>
    30be:	6b 01       	movw	r12, r22
    30c0:	7c 01       	movw	r14, r24
    30c2:	c3 56       	subi	r28, 0x63	; 99
    30c4:	df 4f       	sbci	r29, 0xFF	; 255
    30c6:	28 81       	ld	r18, Y
    30c8:	39 81       	ldd	r19, Y+1	; 0x01
    30ca:	4a 81       	ldd	r20, Y+2	; 0x02
    30cc:	5b 81       	ldd	r21, Y+3	; 0x03
    30ce:	cd 59       	subi	r28, 0x9D	; 157
    30d0:	d0 40       	sbci	r29, 0x00	; 0
    30d2:	cf 53       	subi	r28, 0x3F	; 63
    30d4:	df 4f       	sbci	r29, 0xFF	; 255
    30d6:	68 81       	ld	r22, Y
    30d8:	79 81       	ldd	r23, Y+1	; 0x01
    30da:	8a 81       	ldd	r24, Y+2	; 0x02
    30dc:	9b 81       	ldd	r25, Y+3	; 0x03
    30de:	c1 5c       	subi	r28, 0xC1	; 193
    30e0:	d0 40       	sbci	r29, 0x00	; 0
    30e2:	0e 94 95 24 	call	0x492a	; 0x492a <__mulsf3>
    30e6:	cf 53       	subi	r28, 0x3F	; 63
    30e8:	df 4f       	sbci	r29, 0xFF	; 255
    30ea:	28 81       	ld	r18, Y
    30ec:	39 81       	ldd	r19, Y+1	; 0x01
    30ee:	4a 81       	ldd	r20, Y+2	; 0x02
    30f0:	5b 81       	ldd	r21, Y+3	; 0x03
    30f2:	c1 5c       	subi	r28, 0xC1	; 193
    30f4:	d0 40       	sbci	r29, 0x00	; 0
    30f6:	0e 94 95 24 	call	0x492a	; 0x492a <__mulsf3>
    30fa:	9b 01       	movw	r18, r22
    30fc:	ac 01       	movw	r20, r24
    30fe:	c7 01       	movw	r24, r14
    3100:	b6 01       	movw	r22, r12
    3102:	0e 94 fb 22 	call	0x45f6	; 0x45f6 <__addsf3>
    3106:	6b 01       	movw	r12, r22
    3108:	7c 01       	movw	r14, r24
    310a:	c7 56       	subi	r28, 0x67	; 103
    310c:	df 4f       	sbci	r29, 0xFF	; 255
    310e:	28 81       	ld	r18, Y
    3110:	39 81       	ldd	r19, Y+1	; 0x01
    3112:	4a 81       	ldd	r20, Y+2	; 0x02
    3114:	5b 81       	ldd	r21, Y+3	; 0x03
    3116:	c9 59       	subi	r28, 0x99	; 153
    3118:	d0 40       	sbci	r29, 0x00	; 0
    311a:	cf 53       	subi	r28, 0x3F	; 63
    311c:	df 4f       	sbci	r29, 0xFF	; 255
    311e:	68 81       	ld	r22, Y
    3120:	79 81       	ldd	r23, Y+1	; 0x01
    3122:	8a 81       	ldd	r24, Y+2	; 0x02
    3124:	9b 81       	ldd	r25, Y+3	; 0x03
    3126:	c1 5c       	subi	r28, 0xC1	; 193
    3128:	d0 40       	sbci	r29, 0x00	; 0
    312a:	0e 94 95 24 	call	0x492a	; 0x492a <__mulsf3>
    312e:	9b 01       	movw	r18, r22
    3130:	ac 01       	movw	r20, r24
    3132:	c7 01       	movw	r24, r14
    3134:	b6 01       	movw	r22, r12
    3136:	0e 94 fb 22 	call	0x45f6	; 0x45f6 <__addsf3>
    313a:	cb 56       	subi	r28, 0x6B	; 107
    313c:	df 4f       	sbci	r29, 0xFF	; 255
    313e:	28 81       	ld	r18, Y
    3140:	39 81       	ldd	r19, Y+1	; 0x01
    3142:	4a 81       	ldd	r20, Y+2	; 0x02
    3144:	5b 81       	ldd	r21, Y+3	; 0x03
    3146:	c5 59       	subi	r28, 0x95	; 149
    3148:	d0 40       	sbci	r29, 0x00	; 0
    314a:	0e 94 fb 22 	call	0x45f6	; 0x45f6 <__addsf3>
    314e:	c3 54       	subi	r28, 0x43	; 67
    3150:	df 4f       	sbci	r29, 0xFF	; 255
    3152:	68 83       	st	Y, r22
    3154:	79 83       	std	Y+1, r23	; 0x01
    3156:	8a 83       	std	Y+2, r24	; 0x02
    3158:	9b 83       	std	Y+3, r25	; 0x03
    315a:	cd 5b       	subi	r28, 0xBD	; 189
    315c:	d0 40       	sbci	r29, 0x00	; 0
    315e:	fe 01       	movw	r30, r28
    3160:	e7 55       	subi	r30, 0x57	; 87
    3162:	ff 4f       	sbci	r31, 0xFF	; 255
    3164:	7f 01       	movw	r14, r30
    3166:	6f 01       	movw	r12, r30
    3168:	f8 e1       	ldi	r31, 0x18	; 24
    316a:	cf 0e       	add	r12, r31
    316c:	d1 1c       	adc	r13, r1
	
		//六个温度压强曲线上的六个压强差校准点，压强
		for(i=0;i<6;i++)TEMP_Cor_VAL[i]=TEMP_Cor_VAL[i]/(KeepRegister.LocalAccelerationOfGravity*Liquid_D);        //将压强转换为mm液体柱值
    316e:	04 e7       	ldi	r16, 0x74	; 116
    3170:	13 e0       	ldi	r17, 0x03	; 3
    3172:	d8 01       	movw	r26, r16
    3174:	50 96       	adiw	r26, 0x10	; 16
    3176:	2d 91       	ld	r18, X+
    3178:	3d 91       	ld	r19, X+
    317a:	4d 91       	ld	r20, X+
    317c:	5c 91       	ld	r21, X
    317e:	53 97       	sbiw	r26, 0x13	; 19
    3180:	cb 53       	subi	r28, 0x3B	; 59
    3182:	df 4f       	sbci	r29, 0xFF	; 255
    3184:	68 81       	ld	r22, Y
    3186:	79 81       	ldd	r23, Y+1	; 0x01
    3188:	8a 81       	ldd	r24, Y+2	; 0x02
    318a:	9b 81       	ldd	r25, Y+3	; 0x03
    318c:	c5 5c       	subi	r28, 0xC5	; 197
    318e:	d0 40       	sbci	r29, 0x00	; 0
    3190:	0e 94 95 24 	call	0x492a	; 0x492a <__mulsf3>
    3194:	9b 01       	movw	r18, r22
    3196:	ac 01       	movw	r20, r24
    3198:	f7 01       	movw	r30, r14
    319a:	60 81       	ld	r22, Z
    319c:	71 81       	ldd	r23, Z+1	; 0x01
    319e:	82 81       	ldd	r24, Z+2	; 0x02
    31a0:	93 81       	ldd	r25, Z+3	; 0x03
    31a2:	0e 94 6c 23 	call	0x46d8	; 0x46d8 <__divsf3>
    31a6:	d7 01       	movw	r26, r14
    31a8:	6d 93       	st	X+, r22
    31aa:	7d 93       	st	X+, r23
    31ac:	8d 93       	st	X+, r24
    31ae:	9d 93       	st	X+, r25
    31b0:	7d 01       	movw	r14, r26
    31b2:	ac 15       	cp	r26, r12
    31b4:	bd 05       	cpc	r27, r13
    31b6:	e9 f6       	brne	.-70     	; 0x3172 <Level_height_conversion+0xe76>
		
		if     (ADCValue < KeepRegister.MV[1]){Cor_result=(OriginaAltitudeTemp-SV_m[0])*(TEMP_Cor_VAL[1]-TEMP_Cor_VAL[0])/(SV_m[1]-SV_m[0])+TEMP_Cor_VAL[0];}
    31b8:	60 91 90 03 	lds	r22, 0x0390	; 0x800390 <KeepRegister+0x1c>
    31bc:	70 91 91 03 	lds	r23, 0x0391	; 0x800391 <KeepRegister+0x1d>
    31c0:	80 91 92 03 	lds	r24, 0x0392	; 0x800392 <KeepRegister+0x1e>
    31c4:	90 91 93 03 	lds	r25, 0x0393	; 0x800393 <KeepRegister+0x1f>
    31c8:	a3 01       	movw	r20, r6
    31ca:	92 01       	movw	r18, r4
    31cc:	0e 94 90 24 	call	0x4920	; 0x4920 <__gesf2>
    31d0:	18 16       	cp	r1, r24
    31d2:	0c f0       	brlt	.+2      	; 0x31d6 <Level_height_conversion+0xeda>
    31d4:	5b c0       	rjmp	.+182    	; 0x328c <Level_height_conversion+0xf90>
    31d6:	89 8c       	ldd	r8, Y+25	; 0x19
    31d8:	9a 8c       	ldd	r9, Y+26	; 0x1a
    31da:	ab 8c       	ldd	r10, Y+27	; 0x1b
    31dc:	bc 8c       	ldd	r11, Y+28	; 0x1c
    31de:	c7 55       	subi	r28, 0x57	; 87
    31e0:	df 4f       	sbci	r29, 0xFF	; 255
    31e2:	c8 80       	ld	r12, Y
    31e4:	d9 80       	ldd	r13, Y+1	; 0x01
    31e6:	ea 80       	ldd	r14, Y+2	; 0x02
    31e8:	fb 80       	ldd	r15, Y+3	; 0x03
    31ea:	c9 5a       	subi	r28, 0xA9	; 169
    31ec:	d0 40       	sbci	r29, 0x00	; 0
    31ee:	a7 01       	movw	r20, r14
    31f0:	96 01       	movw	r18, r12
    31f2:	c3 55       	subi	r28, 0x53	; 83
    31f4:	df 4f       	sbci	r29, 0xFF	; 255
    31f6:	68 81       	ld	r22, Y
    31f8:	79 81       	ldd	r23, Y+1	; 0x01
    31fa:	8a 81       	ldd	r24, Y+2	; 0x02
    31fc:	9b 81       	ldd	r25, Y+3	; 0x03
    31fe:	cd 5a       	subi	r28, 0xAD	; 173
    3200:	d0 40       	sbci	r29, 0x00	; 0
    3202:	0e 94 fa 22 	call	0x45f4	; 0x45f4 <__subsf3>
    3206:	cf 53       	subi	r28, 0x3F	; 63
    3208:	df 4f       	sbci	r29, 0xFF	; 255
    320a:	68 83       	st	Y, r22
    320c:	79 83       	std	Y+1, r23	; 0x01
    320e:	8a 83       	std	Y+2, r24	; 0x02
    3210:	9b 83       	std	Y+3, r25	; 0x03
    3212:	c1 5c       	subi	r28, 0xC1	; 193
    3214:	d0 40       	sbci	r29, 0x00	; 0
    3216:	a5 01       	movw	r20, r10
    3218:	94 01       	movw	r18, r8
    321a:	cf 52       	subi	r28, 0x2F	; 47
    321c:	df 4f       	sbci	r29, 0xFF	; 255
    321e:	68 81       	ld	r22, Y
    3220:	79 81       	ldd	r23, Y+1	; 0x01
    3222:	8a 81       	ldd	r24, Y+2	; 0x02
    3224:	9b 81       	ldd	r25, Y+3	; 0x03
    3226:	c1 5d       	subi	r28, 0xD1	; 209
    3228:	d0 40       	sbci	r29, 0x00	; 0
    322a:	0e 94 fa 22 	call	0x45f4	; 0x45f4 <__subsf3>
    322e:	9b 01       	movw	r18, r22
    3230:	ac 01       	movw	r20, r24
    3232:	cf 53       	subi	r28, 0x3F	; 63
    3234:	df 4f       	sbci	r29, 0xFF	; 255
    3236:	68 81       	ld	r22, Y
    3238:	79 81       	ldd	r23, Y+1	; 0x01
    323a:	8a 81       	ldd	r24, Y+2	; 0x02
    323c:	9b 81       	ldd	r25, Y+3	; 0x03
    323e:	c1 5c       	subi	r28, 0xC1	; 193
    3240:	d0 40       	sbci	r29, 0x00	; 0
    3242:	0e 94 95 24 	call	0x492a	; 0x492a <__mulsf3>
    3246:	cf 53       	subi	r28, 0x3F	; 63
    3248:	df 4f       	sbci	r29, 0xFF	; 255
    324a:	68 83       	st	Y, r22
    324c:	79 83       	std	Y+1, r23	; 0x01
    324e:	8a 83       	std	Y+2, r24	; 0x02
    3250:	9b 83       	std	Y+3, r25	; 0x03
    3252:	c1 5c       	subi	r28, 0xC1	; 193
    3254:	d0 40       	sbci	r29, 0x00	; 0
    3256:	a5 01       	movw	r20, r10
    3258:	94 01       	movw	r18, r8
    325a:	6d 8d       	ldd	r22, Y+29	; 0x1d
    325c:	7e 8d       	ldd	r23, Y+30	; 0x1e
    325e:	8f 8d       	ldd	r24, Y+31	; 0x1f
    3260:	98 a1       	ldd	r25, Y+32	; 0x20
    3262:	0e 94 fa 22 	call	0x45f4	; 0x45f4 <__subsf3>
    3266:	9b 01       	movw	r18, r22
    3268:	ac 01       	movw	r20, r24
    326a:	cf 53       	subi	r28, 0x3F	; 63
    326c:	df 4f       	sbci	r29, 0xFF	; 255
    326e:	68 81       	ld	r22, Y
    3270:	79 81       	ldd	r23, Y+1	; 0x01
    3272:	8a 81       	ldd	r24, Y+2	; 0x02
    3274:	9b 81       	ldd	r25, Y+3	; 0x03
    3276:	c1 5c       	subi	r28, 0xC1	; 193
    3278:	d0 40       	sbci	r29, 0x00	; 0
    327a:	0e 94 6c 23 	call	0x46d8	; 0x46d8 <__divsf3>
    327e:	a7 01       	movw	r20, r14
    3280:	96 01       	movw	r18, r12
    3282:	0e 94 fb 22 	call	0x45f6	; 0x45f6 <__addsf3>
    3286:	9b 01       	movw	r18, r22
    3288:	ac 01       	movw	r20, r24
    328a:	b8 c1       	rjmp	.+880    	; 0x35fc <Level_height_conversion+0x1300>
		else if(ADCValue < KeepRegister.MV[2]){Cor_result=(OriginaAltitudeTemp-SV_m[1])*(TEMP_Cor_VAL[2]-TEMP_Cor_VAL[1])/(SV_m[2]-SV_m[1])+TEMP_Cor_VAL[1];}
    328c:	60 91 94 03 	lds	r22, 0x0394	; 0x800394 <KeepRegister+0x20>
    3290:	70 91 95 03 	lds	r23, 0x0395	; 0x800395 <KeepRegister+0x21>
    3294:	80 91 96 03 	lds	r24, 0x0396	; 0x800396 <KeepRegister+0x22>
    3298:	90 91 97 03 	lds	r25, 0x0397	; 0x800397 <KeepRegister+0x23>
    329c:	a3 01       	movw	r20, r6
    329e:	92 01       	movw	r18, r4
    32a0:	0e 94 90 24 	call	0x4920	; 0x4920 <__gesf2>
    32a4:	18 16       	cp	r1, r24
    32a6:	0c f0       	brlt	.+2      	; 0x32aa <Level_height_conversion+0xfae>
    32a8:	5b c0       	rjmp	.+182    	; 0x3360 <Level_height_conversion+0x1064>
    32aa:	8d 8c       	ldd	r8, Y+29	; 0x1d
    32ac:	9e 8c       	ldd	r9, Y+30	; 0x1e
    32ae:	af 8c       	ldd	r10, Y+31	; 0x1f
    32b0:	b8 a0       	ldd	r11, Y+32	; 0x20
    32b2:	c3 55       	subi	r28, 0x53	; 83
    32b4:	df 4f       	sbci	r29, 0xFF	; 255
    32b6:	c8 80       	ld	r12, Y
    32b8:	d9 80       	ldd	r13, Y+1	; 0x01
    32ba:	ea 80       	ldd	r14, Y+2	; 0x02
    32bc:	fb 80       	ldd	r15, Y+3	; 0x03
    32be:	cd 5a       	subi	r28, 0xAD	; 173
    32c0:	d0 40       	sbci	r29, 0x00	; 0
    32c2:	a7 01       	movw	r20, r14
    32c4:	96 01       	movw	r18, r12
    32c6:	cf 54       	subi	r28, 0x4F	; 79
    32c8:	df 4f       	sbci	r29, 0xFF	; 255
    32ca:	68 81       	ld	r22, Y
    32cc:	79 81       	ldd	r23, Y+1	; 0x01
    32ce:	8a 81       	ldd	r24, Y+2	; 0x02
    32d0:	9b 81       	ldd	r25, Y+3	; 0x03
    32d2:	c1 5b       	subi	r28, 0xB1	; 177
    32d4:	d0 40       	sbci	r29, 0x00	; 0
    32d6:	0e 94 fa 22 	call	0x45f4	; 0x45f4 <__subsf3>
    32da:	cf 53       	subi	r28, 0x3F	; 63
    32dc:	df 4f       	sbci	r29, 0xFF	; 255
    32de:	68 83       	st	Y, r22
    32e0:	79 83       	std	Y+1, r23	; 0x01
    32e2:	8a 83       	std	Y+2, r24	; 0x02
    32e4:	9b 83       	std	Y+3, r25	; 0x03
    32e6:	c1 5c       	subi	r28, 0xC1	; 193
    32e8:	d0 40       	sbci	r29, 0x00	; 0
    32ea:	a5 01       	movw	r20, r10
    32ec:	94 01       	movw	r18, r8
    32ee:	cf 52       	subi	r28, 0x2F	; 47
    32f0:	df 4f       	sbci	r29, 0xFF	; 255
    32f2:	68 81       	ld	r22, Y
    32f4:	79 81       	ldd	r23, Y+1	; 0x01
    32f6:	8a 81       	ldd	r24, Y+2	; 0x02
    32f8:	9b 81       	ldd	r25, Y+3	; 0x03
    32fa:	c1 5d       	subi	r28, 0xD1	; 209
    32fc:	d0 40       	sbci	r29, 0x00	; 0
    32fe:	0e 94 fa 22 	call	0x45f4	; 0x45f4 <__subsf3>
    3302:	9b 01       	movw	r18, r22
    3304:	ac 01       	movw	r20, r24
    3306:	cf 53       	subi	r28, 0x3F	; 63
    3308:	df 4f       	sbci	r29, 0xFF	; 255
    330a:	68 81       	ld	r22, Y
    330c:	79 81       	ldd	r23, Y+1	; 0x01
    330e:	8a 81       	ldd	r24, Y+2	; 0x02
    3310:	9b 81       	ldd	r25, Y+3	; 0x03
    3312:	c1 5c       	subi	r28, 0xC1	; 193
    3314:	d0 40       	sbci	r29, 0x00	; 0
    3316:	0e 94 95 24 	call	0x492a	; 0x492a <__mulsf3>
    331a:	cf 53       	subi	r28, 0x3F	; 63
    331c:	df 4f       	sbci	r29, 0xFF	; 255
    331e:	68 83       	st	Y, r22
    3320:	79 83       	std	Y+1, r23	; 0x01
    3322:	8a 83       	std	Y+2, r24	; 0x02
    3324:	9b 83       	std	Y+3, r25	; 0x03
    3326:	c1 5c       	subi	r28, 0xC1	; 193
    3328:	d0 40       	sbci	r29, 0x00	; 0
    332a:	a5 01       	movw	r20, r10
    332c:	94 01       	movw	r18, r8
    332e:	69 a1       	ldd	r22, Y+33	; 0x21
    3330:	7a a1       	ldd	r23, Y+34	; 0x22
    3332:	8b a1       	ldd	r24, Y+35	; 0x23
    3334:	9c a1       	ldd	r25, Y+36	; 0x24
    3336:	0e 94 fa 22 	call	0x45f4	; 0x45f4 <__subsf3>
    333a:	9b 01       	movw	r18, r22
    333c:	ac 01       	movw	r20, r24
    333e:	cf 53       	subi	r28, 0x3F	; 63
    3340:	df 4f       	sbci	r29, 0xFF	; 255
    3342:	68 81       	ld	r22, Y
    3344:	79 81       	ldd	r23, Y+1	; 0x01
    3346:	8a 81       	ldd	r24, Y+2	; 0x02
    3348:	9b 81       	ldd	r25, Y+3	; 0x03
    334a:	c1 5c       	subi	r28, 0xC1	; 193
    334c:	d0 40       	sbci	r29, 0x00	; 0
    334e:	0e 94 6c 23 	call	0x46d8	; 0x46d8 <__divsf3>
    3352:	a7 01       	movw	r20, r14
    3354:	96 01       	movw	r18, r12
    3356:	0e 94 fb 22 	call	0x45f6	; 0x45f6 <__addsf3>
    335a:	9b 01       	movw	r18, r22
    335c:	ac 01       	movw	r20, r24
    335e:	4e c1       	rjmp	.+668    	; 0x35fc <Level_height_conversion+0x1300>
		else if(ADCValue < KeepRegister.MV[3]){Cor_result=(OriginaAltitudeTemp-SV_m[2])*(TEMP_Cor_VAL[3]-TEMP_Cor_VAL[2])/(SV_m[3]-SV_m[2])+TEMP_Cor_VAL[2];}
    3360:	60 91 98 03 	lds	r22, 0x0398	; 0x800398 <KeepRegister+0x24>
    3364:	70 91 99 03 	lds	r23, 0x0399	; 0x800399 <KeepRegister+0x25>
    3368:	80 91 9a 03 	lds	r24, 0x039A	; 0x80039a <KeepRegister+0x26>
    336c:	90 91 9b 03 	lds	r25, 0x039B	; 0x80039b <KeepRegister+0x27>
    3370:	a3 01       	movw	r20, r6
    3372:	92 01       	movw	r18, r4
    3374:	0e 94 90 24 	call	0x4920	; 0x4920 <__gesf2>
    3378:	18 16       	cp	r1, r24
    337a:	0c f0       	brlt	.+2      	; 0x337e <Level_height_conversion+0x1082>
    337c:	5b c0       	rjmp	.+182    	; 0x3434 <Level_height_conversion+0x1138>
    337e:	89 a0       	ldd	r8, Y+33	; 0x21
    3380:	9a a0       	ldd	r9, Y+34	; 0x22
    3382:	ab a0       	ldd	r10, Y+35	; 0x23
    3384:	bc a0       	ldd	r11, Y+36	; 0x24
    3386:	cf 54       	subi	r28, 0x4F	; 79
    3388:	df 4f       	sbci	r29, 0xFF	; 255
    338a:	c8 80       	ld	r12, Y
    338c:	d9 80       	ldd	r13, Y+1	; 0x01
    338e:	ea 80       	ldd	r14, Y+2	; 0x02
    3390:	fb 80       	ldd	r15, Y+3	; 0x03
    3392:	c1 5b       	subi	r28, 0xB1	; 177
    3394:	d0 40       	sbci	r29, 0x00	; 0
    3396:	a7 01       	movw	r20, r14
    3398:	96 01       	movw	r18, r12
    339a:	cb 54       	subi	r28, 0x4B	; 75
    339c:	df 4f       	sbci	r29, 0xFF	; 255
    339e:	68 81       	ld	r22, Y
    33a0:	79 81       	ldd	r23, Y+1	; 0x01
    33a2:	8a 81       	ldd	r24, Y+2	; 0x02
    33a4:	9b 81       	ldd	r25, Y+3	; 0x03
    33a6:	c5 5b       	subi	r28, 0xB5	; 181
    33a8:	d0 40       	sbci	r29, 0x00	; 0
    33aa:	0e 94 fa 22 	call	0x45f4	; 0x45f4 <__subsf3>
    33ae:	cf 53       	subi	r28, 0x3F	; 63
    33b0:	df 4f       	sbci	r29, 0xFF	; 255
    33b2:	68 83       	st	Y, r22
    33b4:	79 83       	std	Y+1, r23	; 0x01
    33b6:	8a 83       	std	Y+2, r24	; 0x02
    33b8:	9b 83       	std	Y+3, r25	; 0x03
    33ba:	c1 5c       	subi	r28, 0xC1	; 193
    33bc:	d0 40       	sbci	r29, 0x00	; 0
    33be:	a5 01       	movw	r20, r10
    33c0:	94 01       	movw	r18, r8
    33c2:	cf 52       	subi	r28, 0x2F	; 47
    33c4:	df 4f       	sbci	r29, 0xFF	; 255
    33c6:	68 81       	ld	r22, Y
    33c8:	79 81       	ldd	r23, Y+1	; 0x01
    33ca:	8a 81       	ldd	r24, Y+2	; 0x02
    33cc:	9b 81       	ldd	r25, Y+3	; 0x03
    33ce:	c1 5d       	subi	r28, 0xD1	; 209
    33d0:	d0 40       	sbci	r29, 0x00	; 0
    33d2:	0e 94 fa 22 	call	0x45f4	; 0x45f4 <__subsf3>
    33d6:	9b 01       	movw	r18, r22
    33d8:	ac 01       	movw	r20, r24
    33da:	cf 53       	subi	r28, 0x3F	; 63
    33dc:	df 4f       	sbci	r29, 0xFF	; 255
    33de:	68 81       	ld	r22, Y
    33e0:	79 81       	ldd	r23, Y+1	; 0x01
    33e2:	8a 81       	ldd	r24, Y+2	; 0x02
    33e4:	9b 81       	ldd	r25, Y+3	; 0x03
    33e6:	c1 5c       	subi	r28, 0xC1	; 193
    33e8:	d0 40       	sbci	r29, 0x00	; 0
    33ea:	0e 94 95 24 	call	0x492a	; 0x492a <__mulsf3>
    33ee:	cf 53       	subi	r28, 0x3F	; 63
    33f0:	df 4f       	sbci	r29, 0xFF	; 255
    33f2:	68 83       	st	Y, r22
    33f4:	79 83       	std	Y+1, r23	; 0x01
    33f6:	8a 83       	std	Y+2, r24	; 0x02
    33f8:	9b 83       	std	Y+3, r25	; 0x03
    33fa:	c1 5c       	subi	r28, 0xC1	; 193
    33fc:	d0 40       	sbci	r29, 0x00	; 0
    33fe:	a5 01       	movw	r20, r10
    3400:	94 01       	movw	r18, r8
    3402:	6d a1       	ldd	r22, Y+37	; 0x25
    3404:	7e a1       	ldd	r23, Y+38	; 0x26
    3406:	8f a1       	ldd	r24, Y+39	; 0x27
    3408:	98 a5       	ldd	r25, Y+40	; 0x28
    340a:	0e 94 fa 22 	call	0x45f4	; 0x45f4 <__subsf3>
    340e:	9b 01       	movw	r18, r22
    3410:	ac 01       	movw	r20, r24
    3412:	cf 53       	subi	r28, 0x3F	; 63
    3414:	df 4f       	sbci	r29, 0xFF	; 255
    3416:	68 81       	ld	r22, Y
    3418:	79 81       	ldd	r23, Y+1	; 0x01
    341a:	8a 81       	ldd	r24, Y+2	; 0x02
    341c:	9b 81       	ldd	r25, Y+3	; 0x03
    341e:	c1 5c       	subi	r28, 0xC1	; 193
    3420:	d0 40       	sbci	r29, 0x00	; 0
    3422:	0e 94 6c 23 	call	0x46d8	; 0x46d8 <__divsf3>
    3426:	a7 01       	movw	r20, r14
    3428:	96 01       	movw	r18, r12
    342a:	0e 94 fb 22 	call	0x45f6	; 0x45f6 <__addsf3>
    342e:	9b 01       	movw	r18, r22
    3430:	ac 01       	movw	r20, r24
    3432:	e4 c0       	rjmp	.+456    	; 0x35fc <Level_height_conversion+0x1300>
		else if(ADCValue < KeepRegister.MV[4]){Cor_result=(OriginaAltitudeTemp-SV_m[3])*(TEMP_Cor_VAL[4]-TEMP_Cor_VAL[3])/(SV_m[4]-SV_m[3])+TEMP_Cor_VAL[3];}
    3434:	60 91 9c 03 	lds	r22, 0x039C	; 0x80039c <KeepRegister+0x28>
    3438:	70 91 9d 03 	lds	r23, 0x039D	; 0x80039d <KeepRegister+0x29>
    343c:	80 91 9e 03 	lds	r24, 0x039E	; 0x80039e <KeepRegister+0x2a>
    3440:	90 91 9f 03 	lds	r25, 0x039F	; 0x80039f <KeepRegister+0x2b>
    3444:	a3 01       	movw	r20, r6
    3446:	92 01       	movw	r18, r4
    3448:	0e 94 90 24 	call	0x4920	; 0x4920 <__gesf2>
    344c:	18 16       	cp	r1, r24
    344e:	0c f0       	brlt	.+2      	; 0x3452 <Level_height_conversion+0x1156>
    3450:	5b c0       	rjmp	.+182    	; 0x3508 <Level_height_conversion+0x120c>
    3452:	8d a0       	ldd	r8, Y+37	; 0x25
    3454:	9e a0       	ldd	r9, Y+38	; 0x26
    3456:	af a0       	ldd	r10, Y+39	; 0x27
    3458:	b8 a4       	ldd	r11, Y+40	; 0x28
    345a:	cb 54       	subi	r28, 0x4B	; 75
    345c:	df 4f       	sbci	r29, 0xFF	; 255
    345e:	c8 80       	ld	r12, Y
    3460:	d9 80       	ldd	r13, Y+1	; 0x01
    3462:	ea 80       	ldd	r14, Y+2	; 0x02
    3464:	fb 80       	ldd	r15, Y+3	; 0x03
    3466:	c5 5b       	subi	r28, 0xB5	; 181
    3468:	d0 40       	sbci	r29, 0x00	; 0
    346a:	a7 01       	movw	r20, r14
    346c:	96 01       	movw	r18, r12
    346e:	c7 54       	subi	r28, 0x47	; 71
    3470:	df 4f       	sbci	r29, 0xFF	; 255
    3472:	68 81       	ld	r22, Y
    3474:	79 81       	ldd	r23, Y+1	; 0x01
    3476:	8a 81       	ldd	r24, Y+2	; 0x02
    3478:	9b 81       	ldd	r25, Y+3	; 0x03
    347a:	c9 5b       	subi	r28, 0xB9	; 185
    347c:	d0 40       	sbci	r29, 0x00	; 0
    347e:	0e 94 fa 22 	call	0x45f4	; 0x45f4 <__subsf3>
    3482:	cf 53       	subi	r28, 0x3F	; 63
    3484:	df 4f       	sbci	r29, 0xFF	; 255
    3486:	68 83       	st	Y, r22
    3488:	79 83       	std	Y+1, r23	; 0x01
    348a:	8a 83       	std	Y+2, r24	; 0x02
    348c:	9b 83       	std	Y+3, r25	; 0x03
    348e:	c1 5c       	subi	r28, 0xC1	; 193
    3490:	d0 40       	sbci	r29, 0x00	; 0
    3492:	a5 01       	movw	r20, r10
    3494:	94 01       	movw	r18, r8
    3496:	cf 52       	subi	r28, 0x2F	; 47
    3498:	df 4f       	sbci	r29, 0xFF	; 255
    349a:	68 81       	ld	r22, Y
    349c:	79 81       	ldd	r23, Y+1	; 0x01
    349e:	8a 81       	ldd	r24, Y+2	; 0x02
    34a0:	9b 81       	ldd	r25, Y+3	; 0x03
    34a2:	c1 5d       	subi	r28, 0xD1	; 209
    34a4:	d0 40       	sbci	r29, 0x00	; 0
    34a6:	0e 94 fa 22 	call	0x45f4	; 0x45f4 <__subsf3>
    34aa:	9b 01       	movw	r18, r22
    34ac:	ac 01       	movw	r20, r24
    34ae:	cf 53       	subi	r28, 0x3F	; 63
    34b0:	df 4f       	sbci	r29, 0xFF	; 255
    34b2:	68 81       	ld	r22, Y
    34b4:	79 81       	ldd	r23, Y+1	; 0x01
    34b6:	8a 81       	ldd	r24, Y+2	; 0x02
    34b8:	9b 81       	ldd	r25, Y+3	; 0x03
    34ba:	c1 5c       	subi	r28, 0xC1	; 193
    34bc:	d0 40       	sbci	r29, 0x00	; 0
    34be:	0e 94 95 24 	call	0x492a	; 0x492a <__mulsf3>
    34c2:	cf 53       	subi	r28, 0x3F	; 63
    34c4:	df 4f       	sbci	r29, 0xFF	; 255
    34c6:	68 83       	st	Y, r22
    34c8:	79 83       	std	Y+1, r23	; 0x01
    34ca:	8a 83       	std	Y+2, r24	; 0x02
    34cc:	9b 83       	std	Y+3, r25	; 0x03
    34ce:	c1 5c       	subi	r28, 0xC1	; 193
    34d0:	d0 40       	sbci	r29, 0x00	; 0
    34d2:	a5 01       	movw	r20, r10
    34d4:	94 01       	movw	r18, r8
    34d6:	69 a5       	ldd	r22, Y+41	; 0x29
    34d8:	7a a5       	ldd	r23, Y+42	; 0x2a
    34da:	8b a5       	ldd	r24, Y+43	; 0x2b
    34dc:	9c a5       	ldd	r25, Y+44	; 0x2c
    34de:	0e 94 fa 22 	call	0x45f4	; 0x45f4 <__subsf3>
    34e2:	9b 01       	movw	r18, r22
    34e4:	ac 01       	movw	r20, r24
    34e6:	cf 53       	subi	r28, 0x3F	; 63
    34e8:	df 4f       	sbci	r29, 0xFF	; 255
    34ea:	68 81       	ld	r22, Y
    34ec:	79 81       	ldd	r23, Y+1	; 0x01
    34ee:	8a 81       	ldd	r24, Y+2	; 0x02
    34f0:	9b 81       	ldd	r25, Y+3	; 0x03
    34f2:	c1 5c       	subi	r28, 0xC1	; 193
    34f4:	d0 40       	sbci	r29, 0x00	; 0
    34f6:	0e 94 6c 23 	call	0x46d8	; 0x46d8 <__divsf3>
    34fa:	a7 01       	movw	r20, r14
    34fc:	96 01       	movw	r18, r12
    34fe:	0e 94 fb 22 	call	0x45f6	; 0x45f6 <__addsf3>
    3502:	9b 01       	movw	r18, r22
    3504:	ac 01       	movw	r20, r24
    3506:	7a c0       	rjmp	.+244    	; 0x35fc <Level_height_conversion+0x1300>
		else                                  {Cor_result=(OriginaAltitudeTemp-SV_m[4])*(TEMP_Cor_VAL[5]-TEMP_Cor_VAL[4])/(SV_m[5]-SV_m[4])+TEMP_Cor_VAL[4];}
    3508:	89 a4       	ldd	r8, Y+41	; 0x29
    350a:	9a a4       	ldd	r9, Y+42	; 0x2a
    350c:	ab a4       	ldd	r10, Y+43	; 0x2b
    350e:	bc a4       	ldd	r11, Y+44	; 0x2c
    3510:	c7 54       	subi	r28, 0x47	; 71
    3512:	df 4f       	sbci	r29, 0xFF	; 255
    3514:	c8 80       	ld	r12, Y
    3516:	d9 80       	ldd	r13, Y+1	; 0x01
    3518:	ea 80       	ldd	r14, Y+2	; 0x02
    351a:	fb 80       	ldd	r15, Y+3	; 0x03
    351c:	c9 5b       	subi	r28, 0xB9	; 185
    351e:	d0 40       	sbci	r29, 0x00	; 0
    3520:	a7 01       	movw	r20, r14
    3522:	96 01       	movw	r18, r12
    3524:	c3 54       	subi	r28, 0x43	; 67
    3526:	df 4f       	sbci	r29, 0xFF	; 255
    3528:	68 81       	ld	r22, Y
    352a:	79 81       	ldd	r23, Y+1	; 0x01
    352c:	8a 81       	ldd	r24, Y+2	; 0x02
    352e:	9b 81       	ldd	r25, Y+3	; 0x03
    3530:	cd 5b       	subi	r28, 0xBD	; 189
    3532:	d0 40       	sbci	r29, 0x00	; 0
    3534:	0e 94 fa 22 	call	0x45f4	; 0x45f4 <__subsf3>
    3538:	cf 53       	subi	r28, 0x3F	; 63
    353a:	df 4f       	sbci	r29, 0xFF	; 255
    353c:	68 83       	st	Y, r22
    353e:	79 83       	std	Y+1, r23	; 0x01
    3540:	8a 83       	std	Y+2, r24	; 0x02
    3542:	9b 83       	std	Y+3, r25	; 0x03
    3544:	c1 5c       	subi	r28, 0xC1	; 193
    3546:	d0 40       	sbci	r29, 0x00	; 0
    3548:	a5 01       	movw	r20, r10
    354a:	94 01       	movw	r18, r8
    354c:	cf 52       	subi	r28, 0x2F	; 47
    354e:	df 4f       	sbci	r29, 0xFF	; 255
    3550:	68 81       	ld	r22, Y
    3552:	79 81       	ldd	r23, Y+1	; 0x01
    3554:	8a 81       	ldd	r24, Y+2	; 0x02
    3556:	9b 81       	ldd	r25, Y+3	; 0x03
    3558:	c1 5d       	subi	r28, 0xD1	; 209
    355a:	d0 40       	sbci	r29, 0x00	; 0
    355c:	0e 94 fa 22 	call	0x45f4	; 0x45f4 <__subsf3>
    3560:	9b 01       	movw	r18, r22
    3562:	ac 01       	movw	r20, r24
    3564:	cf 53       	subi	r28, 0x3F	; 63
    3566:	df 4f       	sbci	r29, 0xFF	; 255
    3568:	68 81       	ld	r22, Y
    356a:	79 81       	ldd	r23, Y+1	; 0x01
    356c:	8a 81       	ldd	r24, Y+2	; 0x02
    356e:	9b 81       	ldd	r25, Y+3	; 0x03
    3570:	c1 5c       	subi	r28, 0xC1	; 193
    3572:	d0 40       	sbci	r29, 0x00	; 0
    3574:	0e 94 95 24 	call	0x492a	; 0x492a <__mulsf3>
    3578:	cf 53       	subi	r28, 0x3F	; 63
    357a:	df 4f       	sbci	r29, 0xFF	; 255
    357c:	68 83       	st	Y, r22
    357e:	79 83       	std	Y+1, r23	; 0x01
    3580:	8a 83       	std	Y+2, r24	; 0x02
    3582:	9b 83       	std	Y+3, r25	; 0x03
    3584:	c1 5c       	subi	r28, 0xC1	; 193
    3586:	d0 40       	sbci	r29, 0x00	; 0
    3588:	a5 01       	movw	r20, r10
    358a:	94 01       	movw	r18, r8
    358c:	6d a5       	ldd	r22, Y+45	; 0x2d
    358e:	7e a5       	ldd	r23, Y+46	; 0x2e
    3590:	8f a5       	ldd	r24, Y+47	; 0x2f
    3592:	98 a9       	ldd	r25, Y+48	; 0x30
    3594:	0e 94 fa 22 	call	0x45f4	; 0x45f4 <__subsf3>
    3598:	9b 01       	movw	r18, r22
    359a:	ac 01       	movw	r20, r24
    359c:	cf 53       	subi	r28, 0x3F	; 63
    359e:	df 4f       	sbci	r29, 0xFF	; 255
    35a0:	68 81       	ld	r22, Y
    35a2:	79 81       	ldd	r23, Y+1	; 0x01
    35a4:	8a 81       	ldd	r24, Y+2	; 0x02
    35a6:	9b 81       	ldd	r25, Y+3	; 0x03
    35a8:	c1 5c       	subi	r28, 0xC1	; 193
    35aa:	d0 40       	sbci	r29, 0x00	; 0
    35ac:	0e 94 6c 23 	call	0x46d8	; 0x46d8 <__divsf3>
    35b0:	a7 01       	movw	r20, r14
    35b2:	96 01       	movw	r18, r12
    35b4:	0e 94 fb 22 	call	0x45f6	; 0x45f6 <__addsf3>
    35b8:	9b 01       	movw	r18, r22
    35ba:	ac 01       	movw	r20, r24
    35bc:	1f c0       	rjmp	.+62     	; 0x35fc <Level_height_conversion+0x1300>
	}
	else 
		Cor_result=0;
    35be:	20 e0       	ldi	r18, 0x00	; 0
    35c0:	30 e0       	ldi	r19, 0x00	; 0
    35c2:	a9 01       	movw	r20, r18
    35c4:	1b c0       	rjmp	.+54     	; 0x35fc <Level_height_conversion+0x1300>
	/************************************************************************
	**多阶线性校准                                                           
	************************************************************************/
	for(i=0;i<6;i++) SV[i]= i*(float)KeepRegister.Sensor_Range*1000/5;       //计算五阶校准标准点
	
	for(i=0;i<1;i++) ADCValue += ADCSmaple();	                             //采样
    35c6:	0e 94 9c 04 	call	0x938	; 0x938 <ADCSmaple>
    35ca:	20 e0       	ldi	r18, 0x00	; 0
    35cc:	30 e0       	ldi	r19, 0x00	; 0
    35ce:	a9 01       	movw	r20, r18
    35d0:	0e 94 fb 22 	call	0x45f6	; 0x45f6 <__addsf3>
    35d4:	2b 01       	movw	r4, r22
    35d6:	3c 01       	movw	r6, r24
	ADCValue=ADCValue/1;
	
	//传感器五阶校准，同时将电信号（mV）转换为压力信号（Pa）
	if     (ADCValue < KeepRegister.MV[1]){PA=(ADCValue-KeepRegister.MV[0])*(SV[1]-SV[0])/(KeepRegister.MV[1]-KeepRegister.MV[0])+SV[0];}
    35d8:	60 91 90 03 	lds	r22, 0x0390	; 0x800390 <KeepRegister+0x1c>
    35dc:	70 91 91 03 	lds	r23, 0x0391	; 0x800391 <KeepRegister+0x1d>
    35e0:	80 91 92 03 	lds	r24, 0x0392	; 0x800392 <KeepRegister+0x1e>
    35e4:	90 91 93 03 	lds	r25, 0x0393	; 0x800393 <KeepRegister+0x1f>
    35e8:	a3 01       	movw	r20, r6
    35ea:	92 01       	movw	r18, r4
    35ec:	0e 94 90 24 	call	0x4920	; 0x4920 <__gesf2>
    35f0:	18 16       	cp	r1, r24
    35f2:	14 f4       	brge	.+4      	; 0x35f8 <Level_height_conversion+0x12fc>
    35f4:	0c 94 70 12 	jmp	0x24e0	; 0x24e0 <Level_height_conversion+0x1e4>
    35f8:	0c 94 e7 12 	jmp	0x25ce	; 0x25ce <Level_height_conversion+0x2d2>
		else                                  {Cor_result=(OriginaAltitudeTemp-SV_m[4])*(TEMP_Cor_VAL[5]-TEMP_Cor_VAL[4])/(SV_m[5]-SV_m[4])+TEMP_Cor_VAL[4];}
	}
	else 
		Cor_result=0;
	
	OriginaAltitudeTemp=OriginaAltitudeTemp - Cor_result; 
    35fc:	cf 52       	subi	r28, 0x2F	; 47
    35fe:	df 4f       	sbci	r29, 0xFF	; 255
    3600:	68 81       	ld	r22, Y
    3602:	79 81       	ldd	r23, Y+1	; 0x01
    3604:	8a 81       	ldd	r24, Y+2	; 0x02
    3606:	9b 81       	ldd	r25, Y+3	; 0x03
    3608:	c1 5d       	subi	r28, 0xD1	; 209
    360a:	d0 40       	sbci	r29, 0x00	; 0
    360c:	0e 94 fa 22 	call	0x45f4	; 0x45f4 <__subsf3>
    3610:	6b 01       	movw	r12, r22
    3612:	7c 01       	movw	r14, r24

	InputRegister.ADCOriginalValue = ADCValue;						//将ADC原始采样值（mV）存入输入寄存器
    3614:	04 e3       	ldi	r16, 0x34	; 52
    3616:	13 e0       	ldi	r17, 0x03	; 3
    3618:	f8 01       	movw	r30, r16
    361a:	40 8e       	std	Z+24, r4	; 0x18
    361c:	51 8e       	std	Z+25, r5	; 0x19
    361e:	62 8e       	std	Z+26, r6	; 0x1a
    3620:	73 8e       	std	Z+27, r7	; 0x1b
	InputRegister.LiquidAltitudeAbsoluteValue = OriginaAltitudeTemp;//将采集到的液位绝对高度值存入输入寄存器
    3622:	d8 01       	movw	r26, r16
    3624:	54 96       	adiw	r26, 0x14	; 20
    3626:	6d 93       	st	X+, r22
    3628:	7d 93       	st	X+, r23
    362a:	8d 93       	st	X+, r24
    362c:	9c 93       	st	X, r25
    362e:	57 97       	sbiw	r26, 0x17	; 23
	InputRegister.AltitudeDifference= OriginaAltitudeTemp - KeepRegister.OriginaLiquidAltitude;//计算高度差，之后将数据存入输入寄存器
    3630:	20 91 78 03 	lds	r18, 0x0378	; 0x800378 <KeepRegister+0x4>
    3634:	30 91 79 03 	lds	r19, 0x0379	; 0x800379 <KeepRegister+0x5>
    3638:	40 91 7a 03 	lds	r20, 0x037A	; 0x80037a <KeepRegister+0x6>
    363c:	50 91 7b 03 	lds	r21, 0x037B	; 0x80037b <KeepRegister+0x7>
    3640:	0e 94 fa 22 	call	0x45f4	; 0x45f4 <__subsf3>
    3644:	f8 01       	movw	r30, r16
    3646:	64 87       	std	Z+12, r22	; 0x0c
    3648:	75 87       	std	Z+13, r23	; 0x0d
    364a:	86 87       	std	Z+14, r24	; 0x0e
    364c:	97 87       	std	Z+15, r25	; 0x0f
	InputRegister.PA  =  PA;
    364e:	c7 53       	subi	r28, 0x37	; 55
    3650:	df 4f       	sbci	r29, 0xFF	; 255
    3652:	88 81       	ld	r24, Y
    3654:	99 81       	ldd	r25, Y+1	; 0x01
    3656:	aa 81       	ldd	r26, Y+2	; 0x02
    3658:	bb 81       	ldd	r27, Y+3	; 0x03
    365a:	c9 5c       	subi	r28, 0xC9	; 201
    365c:	d0 40       	sbci	r29, 0x00	; 0
    365e:	84 8f       	std	Z+28, r24	; 0x1c
    3660:	95 8f       	std	Z+29, r25	; 0x1d
    3662:	a6 8f       	std	Z+30, r26	; 0x1e
    3664:	b7 8f       	std	Z+31, r27	; 0x1f
	
	return OriginaAltitudeTemp;
}
    3666:	c7 01       	movw	r24, r14
    3668:	b6 01       	movw	r22, r12
    366a:	cc 52       	subi	r28, 0x2C	; 44
    366c:	df 4f       	sbci	r29, 0xFF	; 255
    366e:	0f b6       	in	r0, 0x3f	; 63
    3670:	f8 94       	cli
    3672:	de bf       	out	0x3e, r29	; 62
    3674:	0f be       	out	0x3f, r0	; 63
    3676:	cd bf       	out	0x3d, r28	; 61
    3678:	df 91       	pop	r29
    367a:	cf 91       	pop	r28
    367c:	1f 91       	pop	r17
    367e:	0f 91       	pop	r16
    3680:	ff 90       	pop	r15
    3682:	ef 90       	pop	r14
    3684:	df 90       	pop	r13
    3686:	cf 90       	pop	r12
    3688:	bf 90       	pop	r11
    368a:	af 90       	pop	r10
    368c:	9f 90       	pop	r9
    368e:	8f 90       	pop	r8
    3690:	7f 90       	pop	r7
    3692:	6f 90       	pop	r6
    3694:	5f 90       	pop	r5
    3696:	4f 90       	pop	r4
    3698:	3f 90       	pop	r3
    369a:	2f 90       	pop	r2
    369c:	08 95       	ret

0000369e <ModbusSetInitalValue>:
数据格式:器件地址(1字节)+功能码(0x41)+操作码(4字节)+校验(2字节)
返回格式:器件地址(1字节)+功能码(0x41)+所修改寄存器首地址(2字节)+所修改寄存器数量(2字节)+校验(2字节)
操作码:0x44,0x66,0x88,0xaa
*********************************/
char ModbusSetInitalValue(void)
{
    369e:	0f 93       	push	r16
    36a0:	1f 93       	push	r17
    36a2:	cf 93       	push	r28
    36a4:	df 93       	push	r29
    36a6:	cd b7       	in	r28, 0x3d	; 61
    36a8:	de b7       	in	r29, 0x3e	; 62
    36aa:	2e 97       	sbiw	r28, 0x0e	; 14
    36ac:	0f b6       	in	r0, 0x3f	; 63
    36ae:	f8 94       	cli
    36b0:	de bf       	out	0x3e, r29	; 62
    36b2:	0f be       	out	0x3f, r0	; 63
    36b4:	cd bf       	out	0x3d, r28	; 61
	uint8_t err=0;
	uint8_t temp[10];
	uint16_t crc;
	float OriginaAltitudeTemp=0;
    36b6:	1b 86       	std	Y+11, r1	; 0x0b
    36b8:	1c 86       	std	Y+12, r1	; 0x0c
    36ba:	1d 86       	std	Y+13, r1	; 0x0d
    36bc:	1e 86       	std	Y+14, r1	; 0x0e
	//SenPow_ON;Delay_ms(200);
	if(ModbusDataPackage.DataLen !=8 )err = err_OE;
    36be:	80 91 33 02 	lds	r24, 0x0233	; 0x800233 <ModbusDataPackage+0x1>
    36c2:	88 30       	cpi	r24, 0x08	; 8
    36c4:	09 f4       	brne	.+2      	; 0x36c8 <ModbusSetInitalValue+0x2a>
    36c6:	4c c0       	rjmp	.+152    	; 0x3760 <ModbusSetInitalValue+0xc2>
	if( strncmp(FactorySetValueWord,(unsigned char *)&ModbusDataPackage.dat[2],4) !=0 )err=err_OE;
	if(  (err != 0)  &&  (ModbusDataPackage.dat[0] != 0) )
    36c8:	80 91 34 02 	lds	r24, 0x0234	; 0x800234 <ModbusDataPackage+0x2>
    36cc:	88 23       	and	r24, r24
    36ce:	29 f0       	breq	.+10     	; 0x36da <ModbusSetInitalValue+0x3c>
	{
		ModbusReturnAckInfo(err);
    36d0:	84 e0       	ldi	r24, 0x04	; 4
    36d2:	0e 94 63 05 	call	0xac6	; 0xac6 <ModbusReturnAckInfo>
		return ERROR;
    36d6:	80 e0       	ldi	r24, 0x00	; 0
    36d8:	4f c0       	rjmp	.+158    	; 0x3778 <ModbusSetInitalValue+0xda>
	}
	
	OriginaAltitudeTemp=Level_height_conversion();
    36da:	0e 94 7e 11 	call	0x22fc	; 0x22fc <Level_height_conversion>
    36de:	6b 87       	std	Y+11, r22	; 0x0b
    36e0:	7c 87       	std	Y+12, r23	; 0x0c
    36e2:	8d 87       	std	Y+13, r24	; 0x0d
    36e4:	9e 87       	std	Y+14, r25	; 0x0e
	KeepRegister.OriginaLiquidAltitude = OriginaAltitudeTemp;    //同时将数据保存在EEPROM
    36e6:	04 e7       	ldi	r16, 0x74	; 116
    36e8:	13 e0       	ldi	r17, 0x03	; 3
    36ea:	f8 01       	movw	r30, r16
    36ec:	64 83       	std	Z+4, r22	; 0x04
    36ee:	75 83       	std	Z+5, r23	; 0x05
    36f0:	86 83       	std	Z+6, r24	; 0x06
    36f2:	97 83       	std	Z+7, r25	; 0x07
	EEWrite(KREEPROM_BASEADDR+4,(void *)&OriginaAltitudeTemp,4);
    36f4:	44 e0       	ldi	r20, 0x04	; 4
    36f6:	50 e0       	ldi	r21, 0x00	; 0
    36f8:	be 01       	movw	r22, r28
    36fa:	65 5f       	subi	r22, 0xF5	; 245
    36fc:	7f 4f       	sbci	r23, 0xFF	; 255
    36fe:	84 e4       	ldi	r24, 0x44	; 68
    3700:	90 e0       	ldi	r25, 0x00	; 0
    3702:	0e 94 5d 02 	call	0x4ba	; 0x4ba <EEWrite>
	
	temp[0] = KeepRegister.DeviceAddress;
    3706:	f8 01       	movw	r30, r16
    3708:	80 81       	ld	r24, Z
    370a:	91 81       	ldd	r25, Z+1	; 0x01
    370c:	89 83       	std	Y+1, r24	; 0x01
	temp[1] = ModbusDataPackage.dat[1];
    370e:	02 e3       	ldi	r16, 0x32	; 50
    3710:	12 e0       	ldi	r17, 0x02	; 2
    3712:	f8 01       	movw	r30, r16
    3714:	83 81       	ldd	r24, Z+3	; 0x03
    3716:	8a 83       	std	Y+2, r24	; 0x02
	temp[2] = 0x00;
    3718:	1b 82       	std	Y+3, r1	; 0x03
	temp[3] = 0x02;
    371a:	82 e0       	ldi	r24, 0x02	; 2
    371c:	8c 83       	std	Y+4, r24	; 0x04
	temp[4] = 0x00;
    371e:	1d 82       	std	Y+5, r1	; 0x05
	temp[5] = 0x02;
    3720:	8e 83       	std	Y+6, r24	; 0x06
	
	crc = CRC16_Check(temp,6);
    3722:	66 e0       	ldi	r22, 0x06	; 6
    3724:	ce 01       	movw	r24, r28
    3726:	01 96       	adiw	r24, 0x01	; 1
    3728:	0e 94 3f 05 	call	0xa7e	; 0xa7e <CRC16_Check>
	
	temp[6] = crc &0xff;
    372c:	8f 83       	std	Y+7, r24	; 0x07
	temp[7] = crc >> 8;
    372e:	98 87       	std	Y+8, r25	; 0x08
	if(ModbusDataPackage.dat[0]) U485SendData(temp,8);
    3730:	f8 01       	movw	r30, r16
    3732:	82 81       	ldd	r24, Z+2	; 0x02
    3734:	88 23       	and	r24, r24
    3736:	91 f0       	breq	.+36     	; 0x375c <ModbusSetInitalValue+0xbe>
    3738:	5a 9a       	sbi	0x0b, 2	; 11
    373a:	81 e0       	ldi	r24, 0x01	; 1
    373c:	90 e0       	ldi	r25, 0x00	; 0
    373e:	0e 94 a1 03 	call	0x742	; 0x742 <Delay_ms>
    3742:	68 e0       	ldi	r22, 0x08	; 8
    3744:	70 e0       	ldi	r23, 0x00	; 0
    3746:	ce 01       	movw	r24, r28
    3748:	01 96       	adiw	r24, 0x01	; 1
    374a:	0e 94 5c 22 	call	0x44b8	; 0x44b8 <USART0_PutData>
    374e:	8a e0       	ldi	r24, 0x0A	; 10
    3750:	90 e0       	ldi	r25, 0x00	; 0
    3752:	0e 94 a1 03 	call	0x742	; 0x742 <Delay_ms>
    3756:	5a 98       	cbi	0x0b, 2	; 11
	
	//SenPow_OFF;
	return SUCCESS;
    3758:	81 e0       	ldi	r24, 0x01	; 1
    375a:	0e c0       	rjmp	.+28     	; 0x3778 <ModbusSetInitalValue+0xda>
    375c:	81 e0       	ldi	r24, 0x01	; 1
    375e:	0c c0       	rjmp	.+24     	; 0x3778 <ModbusSetInitalValue+0xda>
	uint8_t temp[10];
	uint16_t crc;
	float OriginaAltitudeTemp=0;
	//SenPow_ON;Delay_ms(200);
	if(ModbusDataPackage.DataLen !=8 )err = err_OE;
	if( strncmp(FactorySetValueWord,(unsigned char *)&ModbusDataPackage.dat[2],4) !=0 )err=err_OE;
    3760:	44 e0       	ldi	r20, 0x04	; 4
    3762:	50 e0       	ldi	r21, 0x00	; 0
    3764:	66 e3       	ldi	r22, 0x36	; 54
    3766:	72 e0       	ldi	r23, 0x02	; 2
    3768:	8b e0       	ldi	r24, 0x0B	; 11
    376a:	91 e0       	ldi	r25, 0x01	; 1
    376c:	0e 94 2d 2b 	call	0x565a	; 0x565a <strncmp>
    3770:	89 2b       	or	r24, r25
    3772:	09 f0       	breq	.+2      	; 0x3776 <ModbusSetInitalValue+0xd8>
    3774:	a9 cf       	rjmp	.-174    	; 0x36c8 <ModbusSetInitalValue+0x2a>
    3776:	b1 cf       	rjmp	.-158    	; 0x36da <ModbusSetInitalValue+0x3c>
	temp[7] = crc >> 8;
	if(ModbusDataPackage.dat[0]) U485SendData(temp,8);
	
	//SenPow_OFF;
	return SUCCESS;
}
    3778:	2e 96       	adiw	r28, 0x0e	; 14
    377a:	0f b6       	in	r0, 0x3f	; 63
    377c:	f8 94       	cli
    377e:	de bf       	out	0x3e, r29	; 62
    3780:	0f be       	out	0x3f, r0	; 63
    3782:	cd bf       	out	0x3d, r28	; 61
    3784:	df 91       	pop	r29
    3786:	cf 91       	pop	r28
    3788:	1f 91       	pop	r17
    378a:	0f 91       	pop	r16
    378c:	08 95       	ret

0000378e <ModbusStartSample>:
数据格式:器件地址(1字节)+功能码(0x42)+操作码(4字节)+校验(2字节)
返回格式:器件地址(1字节)+功能码(0x42)+所修改寄存器首地址(2字节)+所修改寄存器数量(2字节)+校验(2字节)
操作码:0x44,0x66,0x88,0xaa
*********************************/
char ModbusStartSample(void)
{
    378e:	0f 93       	push	r16
    3790:	1f 93       	push	r17
    3792:	cf 93       	push	r28
    3794:	df 93       	push	r29
    3796:	cd b7       	in	r28, 0x3d	; 61
    3798:	de b7       	in	r29, 0x3e	; 62
    379a:	2a 97       	sbiw	r28, 0x0a	; 10
    379c:	0f b6       	in	r0, 0x3f	; 63
    379e:	f8 94       	cli
    37a0:	de bf       	out	0x3e, r29	; 62
    37a2:	0f be       	out	0x3f, r0	; 63
    37a4:	cd bf       	out	0x3d, r28	; 61
	uint8_t err=0;
	uint8_t temp[10];
	uint16_t crc;
	//SenPow_ON;Delay_ms(1500);
	if(ModbusDataPackage.DataLen !=8 )err = err_OE;
    37a6:	80 91 33 02 	lds	r24, 0x0233	; 0x800233 <ModbusDataPackage+0x1>
    37aa:	88 30       	cpi	r24, 0x08	; 8
    37ac:	d1 f1       	breq	.+116    	; 0x3822 <ModbusStartSample+0x94>
	if( strncmp(FactorySetValueWord,(unsigned char *)&ModbusDataPackage.dat[2],4) !=0 )err=err_OE;
	
	if(  (err != 0)  && (ModbusDataPackage.dat[0] != 0) )//加判断
    37ae:	80 91 34 02 	lds	r24, 0x0234	; 0x800234 <ModbusDataPackage+0x2>
    37b2:	88 23       	and	r24, r24
    37b4:	29 f0       	breq	.+10     	; 0x37c0 <ModbusStartSample+0x32>
	{
		ModbusReturnAckInfo(err);
    37b6:	84 e0       	ldi	r24, 0x04	; 4
    37b8:	0e 94 63 05 	call	0xac6	; 0xac6 <ModbusReturnAckInfo>
		return ERROR;
    37bc:	80 e0       	ldi	r24, 0x00	; 0
    37be:	3d c0       	rjmp	.+122    	; 0x383a <ModbusStartSample+0xac>
	}
	
	(void)Level_height_conversion();    //执行一次采样
    37c0:	0e 94 7e 11 	call	0x22fc	; 0x22fc <Level_height_conversion>
	
	temp[0] = KeepRegister.DeviceAddress;
    37c4:	80 91 74 03 	lds	r24, 0x0374	; 0x800374 <KeepRegister>
    37c8:	90 91 75 03 	lds	r25, 0x0375	; 0x800375 <KeepRegister+0x1>
    37cc:	89 83       	std	Y+1, r24	; 0x01
	temp[1] = ModbusDataPackage.dat[1];
    37ce:	02 e3       	ldi	r16, 0x32	; 50
    37d0:	12 e0       	ldi	r17, 0x02	; 2
    37d2:	f8 01       	movw	r30, r16
    37d4:	83 81       	ldd	r24, Z+3	; 0x03
    37d6:	8a 83       	std	Y+2, r24	; 0x02
	temp[2] = 0x00;
    37d8:	1b 82       	std	Y+3, r1	; 0x03
	temp[3] = 0x0c;
    37da:	8c e0       	ldi	r24, 0x0C	; 12
    37dc:	8c 83       	std	Y+4, r24	; 0x04
	temp[4] = 0x00;
    37de:	1d 82       	std	Y+5, r1	; 0x05
	temp[5] = 0x02;
    37e0:	82 e0       	ldi	r24, 0x02	; 2
    37e2:	8e 83       	std	Y+6, r24	; 0x06
	
	crc = CRC16_Check(temp,6);
    37e4:	66 e0       	ldi	r22, 0x06	; 6
    37e6:	ce 01       	movw	r24, r28
    37e8:	01 96       	adiw	r24, 0x01	; 1
    37ea:	0e 94 3f 05 	call	0xa7e	; 0xa7e <CRC16_Check>
	temp[6] = crc &0xff;
    37ee:	8f 83       	std	Y+7, r24	; 0x07
	temp[7] = crc >> 8;
    37f0:	98 87       	std	Y+8, r25	; 0x08
	if(ModbusDataPackage.dat[0]) U485SendData(temp,8);
    37f2:	f8 01       	movw	r30, r16
    37f4:	82 81       	ldd	r24, Z+2	; 0x02
    37f6:	88 23       	and	r24, r24
    37f8:	91 f0       	breq	.+36     	; 0x381e <ModbusStartSample+0x90>
    37fa:	5a 9a       	sbi	0x0b, 2	; 11
    37fc:	81 e0       	ldi	r24, 0x01	; 1
    37fe:	90 e0       	ldi	r25, 0x00	; 0
    3800:	0e 94 a1 03 	call	0x742	; 0x742 <Delay_ms>
    3804:	68 e0       	ldi	r22, 0x08	; 8
    3806:	70 e0       	ldi	r23, 0x00	; 0
    3808:	ce 01       	movw	r24, r28
    380a:	01 96       	adiw	r24, 0x01	; 1
    380c:	0e 94 5c 22 	call	0x44b8	; 0x44b8 <USART0_PutData>
    3810:	8a e0       	ldi	r24, 0x0A	; 10
    3812:	90 e0       	ldi	r25, 0x00	; 0
    3814:	0e 94 a1 03 	call	0x742	; 0x742 <Delay_ms>
    3818:	5a 98       	cbi	0x0b, 2	; 11
	
	//SenPow_OFF;
	return SUCCESS;
    381a:	81 e0       	ldi	r24, 0x01	; 1
    381c:	0e c0       	rjmp	.+28     	; 0x383a <ModbusStartSample+0xac>
    381e:	81 e0       	ldi	r24, 0x01	; 1
    3820:	0c c0       	rjmp	.+24     	; 0x383a <ModbusStartSample+0xac>
	uint8_t err=0;
	uint8_t temp[10];
	uint16_t crc;
	//SenPow_ON;Delay_ms(1500);
	if(ModbusDataPackage.DataLen !=8 )err = err_OE;
	if( strncmp(FactorySetValueWord,(unsigned char *)&ModbusDataPackage.dat[2],4) !=0 )err=err_OE;
    3822:	44 e0       	ldi	r20, 0x04	; 4
    3824:	50 e0       	ldi	r21, 0x00	; 0
    3826:	66 e3       	ldi	r22, 0x36	; 54
    3828:	72 e0       	ldi	r23, 0x02	; 2
    382a:	8b e0       	ldi	r24, 0x0B	; 11
    382c:	91 e0       	ldi	r25, 0x01	; 1
    382e:	0e 94 2d 2b 	call	0x565a	; 0x565a <strncmp>
    3832:	89 2b       	or	r24, r25
    3834:	09 f0       	breq	.+2      	; 0x3838 <ModbusStartSample+0xaa>
    3836:	bb cf       	rjmp	.-138    	; 0x37ae <ModbusStartSample+0x20>
    3838:	c3 cf       	rjmp	.-122    	; 0x37c0 <ModbusStartSample+0x32>
	temp[7] = crc >> 8;
	if(ModbusDataPackage.dat[0]) U485SendData(temp,8);
	
	//SenPow_OFF;
	return SUCCESS;
}
    383a:	2a 96       	adiw	r28, 0x0a	; 10
    383c:	0f b6       	in	r0, 0x3f	; 63
    383e:	f8 94       	cli
    3840:	de bf       	out	0x3e, r29	; 62
    3842:	0f be       	out	0x3f, r0	; 63
    3844:	cd bf       	out	0x3d, r28	; 61
    3846:	df 91       	pop	r29
    3848:	cf 91       	pop	r28
    384a:	1f 91       	pop	r17
    384c:	0f 91       	pop	r16
    384e:	08 95       	ret

00003850 <FactoryCalibration>:
功能码：六个点依次为：0x43、0x44、0x45、0x46、0x47、0x48
操作码:0x44,0x66,0x88,0xaa:用户校准
操作码:0x40,0x66,0x88,0xaa:出厂校准
*********************************/
char FactoryCalibration(void)
{
    3850:	0f 93       	push	r16
    3852:	1f 93       	push	r17
    3854:	cf 93       	push	r28
    3856:	df 93       	push	r29
    3858:	cd b7       	in	r28, 0x3d	; 61
    385a:	de b7       	in	r29, 0x3e	; 62
    385c:	2a 97       	sbiw	r28, 0x0a	; 10
    385e:	0f b6       	in	r0, 0x3f	; 63
    3860:	f8 94       	cli
    3862:	de bf       	out	0x3e, r29	; 62
    3864:	0f be       	out	0x3f, r0	; 63
    3866:	cd bf       	out	0x3d, r28	; 61
	uint8_t temp[10];
	uint8_t function_code=0x00;
	uint16_t crc;
	float ADCValue=0;
	//SenPow_ON;Delay_ms(500);
	if(ModbusDataPackage.DataLen !=8 )err = err_OE;
    3868:	80 91 33 02 	lds	r24, 0x0233	; 0x800233 <ModbusDataPackage+0x1>
    386c:	88 30       	cpi	r24, 0x08	; 8
    386e:	11 f0       	breq	.+4      	; 0x3874 <FactoryCalibration+0x24>
    3870:	14 e0       	ldi	r17, 0x04	; 4
    3872:	01 c0       	rjmp	.+2      	; 0x3876 <FactoryCalibration+0x26>
操作码:0x44,0x66,0x88,0xaa:用户校准
操作码:0x40,0x66,0x88,0xaa:出厂校准
*********************************/
char FactoryCalibration(void)
{
	uint8_t i,err=0;
    3874:	10 e0       	ldi	r17, 0x00	; 0
	uint8_t function_code=0x00;
	uint16_t crc;
	float ADCValue=0;
	//SenPow_ON;Delay_ms(500);
	if(ModbusDataPackage.DataLen !=8 )err = err_OE;
	if( (strncmp(FactorySetValueWord,(unsigned char *)&ModbusDataPackage.dat[2],4) !=0) && (strncmp(FactorySetValueWord2,(unsigned char *)&ModbusDataPackage.dat[2],4) !=0)  )err=err_OE;
    3876:	44 e0       	ldi	r20, 0x04	; 4
    3878:	50 e0       	ldi	r21, 0x00	; 0
    387a:	66 e3       	ldi	r22, 0x36	; 54
    387c:	72 e0       	ldi	r23, 0x02	; 2
    387e:	8b e0       	ldi	r24, 0x0B	; 11
    3880:	91 e0       	ldi	r25, 0x01	; 1
    3882:	0e 94 2d 2b 	call	0x565a	; 0x565a <strncmp>
    3886:	89 2b       	or	r24, r25
    3888:	59 f0       	breq	.+22     	; 0x38a0 <FactoryCalibration+0x50>
    388a:	44 e0       	ldi	r20, 0x04	; 4
    388c:	50 e0       	ldi	r21, 0x00	; 0
    388e:	66 e3       	ldi	r22, 0x36	; 54
    3890:	72 e0       	ldi	r23, 0x02	; 2
    3892:	87 e0       	ldi	r24, 0x07	; 7
    3894:	91 e0       	ldi	r25, 0x01	; 1
    3896:	0e 94 2d 2b 	call	0x565a	; 0x565a <strncmp>
    389a:	89 2b       	or	r24, r25
    389c:	09 f0       	breq	.+2      	; 0x38a0 <FactoryCalibration+0x50>
    389e:	14 e0       	ldi	r17, 0x04	; 4
	if(SuperMode_Flag==0)err=err_mode;//如果是普通模式，则返回错误
    38a0:	80 91 22 01 	lds	r24, 0x0122	; 0x800122 <__data_end>
    38a4:	88 23       	and	r24, r24
    38a6:	19 f0       	breq	.+6      	; 0x38ae <FactoryCalibration+0x5e>
	if(  err != 0 )
    38a8:	11 23       	and	r17, r17
    38aa:	39 f0       	breq	.+14     	; 0x38ba <FactoryCalibration+0x6a>
    38ac:	01 c0       	rjmp	.+2      	; 0x38b0 <FactoryCalibration+0x60>
	uint16_t crc;
	float ADCValue=0;
	//SenPow_ON;Delay_ms(500);
	if(ModbusDataPackage.DataLen !=8 )err = err_OE;
	if( (strncmp(FactorySetValueWord,(unsigned char *)&ModbusDataPackage.dat[2],4) !=0) && (strncmp(FactorySetValueWord2,(unsigned char *)&ModbusDataPackage.dat[2],4) !=0)  )err=err_OE;
	if(SuperMode_Flag==0)err=err_mode;//如果是普通模式，则返回错误
    38ae:	15 e0       	ldi	r17, 0x05	; 5
	if(  err != 0 )
	{
		ModbusReturnAckInfo(err);
    38b0:	81 2f       	mov	r24, r17
    38b2:	0e 94 63 05 	call	0xac6	; 0xac6 <ModbusReturnAckInfo>
		return ERROR;
    38b6:	80 e0       	ldi	r24, 0x00	; 0
    38b8:	bd c0       	rjmp	.+378    	; 0x3a34 <FactoryCalibration+0x1e4>
	}
	
	function_code=ModbusDataPackage.dat[1]; //获取功能码
    38ba:	10 91 35 02 	lds	r17, 0x0235	; 0x800235 <ModbusDataPackage+0x3>
	
	for(i=0;i<1;i++) ADCValue = ADCSmaple();//取n次平均，mV
    38be:	0e 94 9c 04 	call	0x938	; 0x938 <ADCSmaple>
	
	switch (function_code)   //根据功能码对相应的校准点进行校准
    38c2:	15 34       	cpi	r17, 0x45	; 69
    38c4:	09 f4       	brne	.+2      	; 0x38c8 <FactoryCalibration+0x78>
    38c6:	45 c0       	rjmp	.+138    	; 0x3952 <FactoryCalibration+0x102>
    38c8:	28 f4       	brcc	.+10     	; 0x38d4 <FactoryCalibration+0x84>
    38ca:	13 34       	cpi	r17, 0x43	; 67
    38cc:	61 f0       	breq	.+24     	; 0x38e6 <FactoryCalibration+0x96>
    38ce:	14 34       	cpi	r17, 0x44	; 68
    38d0:	79 f1       	breq	.+94     	; 0x3930 <FactoryCalibration+0xe0>
    38d2:	82 c0       	rjmp	.+260    	; 0x39d8 <FactoryCalibration+0x188>
    38d4:	17 34       	cpi	r17, 0x47	; 71
    38d6:	09 f4       	brne	.+2      	; 0x38da <FactoryCalibration+0x8a>
    38d8:	5e c0       	rjmp	.+188    	; 0x3996 <FactoryCalibration+0x146>
    38da:	08 f4       	brcc	.+2      	; 0x38de <FactoryCalibration+0x8e>
    38dc:	4b c0       	rjmp	.+150    	; 0x3974 <FactoryCalibration+0x124>
    38de:	18 34       	cpi	r17, 0x48	; 72
    38e0:	09 f4       	brne	.+2      	; 0x38e4 <FactoryCalibration+0x94>
    38e2:	6a c0       	rjmp	.+212    	; 0x39b8 <FactoryCalibration+0x168>
    38e4:	79 c0       	rjmp	.+242    	; 0x39d8 <FactoryCalibration+0x188>
	{
		case FactoryCalibration0: KeepRegister.MV[0]=ADCValue;
    38e6:	04 e7       	ldi	r16, 0x74	; 116
    38e8:	13 e0       	ldi	r17, 0x03	; 3
    38ea:	f8 01       	movw	r30, r16
    38ec:	60 8f       	std	Z+24, r22	; 0x18
    38ee:	71 8f       	std	Z+25, r23	; 0x19
    38f0:	82 8f       	std	Z+26, r24	; 0x1a
    38f2:	93 8f       	std	Z+27, r25	; 0x1b
								  EEWrite(KREEPROM_BASEADDR+24,(void *)&KeepRegister.MV[0],4);
    38f4:	44 e0       	ldi	r20, 0x04	; 4
    38f6:	50 e0       	ldi	r21, 0x00	; 0
    38f8:	6c e8       	ldi	r22, 0x8C	; 140
    38fa:	73 e0       	ldi	r23, 0x03	; 3
    38fc:	88 e5       	ldi	r24, 0x58	; 88
    38fe:	90 e0       	ldi	r25, 0x00	; 0
    3900:	0e 94 5d 02 	call	0x4ba	; 0x4ba <EEWrite>
								  KeepRegister.Temp_T0=InputRegister.Temperature;
    3904:	80 91 44 03 	lds	r24, 0x0344	; 0x800344 <InputRegister+0x10>
    3908:	90 91 45 03 	lds	r25, 0x0345	; 0x800345 <InputRegister+0x11>
    390c:	a0 91 46 03 	lds	r26, 0x0346	; 0x800346 <InputRegister+0x12>
    3910:	b0 91 47 03 	lds	r27, 0x0347	; 0x800347 <InputRegister+0x13>
    3914:	f8 01       	movw	r30, r16
    3916:	80 ab       	std	Z+48, r24	; 0x30
    3918:	91 ab       	std	Z+49, r25	; 0x31
    391a:	a2 ab       	std	Z+50, r26	; 0x32
    391c:	b3 ab       	std	Z+51, r27	; 0x33
								  EEWrite(KREEPROM_BASEADDR+48,(void *)&KeepRegister.Temp_T0,4);
    391e:	44 e0       	ldi	r20, 0x04	; 4
    3920:	50 e0       	ldi	r21, 0x00	; 0
    3922:	64 ea       	ldi	r22, 0xA4	; 164
    3924:	73 e0       	ldi	r23, 0x03	; 3
    3926:	80 e7       	ldi	r24, 0x70	; 112
    3928:	90 e0       	ldi	r25, 0x00	; 0
    392a:	0e 94 5d 02 	call	0x4ba	; 0x4ba <EEWrite>
								  break;//五阶校准点0，同时将数据保存在EEPROM
    392e:	54 c0       	rjmp	.+168    	; 0x39d8 <FactoryCalibration+0x188>
		case FactoryCalibration1: KeepRegister.MV[1]=ADCValue; EEWrite(KREEPROM_BASEADDR+28,(void *)&KeepRegister.MV[1],4);break;//五阶校准点1，同时将数据保存在EEPROM
    3930:	60 93 90 03 	sts	0x0390, r22	; 0x800390 <KeepRegister+0x1c>
    3934:	70 93 91 03 	sts	0x0391, r23	; 0x800391 <KeepRegister+0x1d>
    3938:	80 93 92 03 	sts	0x0392, r24	; 0x800392 <KeepRegister+0x1e>
    393c:	90 93 93 03 	sts	0x0393, r25	; 0x800393 <KeepRegister+0x1f>
    3940:	44 e0       	ldi	r20, 0x04	; 4
    3942:	50 e0       	ldi	r21, 0x00	; 0
    3944:	60 e9       	ldi	r22, 0x90	; 144
    3946:	73 e0       	ldi	r23, 0x03	; 3
    3948:	8c e5       	ldi	r24, 0x5C	; 92
    394a:	90 e0       	ldi	r25, 0x00	; 0
    394c:	0e 94 5d 02 	call	0x4ba	; 0x4ba <EEWrite>
    3950:	43 c0       	rjmp	.+134    	; 0x39d8 <FactoryCalibration+0x188>
		case FactoryCalibration2: KeepRegister.MV[2]=ADCValue; EEWrite(KREEPROM_BASEADDR+32,(void *)&KeepRegister.MV[2],4);break;//五阶校准点2，同时将数据保存在EEPROM
    3952:	60 93 94 03 	sts	0x0394, r22	; 0x800394 <KeepRegister+0x20>
    3956:	70 93 95 03 	sts	0x0395, r23	; 0x800395 <KeepRegister+0x21>
    395a:	80 93 96 03 	sts	0x0396, r24	; 0x800396 <KeepRegister+0x22>
    395e:	90 93 97 03 	sts	0x0397, r25	; 0x800397 <KeepRegister+0x23>
    3962:	44 e0       	ldi	r20, 0x04	; 4
    3964:	50 e0       	ldi	r21, 0x00	; 0
    3966:	64 e9       	ldi	r22, 0x94	; 148
    3968:	73 e0       	ldi	r23, 0x03	; 3
    396a:	80 e6       	ldi	r24, 0x60	; 96
    396c:	90 e0       	ldi	r25, 0x00	; 0
    396e:	0e 94 5d 02 	call	0x4ba	; 0x4ba <EEWrite>
    3972:	32 c0       	rjmp	.+100    	; 0x39d8 <FactoryCalibration+0x188>
		case FactoryCalibration3: KeepRegister.MV[3]=ADCValue; EEWrite(KREEPROM_BASEADDR+36,(void *)&KeepRegister.MV[3],4);break;//五阶校准点3，同时将数据保存在EEPROM
    3974:	60 93 98 03 	sts	0x0398, r22	; 0x800398 <KeepRegister+0x24>
    3978:	70 93 99 03 	sts	0x0399, r23	; 0x800399 <KeepRegister+0x25>
    397c:	80 93 9a 03 	sts	0x039A, r24	; 0x80039a <KeepRegister+0x26>
    3980:	90 93 9b 03 	sts	0x039B, r25	; 0x80039b <KeepRegister+0x27>
    3984:	44 e0       	ldi	r20, 0x04	; 4
    3986:	50 e0       	ldi	r21, 0x00	; 0
    3988:	68 e9       	ldi	r22, 0x98	; 152
    398a:	73 e0       	ldi	r23, 0x03	; 3
    398c:	84 e6       	ldi	r24, 0x64	; 100
    398e:	90 e0       	ldi	r25, 0x00	; 0
    3990:	0e 94 5d 02 	call	0x4ba	; 0x4ba <EEWrite>
    3994:	21 c0       	rjmp	.+66     	; 0x39d8 <FactoryCalibration+0x188>
		case FactoryCalibration4: KeepRegister.MV[4]=ADCValue; EEWrite(KREEPROM_BASEADDR+40,(void *)&KeepRegister.MV[4],4);break;//五阶校准点4，同时将数据保存在EEPROM
    3996:	60 93 9c 03 	sts	0x039C, r22	; 0x80039c <KeepRegister+0x28>
    399a:	70 93 9d 03 	sts	0x039D, r23	; 0x80039d <KeepRegister+0x29>
    399e:	80 93 9e 03 	sts	0x039E, r24	; 0x80039e <KeepRegister+0x2a>
    39a2:	90 93 9f 03 	sts	0x039F, r25	; 0x80039f <KeepRegister+0x2b>
    39a6:	44 e0       	ldi	r20, 0x04	; 4
    39a8:	50 e0       	ldi	r21, 0x00	; 0
    39aa:	6c e9       	ldi	r22, 0x9C	; 156
    39ac:	73 e0       	ldi	r23, 0x03	; 3
    39ae:	88 e6       	ldi	r24, 0x68	; 104
    39b0:	90 e0       	ldi	r25, 0x00	; 0
    39b2:	0e 94 5d 02 	call	0x4ba	; 0x4ba <EEWrite>
    39b6:	10 c0       	rjmp	.+32     	; 0x39d8 <FactoryCalibration+0x188>
		case FactoryCalibration5: KeepRegister.MV[5]=ADCValue; EEWrite(KREEPROM_BASEADDR+44,(void *)&KeepRegister.MV[5],4);break;//五阶校准点5，同时将数据保存在EEPROM
    39b8:	60 93 a0 03 	sts	0x03A0, r22	; 0x8003a0 <KeepRegister+0x2c>
    39bc:	70 93 a1 03 	sts	0x03A1, r23	; 0x8003a1 <KeepRegister+0x2d>
    39c0:	80 93 a2 03 	sts	0x03A2, r24	; 0x8003a2 <KeepRegister+0x2e>
    39c4:	90 93 a3 03 	sts	0x03A3, r25	; 0x8003a3 <KeepRegister+0x2f>
    39c8:	44 e0       	ldi	r20, 0x04	; 4
    39ca:	50 e0       	ldi	r21, 0x00	; 0
    39cc:	60 ea       	ldi	r22, 0xA0	; 160
    39ce:	73 e0       	ldi	r23, 0x03	; 3
    39d0:	8c e6       	ldi	r24, 0x6C	; 108
    39d2:	90 e0       	ldi	r25, 0x00	; 0
    39d4:	0e 94 5d 02 	call	0x4ba	; 0x4ba <EEWrite>
		default: break;
	}
	
	
	temp[0] = KeepRegister.DeviceAddress;
    39d8:	80 91 74 03 	lds	r24, 0x0374	; 0x800374 <KeepRegister>
    39dc:	90 91 75 03 	lds	r25, 0x0375	; 0x800375 <KeepRegister+0x1>
    39e0:	89 83       	std	Y+1, r24	; 0x01
	temp[1] = ModbusDataPackage.dat[1];
    39e2:	02 e3       	ldi	r16, 0x32	; 50
    39e4:	12 e0       	ldi	r17, 0x02	; 2
    39e6:	f8 01       	movw	r30, r16
    39e8:	83 81       	ldd	r24, Z+3	; 0x03
    39ea:	8a 83       	std	Y+2, r24	; 0x02
	temp[2] = 0x00;
    39ec:	1b 82       	std	Y+3, r1	; 0x03
	temp[3] = 0x0a;
    39ee:	8a e0       	ldi	r24, 0x0A	; 10
    39f0:	8c 83       	std	Y+4, r24	; 0x04
	temp[4] = 0x00;
    39f2:	1d 82       	std	Y+5, r1	; 0x05
	temp[5] = 0x02;
    39f4:	82 e0       	ldi	r24, 0x02	; 2
    39f6:	8e 83       	std	Y+6, r24	; 0x06
	
	crc = CRC16_Check(temp,6);
    39f8:	66 e0       	ldi	r22, 0x06	; 6
    39fa:	ce 01       	movw	r24, r28
    39fc:	01 96       	adiw	r24, 0x01	; 1
    39fe:	0e 94 3f 05 	call	0xa7e	; 0xa7e <CRC16_Check>
	
	temp[6] = crc &0xff;
    3a02:	8f 83       	std	Y+7, r24	; 0x07
	temp[7] = crc >> 8;
    3a04:	98 87       	std	Y+8, r25	; 0x08
	if(ModbusDataPackage.dat[0]) U485SendData(temp,8);
    3a06:	f8 01       	movw	r30, r16
    3a08:	82 81       	ldd	r24, Z+2	; 0x02
    3a0a:	88 23       	and	r24, r24
    3a0c:	91 f0       	breq	.+36     	; 0x3a32 <FactoryCalibration+0x1e2>
    3a0e:	5a 9a       	sbi	0x0b, 2	; 11
    3a10:	81 e0       	ldi	r24, 0x01	; 1
    3a12:	90 e0       	ldi	r25, 0x00	; 0
    3a14:	0e 94 a1 03 	call	0x742	; 0x742 <Delay_ms>
    3a18:	68 e0       	ldi	r22, 0x08	; 8
    3a1a:	70 e0       	ldi	r23, 0x00	; 0
    3a1c:	ce 01       	movw	r24, r28
    3a1e:	01 96       	adiw	r24, 0x01	; 1
    3a20:	0e 94 5c 22 	call	0x44b8	; 0x44b8 <USART0_PutData>
    3a24:	8a e0       	ldi	r24, 0x0A	; 10
    3a26:	90 e0       	ldi	r25, 0x00	; 0
    3a28:	0e 94 a1 03 	call	0x742	; 0x742 <Delay_ms>
    3a2c:	5a 98       	cbi	0x0b, 2	; 11
	
	//SenPow_OFF;
	return SUCCESS;
    3a2e:	81 e0       	ldi	r24, 0x01	; 1
    3a30:	01 c0       	rjmp	.+2      	; 0x3a34 <FactoryCalibration+0x1e4>
    3a32:	81 e0       	ldi	r24, 0x01	; 1
}
    3a34:	2a 96       	adiw	r28, 0x0a	; 10
    3a36:	0f b6       	in	r0, 0x3f	; 63
    3a38:	f8 94       	cli
    3a3a:	de bf       	out	0x3e, r29	; 62
    3a3c:	0f be       	out	0x3f, r0	; 63
    3a3e:	cd bf       	out	0x3d, r28	; 61
    3a40:	df 91       	pop	r29
    3a42:	cf 91       	pop	r28
    3a44:	1f 91       	pop	r17
    3a46:	0f 91       	pop	r16
    3a48:	08 95       	ret

00003a4a <Get_SNInfo_Fun>:
数据格式:器件地址(1字节)+功能码(0x40)+操作码(4字节)+校验(2字节)
返回格式:器件地址(1字节)+功能码(0x40)+数据数量(1字节)+SN信息(15字节)+校验(2字节)
************************************************************************/
uint16_t TOS_NODE_ID=111;
char Get_SNInfo_Fun(void)
{
    3a4a:	cf 93       	push	r28
    3a4c:	df 93       	push	r29
    3a4e:	cd b7       	in	r28, 0x3d	; 61
    3a50:	de b7       	in	r29, 0x3e	; 62
    3a52:	a9 97       	sbiw	r28, 0x29	; 41
    3a54:	0f b6       	in	r0, 0x3f	; 63
    3a56:	f8 94       	cli
    3a58:	de bf       	out	0x3e, r29	; 62
    3a5a:	0f be       	out	0x3f, r0	; 63
    3a5c:	cd bf       	out	0x3d, r28	; 61
	unsigned char i;
	unsigned char err=0;
	uint16_t crc;
	unsigned char SN_Info[15]={0};
    3a5e:	fe 01       	movw	r30, r28
    3a60:	31 96       	adiw	r30, 0x01	; 1
    3a62:	8f e0       	ldi	r24, 0x0F	; 15
    3a64:	df 01       	movw	r26, r30
    3a66:	1d 92       	st	X+, r1
    3a68:	8a 95       	dec	r24
    3a6a:	e9 f7       	brne	.-6      	; 0x3a66 <Get_SNInfo_Fun+0x1c>
	unsigned char temp[25]={0};
    3a6c:	3f 96       	adiw	r30, 0x0f	; 15
    3a6e:	89 e1       	ldi	r24, 0x19	; 25
    3a70:	df 01       	movw	r26, r30
    3a72:	1d 92       	st	X+, r1
    3a74:	8a 95       	dec	r24
    3a76:	e9 f7       	brne	.-6      	; 0x3a72 <Get_SNInfo_Fun+0x28>
	volatile unsigned char reservalData = TOS_NODE_ID;
    3a78:	80 91 00 01 	lds	r24, 0x0100	; 0x800100 <TOS_NODE_ID>
    3a7c:	89 a7       	std	Y+41, r24	; 0x29
	
	if(ModbusDataPackage.DataLen !=8 )err = err_OE;
    3a7e:	80 91 33 02 	lds	r24, 0x0233	; 0x800233 <ModbusDataPackage+0x1>
    3a82:	88 30       	cpi	r24, 0x08	; 8
    3a84:	09 f4       	brne	.+2      	; 0x3a88 <Get_SNInfo_Fun+0x3e>
    3a86:	51 c0       	rjmp	.+162    	; 0x3b2a <Get_SNInfo_Fun+0xe0>
	if( strncmp(FactorySetValueWord,(unsigned char *)&ModbusDataPackage.dat[2],4) !=0 )err=err_OE;
	
	if(  (err != 0)  && (ModbusDataPackage.dat[0] != 0) )//加判断
    3a88:	80 91 34 02 	lds	r24, 0x0234	; 0x800234 <ModbusDataPackage+0x2>
    3a8c:	81 11       	cpse	r24, r1
    3a8e:	09 c0       	rjmp	.+18     	; 0x3aa2 <Get_SNInfo_Fun+0x58>
    3a90:	ea eb       	ldi	r30, 0xBA	; 186
    3a92:	f2 e0       	ldi	r31, 0x02	; 2
    3a94:	ce 01       	movw	r24, r28
    3a96:	01 96       	adiw	r24, 0x01	; 1
    3a98:	ae 01       	movw	r20, r28
    3a9a:	41 5f       	subi	r20, 0xF1	; 241
    3a9c:	5f 4f       	sbci	r21, 0xFF	; 255
数据格式:器件地址(1字节)+功能码(0x40)+操作码(4字节)+校验(2字节)
返回格式:器件地址(1字节)+功能码(0x40)+数据数量(1字节)+SN信息(15字节)+校验(2字节)
************************************************************************/
uint16_t TOS_NODE_ID=111;
char Get_SNInfo_Fun(void)
{
    3a9e:	dc 01       	movw	r26, r24
    3aa0:	05 c0       	rjmp	.+10     	; 0x3aac <Get_SNInfo_Fun+0x62>
	if(ModbusDataPackage.DataLen !=8 )err = err_OE;
	if( strncmp(FactorySetValueWord,(unsigned char *)&ModbusDataPackage.dat[2],4) !=0 )err=err_OE;
	
	if(  (err != 0)  && (ModbusDataPackage.dat[0] != 0) )//加判断
	{
		ModbusReturnAckInfo(err);
    3aa2:	84 e0       	ldi	r24, 0x04	; 4
    3aa4:	0e 94 63 05 	call	0xac6	; 0xac6 <ModbusReturnAckInfo>
		return ERROR;
    3aa8:	80 e0       	ldi	r24, 0x00	; 0
    3aaa:	4b c0       	rjmp	.+150    	; 0x3b42 <Get_SNInfo_Fun+0xf8>
	}
	
	//const uint8_t __progmem_smartbow_start[64] PROGMEM = {"&&SUPERHHH111401&&2"};
	for(i=0; i<14; i++)
	{
		SN_Info[i] = pgm_read_byte(&__progmem_smartbow_start[i+2]);
    3aac:	24 91       	lpm	r18, Z
    3aae:	2d 93       	st	X+, r18
    3ab0:	31 96       	adiw	r30, 0x01	; 1
		ModbusReturnAckInfo(err);
		return ERROR;
	}
	
	//const uint8_t __progmem_smartbow_start[64] PROGMEM = {"&&SUPERHHH111401&&2"};
	for(i=0; i<14; i++)
    3ab2:	a4 17       	cp	r26, r20
    3ab4:	b5 07       	cpc	r27, r21
    3ab6:	d1 f7       	brne	.-12     	; 0x3aac <Get_SNInfo_Fun+0x62>
	{
		SN_Info[i] = pgm_read_byte(&__progmem_smartbow_start[i+2]);
	}
	SN_Info[14] = pgm_read_byte(&__progmem_smartbow_start[18]);
    3ab8:	ea ec       	ldi	r30, 0xCA	; 202
    3aba:	f2 e0       	ldi	r31, 0x02	; 2
    3abc:	e4 91       	lpm	r30, Z
    3abe:	ef 87       	std	Y+15, r30	; 0x0f
	
	//U485TX;Delay_ms(10);
	//printf("SN_Info:%s\r\n",&SN_Info);
	//U485RX;Delay_ms(100);
	
	temp[0] = KeepRegister.DeviceAddress;
    3ac0:	20 91 74 03 	lds	r18, 0x0374	; 0x800374 <KeepRegister>
    3ac4:	30 91 75 03 	lds	r19, 0x0375	; 0x800375 <KeepRegister+0x1>
    3ac8:	28 8b       	std	Y+16, r18	; 0x10
	temp[1] = ModbusDataPackage.dat[1];
    3aca:	20 91 35 02 	lds	r18, 0x0235	; 0x800235 <ModbusDataPackage+0x3>
    3ace:	29 8b       	std	Y+17, r18	; 0x11
	temp[2] = 0x0F;
    3ad0:	2f e0       	ldi	r18, 0x0F	; 15
    3ad2:	2a 8b       	std	Y+18, r18	; 0x12
    3ad4:	fe 01       	movw	r30, r28
    3ad6:	73 96       	adiw	r30, 0x13	; 19
    3ad8:	ae 01       	movw	r20, r28
    3ada:	4e 5d       	subi	r20, 0xDE	; 222
    3adc:	5f 4f       	sbci	r21, 0xFF	; 255
	
	for(i=0;i<15;i++)
	{
		temp[i+3]=SN_Info[i];
    3ade:	dc 01       	movw	r26, r24
    3ae0:	2d 91       	ld	r18, X+
    3ae2:	cd 01       	movw	r24, r26
    3ae4:	21 93       	st	Z+, r18
	
	temp[0] = KeepRegister.DeviceAddress;
	temp[1] = ModbusDataPackage.dat[1];
	temp[2] = 0x0F;
	
	for(i=0;i<15;i++)
    3ae6:	e4 17       	cp	r30, r20
    3ae8:	f5 07       	cpc	r31, r21
    3aea:	c9 f7       	brne	.-14     	; 0x3ade <Get_SNInfo_Fun+0x94>
	{
		temp[i+3]=SN_Info[i];
	}
	
	crc = CRC16_Check(temp,18);
    3aec:	62 e1       	ldi	r22, 0x12	; 18
    3aee:	ce 01       	movw	r24, r28
    3af0:	40 96       	adiw	r24, 0x10	; 16
    3af2:	0e 94 3f 05 	call	0xa7e	; 0xa7e <CRC16_Check>
	
	temp[18] = crc &0xff;
    3af6:	8a a3       	std	Y+34, r24	; 0x22
	temp[19] = crc >> 8;
    3af8:	9b a3       	std	Y+35, r25	; 0x23
	if(ModbusDataPackage.dat[0]) U485SendData(temp,20);
    3afa:	80 91 34 02 	lds	r24, 0x0234	; 0x800234 <ModbusDataPackage+0x2>
    3afe:	88 23       	and	r24, r24
    3b00:	91 f0       	breq	.+36     	; 0x3b26 <Get_SNInfo_Fun+0xdc>
    3b02:	5a 9a       	sbi	0x0b, 2	; 11
    3b04:	81 e0       	ldi	r24, 0x01	; 1
    3b06:	90 e0       	ldi	r25, 0x00	; 0
    3b08:	0e 94 a1 03 	call	0x742	; 0x742 <Delay_ms>
    3b0c:	64 e1       	ldi	r22, 0x14	; 20
    3b0e:	70 e0       	ldi	r23, 0x00	; 0
    3b10:	ce 01       	movw	r24, r28
    3b12:	40 96       	adiw	r24, 0x10	; 16
    3b14:	0e 94 5c 22 	call	0x44b8	; 0x44b8 <USART0_PutData>
    3b18:	8a e0       	ldi	r24, 0x0A	; 10
    3b1a:	90 e0       	ldi	r25, 0x00	; 0
    3b1c:	0e 94 a1 03 	call	0x742	; 0x742 <Delay_ms>
    3b20:	5a 98       	cbi	0x0b, 2	; 11
	
	return SUCCESS;
    3b22:	81 e0       	ldi	r24, 0x01	; 1
    3b24:	0e c0       	rjmp	.+28     	; 0x3b42 <Get_SNInfo_Fun+0xf8>
    3b26:	81 e0       	ldi	r24, 0x01	; 1
    3b28:	0c c0       	rjmp	.+24     	; 0x3b42 <Get_SNInfo_Fun+0xf8>
	unsigned char SN_Info[15]={0};
	unsigned char temp[25]={0};
	volatile unsigned char reservalData = TOS_NODE_ID;
	
	if(ModbusDataPackage.DataLen !=8 )err = err_OE;
	if( strncmp(FactorySetValueWord,(unsigned char *)&ModbusDataPackage.dat[2],4) !=0 )err=err_OE;
    3b2a:	44 e0       	ldi	r20, 0x04	; 4
    3b2c:	50 e0       	ldi	r21, 0x00	; 0
    3b2e:	66 e3       	ldi	r22, 0x36	; 54
    3b30:	72 e0       	ldi	r23, 0x02	; 2
    3b32:	8b e0       	ldi	r24, 0x0B	; 11
    3b34:	91 e0       	ldi	r25, 0x01	; 1
    3b36:	0e 94 2d 2b 	call	0x565a	; 0x565a <strncmp>
    3b3a:	89 2b       	or	r24, r25
    3b3c:	09 f4       	brne	.+2      	; 0x3b40 <Get_SNInfo_Fun+0xf6>
    3b3e:	a8 cf       	rjmp	.-176    	; 0x3a90 <Get_SNInfo_Fun+0x46>
    3b40:	a3 cf       	rjmp	.-186    	; 0x3a88 <Get_SNInfo_Fun+0x3e>
	temp[18] = crc &0xff;
	temp[19] = crc >> 8;
	if(ModbusDataPackage.dat[0]) U485SendData(temp,20);
	
	return SUCCESS;
}
    3b42:	a9 96       	adiw	r28, 0x29	; 41
    3b44:	0f b6       	in	r0, 0x3f	; 63
    3b46:	f8 94       	cli
    3b48:	de bf       	out	0x3e, r29	; 62
    3b4a:	0f be       	out	0x3f, r0	; 63
    3b4c:	cd bf       	out	0x3d, r28	; 61
    3b4e:	df 91       	pop	r29
    3b50:	cf 91       	pop	r28
    3b52:	08 95       	ret

00003b54 <ModbusSwitchMode>:

操作码:0x44,0x66,0x88,0xaa切换为普通模式    返回格式:器件地址(1字节)+功能码(0x66)+0x44+0x66+0x88+0xaa+校验(2字节)
操作码:0x40,0x60,0x80,0xa0切换为超级模式    返回格式:器件地址(1字节)+功能码(0x66)+0x40+0x60+0x80+0xa0+校验(2字节)
*********************************/
char ModbusSwitchMode(void)
{
    3b54:	1f 93       	push	r17
    3b56:	cf 93       	push	r28
    3b58:	df 93       	push	r29
    3b5a:	cd b7       	in	r28, 0x3d	; 61
    3b5c:	de b7       	in	r29, 0x3e	; 62
    3b5e:	2a 97       	sbiw	r28, 0x0a	; 10
    3b60:	0f b6       	in	r0, 0x3f	; 63
    3b62:	f8 94       	cli
    3b64:	de bf       	out	0x3e, r29	; 62
    3b66:	0f be       	out	0x3f, r0	; 63
    3b68:	cd bf       	out	0x3d, r28	; 61
	uint8_t err=0;
	uint8_t temp[10];
	uint16_t crc;
	uint8_t temp2=3;
	
	if(ModbusDataPackage.DataLen !=8 )err = err_OE;
    3b6a:	80 91 33 02 	lds	r24, 0x0233	; 0x800233 <ModbusDataPackage+0x1>
    3b6e:	88 30       	cpi	r24, 0x08	; 8
    3b70:	09 f4       	brne	.+2      	; 0x3b74 <ModbusSwitchMode+0x20>
    3b72:	90 c0       	rjmp	.+288    	; 0x3c94 <ModbusSwitchMode+0x140>
	if( strncmp(SuperModeValueWord2,(unsigned char *)&ModbusDataPackage.dat[2],4) ==0 )//切换为超级模式
    3b74:	44 e0       	ldi	r20, 0x04	; 4
    3b76:	50 e0       	ldi	r21, 0x00	; 0
    3b78:	66 e3       	ldi	r22, 0x36	; 54
    3b7a:	72 e0       	ldi	r23, 0x02	; 2
    3b7c:	83 e0       	ldi	r24, 0x03	; 3
    3b7e:	91 e0       	ldi	r25, 0x01	; 1
    3b80:	0e 94 2d 2b 	call	0x565a	; 0x565a <strncmp>
    3b84:	89 2b       	or	r24, r25
    3b86:	09 f4       	brne	.+2      	; 0x3b8a <ModbusSwitchMode+0x36>
    3b88:	92 c0       	rjmp	.+292    	; 0x3cae <ModbusSwitchMode+0x15a>
	uint8_t err=0;
	uint8_t temp[10];
	uint16_t crc;
	uint8_t temp2=3;
	
	if(ModbusDataPackage.DataLen !=8 )err = err_OE;
    3b8a:	14 e0       	ldi	r17, 0x04	; 4
	if( strncmp(SuperModeValueWord2,(unsigned char *)&ModbusDataPackage.dat[2],4) ==0 )//切换为超级模式
	{
		temp2=1;		
	}
	else if( strncmp(FactorySetValueWord,(unsigned char *)&ModbusDataPackage.dat[2],4) ==0 )//切换为普通模式
    3b8c:	44 e0       	ldi	r20, 0x04	; 4
    3b8e:	50 e0       	ldi	r21, 0x00	; 0
    3b90:	66 e3       	ldi	r22, 0x36	; 54
    3b92:	72 e0       	ldi	r23, 0x02	; 2
    3b94:	8b e0       	ldi	r24, 0x0B	; 11
    3b96:	91 e0       	ldi	r25, 0x01	; 1
    3b98:	0e 94 2d 2b 	call	0x565a	; 0x565a <strncmp>
    3b9c:	89 2b       	or	r24, r25
    3b9e:	09 f4       	brne	.+2      	; 0x3ba2 <ModbusSwitchMode+0x4e>
    3ba0:	76 c0       	rjmp	.+236    	; 0x3c8e <ModbusSwitchMode+0x13a>
    3ba2:	8f c0       	rjmp	.+286    	; 0x3cc2 <ModbusSwitchMode+0x16e>
	uint8_t err=0;
	uint8_t temp[10];
	uint16_t crc;
	uint8_t temp2=3;
	
	if(ModbusDataPackage.DataLen !=8 )err = err_OE;
    3ba4:	14 e0       	ldi	r17, 0x04	; 4
    3ba6:	01 c0       	rjmp	.+2      	; 0x3baa <ModbusSwitchMode+0x56>
	}
	else if( strncmp(FactorySetValueWord,(unsigned char *)&ModbusDataPackage.dat[2],4) ==0 )//切换为普通模式
	{
		temp2=2;
	}
	else err=err_OE;
    3ba8:	14 e0       	ldi	r17, 0x04	; 4
	
	if(  (err != 0)  &&  (ModbusDataPackage.dat[0] != 0) )
	{
		ModbusReturnAckInfo(err);
    3baa:	81 2f       	mov	r24, r17
    3bac:	0e 94 63 05 	call	0xac6	; 0xac6 <ModbusReturnAckInfo>
		return ERROR;
    3bb0:	80 e0       	ldi	r24, 0x00	; 0
    3bb2:	8c c0       	rjmp	.+280    	; 0x3ccc <ModbusSwitchMode+0x178>
	}
	
		
	if( temp2==1 )//切换为超级模式
	{
		SuperMode_Flag=1;
    3bb4:	81 e0       	ldi	r24, 0x01	; 1
    3bb6:	80 93 22 01 	sts	0x0122, r24	; 0x800122 <__data_end>
		temp[0] = 0x34;
    3bba:	84 e3       	ldi	r24, 0x34	; 52
    3bbc:	89 83       	std	Y+1, r24	; 0x01
		temp[1] = 0x12;
    3bbe:	82 e1       	ldi	r24, 0x12	; 18
    3bc0:	8a 83       	std	Y+2, r24	; 0x02
		EEWrite(SUPERMODE_FLAG_BASEADDR,temp,2);
    3bc2:	42 e0       	ldi	r20, 0x02	; 2
    3bc4:	50 e0       	ldi	r21, 0x00	; 0
    3bc6:	be 01       	movw	r22, r28
    3bc8:	6f 5f       	subi	r22, 0xFF	; 255
    3bca:	7f 4f       	sbci	r23, 0xFF	; 255
    3bcc:	80 e3       	ldi	r24, 0x30	; 48
    3bce:	90 e0       	ldi	r25, 0x00	; 0
    3bd0:	0e 94 5d 02 	call	0x4ba	; 0x4ba <EEWrite>
		InputRegister.SystemWorkStatus=(InputRegister.SystemWorkStatus & 0x00ff)|0x0100;
    3bd4:	e4 e3       	ldi	r30, 0x34	; 52
    3bd6:	f3 e0       	ldi	r31, 0x03	; 3
    3bd8:	80 85       	ldd	r24, Z+8	; 0x08
    3bda:	91 85       	ldd	r25, Z+9	; 0x09
    3bdc:	99 27       	eor	r25, r25
    3bde:	91 60       	ori	r25, 0x01	; 1
    3be0:	91 87       	std	Z+9, r25	; 0x09
    3be2:	80 87       	std	Z+8, r24	; 0x08
		
		temp[0] = KeepRegister.DeviceAddress;
    3be4:	80 91 74 03 	lds	r24, 0x0374	; 0x800374 <KeepRegister>
    3be8:	90 91 75 03 	lds	r25, 0x0375	; 0x800375 <KeepRegister+0x1>
    3bec:	89 83       	std	Y+1, r24	; 0x01
		temp[1] = ModbusDataPackage.dat[1];
    3bee:	80 91 35 02 	lds	r24, 0x0235	; 0x800235 <ModbusDataPackage+0x3>
    3bf2:	8a 83       	std	Y+2, r24	; 0x02
		temp[2] = 0x40;
    3bf4:	80 e4       	ldi	r24, 0x40	; 64
    3bf6:	8b 83       	std	Y+3, r24	; 0x03
		temp[3] = 0x60;
    3bf8:	80 e6       	ldi	r24, 0x60	; 96
    3bfa:	8c 83       	std	Y+4, r24	; 0x04
		temp[4] = 0x80;
    3bfc:	80 e8       	ldi	r24, 0x80	; 128
    3bfe:	8d 83       	std	Y+5, r24	; 0x05
		temp[5] = 0xa0;
    3c00:	80 ea       	ldi	r24, 0xA0	; 160
    3c02:	8e 83       	std	Y+6, r24	; 0x06
    3c04:	25 c0       	rjmp	.+74     	; 0x3c50 <ModbusSwitchMode+0xfc>
	}
	
	else if( temp2==2 )//切换为普通模式
	{
		SuperMode_Flag=0;
    3c06:	10 92 22 01 	sts	0x0122, r1	; 0x800122 <__data_end>
		temp[0] = 0x00;
    3c0a:	19 82       	std	Y+1, r1	; 0x01
		temp[1] = 0x00;
    3c0c:	1a 82       	std	Y+2, r1	; 0x02
		EEWrite(SUPERMODE_FLAG_BASEADDR,temp,2);
    3c0e:	42 e0       	ldi	r20, 0x02	; 2
    3c10:	50 e0       	ldi	r21, 0x00	; 0
    3c12:	be 01       	movw	r22, r28
    3c14:	6f 5f       	subi	r22, 0xFF	; 255
    3c16:	7f 4f       	sbci	r23, 0xFF	; 255
    3c18:	80 e3       	ldi	r24, 0x30	; 48
    3c1a:	90 e0       	ldi	r25, 0x00	; 0
    3c1c:	0e 94 5d 02 	call	0x4ba	; 0x4ba <EEWrite>
		InputRegister.SystemWorkStatus=(InputRegister.SystemWorkStatus & 0x00ff)|0x0200;
    3c20:	e4 e3       	ldi	r30, 0x34	; 52
    3c22:	f3 e0       	ldi	r31, 0x03	; 3
    3c24:	80 85       	ldd	r24, Z+8	; 0x08
    3c26:	91 85       	ldd	r25, Z+9	; 0x09
    3c28:	99 27       	eor	r25, r25
    3c2a:	92 60       	ori	r25, 0x02	; 2
    3c2c:	91 87       	std	Z+9, r25	; 0x09
    3c2e:	80 87       	std	Z+8, r24	; 0x08
		
		temp[0] = KeepRegister.DeviceAddress;
    3c30:	80 91 74 03 	lds	r24, 0x0374	; 0x800374 <KeepRegister>
    3c34:	90 91 75 03 	lds	r25, 0x0375	; 0x800375 <KeepRegister+0x1>
    3c38:	89 83       	std	Y+1, r24	; 0x01
		temp[1] = ModbusDataPackage.dat[1];
    3c3a:	80 91 35 02 	lds	r24, 0x0235	; 0x800235 <ModbusDataPackage+0x3>
    3c3e:	8a 83       	std	Y+2, r24	; 0x02
		temp[2] = 0x44;
    3c40:	84 e4       	ldi	r24, 0x44	; 68
    3c42:	8b 83       	std	Y+3, r24	; 0x03
		temp[3] = 0x66;
    3c44:	86 e6       	ldi	r24, 0x66	; 102
    3c46:	8c 83       	std	Y+4, r24	; 0x04
		temp[4] = 0x88;
    3c48:	88 e8       	ldi	r24, 0x88	; 136
    3c4a:	8d 83       	std	Y+5, r24	; 0x05
		temp[5] = 0xaa;
    3c4c:	8a ea       	ldi	r24, 0xAA	; 170
    3c4e:	8e 83       	std	Y+6, r24	; 0x06
	}
	
	crc = CRC16_Check(temp,6);
    3c50:	66 e0       	ldi	r22, 0x06	; 6
    3c52:	ce 01       	movw	r24, r28
    3c54:	01 96       	adiw	r24, 0x01	; 1
    3c56:	0e 94 3f 05 	call	0xa7e	; 0xa7e <CRC16_Check>
	
	temp[6] = crc &0xff;
    3c5a:	8f 83       	std	Y+7, r24	; 0x07
	temp[7] = crc >> 8;
    3c5c:	98 87       	std	Y+8, r25	; 0x08
	if(ModbusDataPackage.dat[0]) U485SendData(temp,8);
    3c5e:	80 91 34 02 	lds	r24, 0x0234	; 0x800234 <ModbusDataPackage+0x2>
    3c62:	88 23       	and	r24, r24
    3c64:	91 f0       	breq	.+36     	; 0x3c8a <ModbusSwitchMode+0x136>
    3c66:	5a 9a       	sbi	0x0b, 2	; 11
    3c68:	81 e0       	ldi	r24, 0x01	; 1
    3c6a:	90 e0       	ldi	r25, 0x00	; 0
    3c6c:	0e 94 a1 03 	call	0x742	; 0x742 <Delay_ms>
    3c70:	68 e0       	ldi	r22, 0x08	; 8
    3c72:	70 e0       	ldi	r23, 0x00	; 0
    3c74:	ce 01       	movw	r24, r28
    3c76:	01 96       	adiw	r24, 0x01	; 1
    3c78:	0e 94 5c 22 	call	0x44b8	; 0x44b8 <USART0_PutData>
    3c7c:	8a e0       	ldi	r24, 0x0A	; 10
    3c7e:	90 e0       	ldi	r25, 0x00	; 0
    3c80:	0e 94 a1 03 	call	0x742	; 0x742 <Delay_ms>
    3c84:	5a 98       	cbi	0x0b, 2	; 11
	
	return SUCCESS;
    3c86:	81 e0       	ldi	r24, 0x01	; 1
    3c88:	21 c0       	rjmp	.+66     	; 0x3ccc <ModbusSwitchMode+0x178>
    3c8a:	81 e0       	ldi	r24, 0x01	; 1
    3c8c:	1f c0       	rjmp	.+62     	; 0x3ccc <ModbusSwitchMode+0x178>
	{
		temp2=2;
	}
	else err=err_OE;
	
	if(  (err != 0)  &&  (ModbusDataPackage.dat[0] != 0) )
    3c8e:	11 11       	cpse	r17, r1
    3c90:	13 c0       	rjmp	.+38     	; 0x3cb8 <ModbusSwitchMode+0x164>
    3c92:	b9 cf       	rjmp	.-142    	; 0x3c06 <ModbusSwitchMode+0xb2>
	uint8_t temp[10];
	uint16_t crc;
	uint8_t temp2=3;
	
	if(ModbusDataPackage.DataLen !=8 )err = err_OE;
	if( strncmp(SuperModeValueWord2,(unsigned char *)&ModbusDataPackage.dat[2],4) ==0 )//切换为超级模式
    3c94:	44 e0       	ldi	r20, 0x04	; 4
    3c96:	50 e0       	ldi	r21, 0x00	; 0
    3c98:	66 e3       	ldi	r22, 0x36	; 54
    3c9a:	72 e0       	ldi	r23, 0x02	; 2
    3c9c:	83 e0       	ldi	r24, 0x03	; 3
    3c9e:	91 e0       	ldi	r25, 0x01	; 1
    3ca0:	0e 94 2d 2b 	call	0x565a	; 0x565a <strncmp>
    3ca4:	89 2b       	or	r24, r25
    3ca6:	09 f4       	brne	.+2      	; 0x3caa <ModbusSwitchMode+0x156>
    3ca8:	85 cf       	rjmp	.-246    	; 0x3bb4 <ModbusSwitchMode+0x60>
操作码:0x44,0x66,0x88,0xaa切换为普通模式    返回格式:器件地址(1字节)+功能码(0x66)+0x44+0x66+0x88+0xaa+校验(2字节)
操作码:0x40,0x60,0x80,0xa0切换为超级模式    返回格式:器件地址(1字节)+功能码(0x66)+0x40+0x60+0x80+0xa0+校验(2字节)
*********************************/
char ModbusSwitchMode(void)
{
	uint8_t err=0;
    3caa:	10 e0       	ldi	r17, 0x00	; 0
    3cac:	6f cf       	rjmp	.-290    	; 0x3b8c <ModbusSwitchMode+0x38>
	{
		temp2=2;
	}
	else err=err_OE;
	
	if(  (err != 0)  &&  (ModbusDataPackage.dat[0] != 0) )
    3cae:	80 91 34 02 	lds	r24, 0x0234	; 0x800234 <ModbusDataPackage+0x2>
    3cb2:	81 11       	cpse	r24, r1
    3cb4:	77 cf       	rjmp	.-274    	; 0x3ba4 <ModbusSwitchMode+0x50>
    3cb6:	7e cf       	rjmp	.-260    	; 0x3bb4 <ModbusSwitchMode+0x60>
    3cb8:	80 91 34 02 	lds	r24, 0x0234	; 0x800234 <ModbusDataPackage+0x2>
    3cbc:	81 11       	cpse	r24, r1
    3cbe:	75 cf       	rjmp	.-278    	; 0x3baa <ModbusSwitchMode+0x56>
    3cc0:	a2 cf       	rjmp	.-188    	; 0x3c06 <ModbusSwitchMode+0xb2>
    3cc2:	80 91 34 02 	lds	r24, 0x0234	; 0x800234 <ModbusDataPackage+0x2>
    3cc6:	88 23       	and	r24, r24
    3cc8:	19 f2       	breq	.-122    	; 0x3c50 <ModbusSwitchMode+0xfc>
    3cca:	6e cf       	rjmp	.-292    	; 0x3ba8 <ModbusSwitchMode+0x54>
	temp[6] = crc &0xff;
	temp[7] = crc >> 8;
	if(ModbusDataPackage.dat[0]) U485SendData(temp,8);
	
	return SUCCESS;
}
    3ccc:	2a 96       	adiw	r28, 0x0a	; 10
    3cce:	0f b6       	in	r0, 0x3f	; 63
    3cd0:	f8 94       	cli
    3cd2:	de bf       	out	0x3e, r29	; 62
    3cd4:	0f be       	out	0x3f, r0	; 63
    3cd6:	cd bf       	out	0x3d, r28	; 61
    3cd8:	df 91       	pop	r29
    3cda:	cf 91       	pop	r28
    3cdc:	1f 91       	pop	r17
    3cde:	08 95       	ret

00003ce0 <CTC>:
数据格式:器件地址(1字节)+功能码(0x49)+操作码(4字节)+校验(2字节)
返回格式:器件地址(1字节)+功能码(0x49)+所修改寄存器首地址(2字节)+所修改寄存器数量(2字节)+校验(2字节)
操作码:0x44,0x66,0x88,0xaa
*********************************/
char CTC(void)
{
    3ce0:	0f 93       	push	r16
    3ce2:	1f 93       	push	r17
    3ce4:	cf 93       	push	r28
    3ce6:	df 93       	push	r29
    3ce8:	cd b7       	in	r28, 0x3d	; 61
    3cea:	de b7       	in	r29, 0x3e	; 62
    3cec:	2a 97       	sbiw	r28, 0x0a	; 10
    3cee:	0f b6       	in	r0, 0x3f	; 63
    3cf0:	f8 94       	cli
    3cf2:	de bf       	out	0x3e, r29	; 62
    3cf4:	0f be       	out	0x3f, r0	; 63
    3cf6:	cd bf       	out	0x3d, r28	; 61
	uint8_t err=0;
	uint8_t i=0;
	uint8_t temp[10];
	uint16_t crc;

	if(ModbusDataPackage.DataLen !=8 )err = err_OE;
    3cf8:	80 91 33 02 	lds	r24, 0x0233	; 0x800233 <ModbusDataPackage+0x1>
    3cfc:	88 30       	cpi	r24, 0x08	; 8
    3cfe:	11 f0       	breq	.+4      	; 0x3d04 <CTC+0x24>
    3d00:	14 e0       	ldi	r17, 0x04	; 4
    3d02:	01 c0       	rjmp	.+2      	; 0x3d06 <CTC+0x26>
返回格式:器件地址(1字节)+功能码(0x49)+所修改寄存器首地址(2字节)+所修改寄存器数量(2字节)+校验(2字节)
操作码:0x44,0x66,0x88,0xaa
*********************************/
char CTC(void)
{
	uint8_t err=0;
    3d04:	10 e0       	ldi	r17, 0x00	; 0
	uint8_t i=0;
	uint8_t temp[10];
	uint16_t crc;

	if(ModbusDataPackage.DataLen !=8 )err = err_OE;
	if( strncmp(FactorySetValueWord,(unsigned char *)&ModbusDataPackage.dat[2],4) !=0 )err=err_OE;
    3d06:	44 e0       	ldi	r20, 0x04	; 4
    3d08:	50 e0       	ldi	r21, 0x00	; 0
    3d0a:	66 e3       	ldi	r22, 0x36	; 54
    3d0c:	72 e0       	ldi	r23, 0x02	; 2
    3d0e:	8b e0       	ldi	r24, 0x0B	; 11
    3d10:	91 e0       	ldi	r25, 0x01	; 1
    3d12:	0e 94 2d 2b 	call	0x565a	; 0x565a <strncmp>
    3d16:	89 2b       	or	r24, r25
    3d18:	09 f0       	breq	.+2      	; 0x3d1c <CTC+0x3c>
    3d1a:	14 e0       	ldi	r17, 0x04	; 4
	if(SuperMode_Flag==0)err=err_mode;
    3d1c:	80 91 22 01 	lds	r24, 0x0122	; 0x800122 <__data_end>
    3d20:	88 23       	and	r24, r24
    3d22:	19 f0       	breq	.+6      	; 0x3d2a <CTC+0x4a>
	
	
	if(  (err != 0)  && (ModbusDataPackage.dat[0] != 0) )//加判断
    3d24:	11 23       	and	r17, r17
    3d26:	59 f0       	breq	.+22     	; 0x3d3e <CTC+0x5e>
    3d28:	01 c0       	rjmp	.+2      	; 0x3d2c <CTC+0x4c>
	uint8_t temp[10];
	uint16_t crc;

	if(ModbusDataPackage.DataLen !=8 )err = err_OE;
	if( strncmp(FactorySetValueWord,(unsigned char *)&ModbusDataPackage.dat[2],4) !=0 )err=err_OE;
	if(SuperMode_Flag==0)err=err_mode;
    3d2a:	15 e0       	ldi	r17, 0x05	; 5
	
	
	if(  (err != 0)  && (ModbusDataPackage.dat[0] != 0) )//加判断
    3d2c:	80 91 34 02 	lds	r24, 0x0234	; 0x800234 <ModbusDataPackage+0x2>
    3d30:	88 23       	and	r24, r24
    3d32:	41 f0       	breq	.+16     	; 0x3d44 <CTC+0x64>
	{
		ModbusReturnAckInfo(err);
    3d34:	81 2f       	mov	r24, r17
    3d36:	0e 94 63 05 	call	0xac6	; 0xac6 <ModbusReturnAckInfo>
		return ERROR;
    3d3a:	80 e0       	ldi	r24, 0x00	; 0
    3d3c:	9d c0       	rjmp	.+314    	; 0x3e78 <CTC+0x198>
    3d3e:	80 e0       	ldi	r24, 0x00	; 0
    3d40:	90 e0       	ldi	r25, 0x00	; 0
    3d42:	02 c0       	rjmp	.+4      	; 0x3d48 <CTC+0x68>
    3d44:	80 e0       	ldi	r24, 0x00	; 0
    3d46:	90 e0       	ldi	r25, 0x00	; 0
	}
	
	//将系数全部清零
	for(i=0;i<5;i++) KeepRegister.LTC0[i]=0;
    3d48:	fc 01       	movw	r30, r24
    3d4a:	ee 0f       	add	r30, r30
    3d4c:	ff 1f       	adc	r31, r31
    3d4e:	ee 0f       	add	r30, r30
    3d50:	ff 1f       	adc	r31, r31
    3d52:	e8 55       	subi	r30, 0x58	; 88
    3d54:	fc 4f       	sbci	r31, 0xFC	; 252
    3d56:	10 82       	st	Z, r1
    3d58:	11 82       	std	Z+1, r1	; 0x01
    3d5a:	12 82       	std	Z+2, r1	; 0x02
    3d5c:	13 82       	std	Z+3, r1	; 0x03
    3d5e:	01 96       	adiw	r24, 0x01	; 1
    3d60:	85 30       	cpi	r24, 0x05	; 5
    3d62:	91 05       	cpc	r25, r1
    3d64:	89 f7       	brne	.-30     	; 0x3d48 <CTC+0x68>
    3d66:	80 e0       	ldi	r24, 0x00	; 0
    3d68:	90 e0       	ldi	r25, 0x00	; 0
	for(i=0;i<5;i++) KeepRegister.LTC1[i]=0;
    3d6a:	fc 01       	movw	r30, r24
    3d6c:	ee 0f       	add	r30, r30
    3d6e:	ff 1f       	adc	r31, r31
    3d70:	ee 0f       	add	r30, r30
    3d72:	ff 1f       	adc	r31, r31
    3d74:	e4 54       	subi	r30, 0x44	; 68
    3d76:	fc 4f       	sbci	r31, 0xFC	; 252
    3d78:	10 82       	st	Z, r1
    3d7a:	11 82       	std	Z+1, r1	; 0x01
    3d7c:	12 82       	std	Z+2, r1	; 0x02
    3d7e:	13 82       	std	Z+3, r1	; 0x03
    3d80:	01 96       	adiw	r24, 0x01	; 1
    3d82:	85 30       	cpi	r24, 0x05	; 5
    3d84:	91 05       	cpc	r25, r1
    3d86:	89 f7       	brne	.-30     	; 0x3d6a <CTC+0x8a>
    3d88:	80 e0       	ldi	r24, 0x00	; 0
    3d8a:	90 e0       	ldi	r25, 0x00	; 0
	for(i=0;i<5;i++) KeepRegister.LTC2[i]=0;
    3d8c:	fc 01       	movw	r30, r24
    3d8e:	ee 0f       	add	r30, r30
    3d90:	ff 1f       	adc	r31, r31
    3d92:	ee 0f       	add	r30, r30
    3d94:	ff 1f       	adc	r31, r31
    3d96:	e0 53       	subi	r30, 0x30	; 48
    3d98:	fc 4f       	sbci	r31, 0xFC	; 252
    3d9a:	10 82       	st	Z, r1
    3d9c:	11 82       	std	Z+1, r1	; 0x01
    3d9e:	12 82       	std	Z+2, r1	; 0x02
    3da0:	13 82       	std	Z+3, r1	; 0x03
    3da2:	01 96       	adiw	r24, 0x01	; 1
    3da4:	85 30       	cpi	r24, 0x05	; 5
    3da6:	91 05       	cpc	r25, r1
    3da8:	89 f7       	brne	.-30     	; 0x3d8c <CTC+0xac>
    3daa:	80 e0       	ldi	r24, 0x00	; 0
    3dac:	90 e0       	ldi	r25, 0x00	; 0
	for(i=0;i<5;i++) KeepRegister.LTC3[i]=0;
    3dae:	fc 01       	movw	r30, r24
    3db0:	ee 0f       	add	r30, r30
    3db2:	ff 1f       	adc	r31, r31
    3db4:	ee 0f       	add	r30, r30
    3db6:	ff 1f       	adc	r31, r31
    3db8:	ec 51       	subi	r30, 0x1C	; 28
    3dba:	fc 4f       	sbci	r31, 0xFC	; 252
    3dbc:	10 82       	st	Z, r1
    3dbe:	11 82       	std	Z+1, r1	; 0x01
    3dc0:	12 82       	std	Z+2, r1	; 0x02
    3dc2:	13 82       	std	Z+3, r1	; 0x03
    3dc4:	01 96       	adiw	r24, 0x01	; 1
    3dc6:	85 30       	cpi	r24, 0x05	; 5
    3dc8:	91 05       	cpc	r25, r1
    3dca:	89 f7       	brne	.-30     	; 0x3dae <CTC+0xce>
    3dcc:	80 e0       	ldi	r24, 0x00	; 0
    3dce:	90 e0       	ldi	r25, 0x00	; 0
	for(i=0;i<5;i++) KeepRegister.LTC4[i]=0;
    3dd0:	fc 01       	movw	r30, r24
    3dd2:	ee 0f       	add	r30, r30
    3dd4:	ff 1f       	adc	r31, r31
    3dd6:	ee 0f       	add	r30, r30
    3dd8:	ff 1f       	adc	r31, r31
    3dda:	e8 50       	subi	r30, 0x08	; 8
    3ddc:	fc 4f       	sbci	r31, 0xFC	; 252
    3dde:	10 82       	st	Z, r1
    3de0:	11 82       	std	Z+1, r1	; 0x01
    3de2:	12 82       	std	Z+2, r1	; 0x02
    3de4:	13 82       	std	Z+3, r1	; 0x03
    3de6:	01 96       	adiw	r24, 0x01	; 1
    3de8:	85 30       	cpi	r24, 0x05	; 5
    3dea:	91 05       	cpc	r25, r1
    3dec:	89 f7       	brne	.-30     	; 0x3dd0 <CTC+0xf0>
    3dee:	80 e0       	ldi	r24, 0x00	; 0
    3df0:	90 e0       	ldi	r25, 0x00	; 0
	for(i=0;i<5;i++) KeepRegister.LTC5[i]=0;
    3df2:	fc 01       	movw	r30, r24
    3df4:	ee 0f       	add	r30, r30
    3df6:	ff 1f       	adc	r31, r31
    3df8:	ee 0f       	add	r30, r30
    3dfa:	ff 1f       	adc	r31, r31
    3dfc:	e4 5f       	subi	r30, 0xF4	; 244
    3dfe:	fb 4f       	sbci	r31, 0xFB	; 251
    3e00:	10 82       	st	Z, r1
    3e02:	11 82       	std	Z+1, r1	; 0x01
    3e04:	12 82       	std	Z+2, r1	; 0x02
    3e06:	13 82       	std	Z+3, r1	; 0x03
    3e08:	01 96       	adiw	r24, 0x01	; 1
    3e0a:	85 30       	cpi	r24, 0x05	; 5
    3e0c:	91 05       	cpc	r25, r1
    3e0e:	89 f7       	brne	.-30     	; 0x3df2 <CTC+0x112>
	
	EEErase(KREEPROM_BASEADDR+52,120);    //保存到EEPROM
    3e10:	68 e7       	ldi	r22, 0x78	; 120
    3e12:	70 e0       	ldi	r23, 0x00	; 0
    3e14:	84 e7       	ldi	r24, 0x74	; 116
    3e16:	90 e0       	ldi	r25, 0x00	; 0
    3e18:	0e 94 7a 03 	call	0x6f4	; 0x6f4 <EEErase>
	
	temp[0] = KeepRegister.DeviceAddress;
    3e1c:	80 91 74 03 	lds	r24, 0x0374	; 0x800374 <KeepRegister>
    3e20:	90 91 75 03 	lds	r25, 0x0375	; 0x800375 <KeepRegister+0x1>
    3e24:	89 83       	std	Y+1, r24	; 0x01
	temp[1] = ModbusDataPackage.dat[1];
    3e26:	02 e3       	ldi	r16, 0x32	; 50
    3e28:	12 e0       	ldi	r17, 0x02	; 2
    3e2a:	f8 01       	movw	r30, r16
    3e2c:	83 81       	ldd	r24, Z+3	; 0x03
    3e2e:	8a 83       	std	Y+2, r24	; 0x02
	temp[2] = 0x00;
    3e30:	1b 82       	std	Y+3, r1	; 0x03
	temp[3] = 0x0c;
    3e32:	8c e0       	ldi	r24, 0x0C	; 12
    3e34:	8c 83       	std	Y+4, r24	; 0x04
	temp[4] = 0x00;
    3e36:	1d 82       	std	Y+5, r1	; 0x05
	temp[5] = 0x02;
    3e38:	82 e0       	ldi	r24, 0x02	; 2
    3e3a:	8e 83       	std	Y+6, r24	; 0x06
	
	crc = CRC16_Check(temp,6);
    3e3c:	66 e0       	ldi	r22, 0x06	; 6
    3e3e:	ce 01       	movw	r24, r28
    3e40:	01 96       	adiw	r24, 0x01	; 1
    3e42:	0e 94 3f 05 	call	0xa7e	; 0xa7e <CRC16_Check>
	temp[6] = crc &0xff;
    3e46:	8f 83       	std	Y+7, r24	; 0x07
	temp[7] = crc >> 8;
    3e48:	98 87       	std	Y+8, r25	; 0x08
	if(ModbusDataPackage.dat[0]) U485SendData(temp,8);
    3e4a:	f8 01       	movw	r30, r16
    3e4c:	82 81       	ldd	r24, Z+2	; 0x02
    3e4e:	88 23       	and	r24, r24
    3e50:	91 f0       	breq	.+36     	; 0x3e76 <CTC+0x196>
    3e52:	5a 9a       	sbi	0x0b, 2	; 11
    3e54:	81 e0       	ldi	r24, 0x01	; 1
    3e56:	90 e0       	ldi	r25, 0x00	; 0
    3e58:	0e 94 a1 03 	call	0x742	; 0x742 <Delay_ms>
    3e5c:	68 e0       	ldi	r22, 0x08	; 8
    3e5e:	70 e0       	ldi	r23, 0x00	; 0
    3e60:	ce 01       	movw	r24, r28
    3e62:	01 96       	adiw	r24, 0x01	; 1
    3e64:	0e 94 5c 22 	call	0x44b8	; 0x44b8 <USART0_PutData>
    3e68:	8a e0       	ldi	r24, 0x0A	; 10
    3e6a:	90 e0       	ldi	r25, 0x00	; 0
    3e6c:	0e 94 a1 03 	call	0x742	; 0x742 <Delay_ms>
    3e70:	5a 98       	cbi	0x0b, 2	; 11
	
	return SUCCESS;
    3e72:	81 e0       	ldi	r24, 0x01	; 1
    3e74:	01 c0       	rjmp	.+2      	; 0x3e78 <CTC+0x198>
    3e76:	81 e0       	ldi	r24, 0x01	; 1
}
    3e78:	2a 96       	adiw	r28, 0x0a	; 10
    3e7a:	0f b6       	in	r0, 0x3f	; 63
    3e7c:	f8 94       	cli
    3e7e:	de bf       	out	0x3e, r29	; 62
    3e80:	0f be       	out	0x3f, r0	; 63
    3e82:	cd bf       	out	0x3d, r28	; 61
    3e84:	df 91       	pop	r29
    3e86:	cf 91       	pop	r28
    3e88:	1f 91       	pop	r17
    3e8a:	0f 91       	pop	r16
    3e8c:	08 95       	ret

00003e8e <ModbusFactoryParameterReset>:
数据格式:器件地址(0)+功能码(0x68)+操作码(4字节)+校验(2字节)
返回格式:器件地址(1字节)+功能码(0x68)+寄存器地址(2字节)+寄存器数量(2字节)+字节数(1字节)+所有保持寄存器数据(N字节)+校验(2字节)
操作码:0x33,0x55,0x77,0x99
*********************************/
char ModbusFactoryParameterReset(void)
{
    3e8e:	0f 93       	push	r16
    3e90:	1f 93       	push	r17
    3e92:	cf 93       	push	r28
    3e94:	df 93       	push	r29
    3e96:	cd b7       	in	r28, 0x3d	; 61
    3e98:	de b7       	in	r29, 0x3e	; 62
    3e9a:	cf 5f       	subi	r28, 0xFF	; 255
    3e9c:	d1 09       	sbc	r29, r1
    3e9e:	0f b6       	in	r0, 0x3f	; 63
    3ea0:	f8 94       	cli
    3ea2:	de bf       	out	0x3e, r29	; 62
    3ea4:	0f be       	out	0x3f, r0	; 63
    3ea6:	cd bf       	out	0x3d, r28	; 61
	uint8_t err=0;
	uint8_t temp[255];
	uint16_t crc;
	if(ModbusDataPackage.DataLen != 8)err = err_OE;//有效操作发生异常
    3ea8:	80 91 33 02 	lds	r24, 0x0233	; 0x800233 <ModbusDataPackage+0x1>
    3eac:	88 30       	cpi	r24, 0x08	; 8
    3eae:	11 f0       	breq	.+4      	; 0x3eb4 <ModbusFactoryParameterReset+0x26>
    3eb0:	14 e0       	ldi	r17, 0x04	; 4
    3eb2:	01 c0       	rjmp	.+2      	; 0x3eb6 <ModbusFactoryParameterReset+0x28>
返回格式:器件地址(1字节)+功能码(0x68)+寄存器地址(2字节)+寄存器数量(2字节)+字节数(1字节)+所有保持寄存器数据(N字节)+校验(2字节)
操作码:0x33,0x55,0x77,0x99
*********************************/
char ModbusFactoryParameterReset(void)
{
	uint8_t err=0;
    3eb4:	10 e0       	ldi	r17, 0x00	; 0
	uint8_t temp[255];
	uint16_t crc;
	if(ModbusDataPackage.DataLen != 8)err = err_OE;//有效操作发生异常
	if(strncmp(FactoryResetWord,(char *)&ModbusDataPackage.dat[2],4) != 0)err = err_OE;//寄存器值超出范围
    3eb6:	44 e0       	ldi	r20, 0x04	; 4
    3eb8:	50 e0       	ldi	r21, 0x00	; 0
    3eba:	66 e3       	ldi	r22, 0x36	; 54
    3ebc:	72 e0       	ldi	r23, 0x02	; 2
    3ebe:	8f e0       	ldi	r24, 0x0F	; 15
    3ec0:	91 e0       	ldi	r25, 0x01	; 1
    3ec2:	0e 94 2d 2b 	call	0x565a	; 0x565a <strncmp>
    3ec6:	89 2b       	or	r24, r25
    3ec8:	09 f0       	breq	.+2      	; 0x3ecc <ModbusFactoryParameterReset+0x3e>
    3eca:	14 e0       	ldi	r17, 0x04	; 4
	if(SuperMode_Flag==0)err=err_mode;
    3ecc:	80 91 22 01 	lds	r24, 0x0122	; 0x800122 <__data_end>
    3ed0:	88 23       	and	r24, r24
    3ed2:	19 f0       	breq	.+6      	; 0x3eda <ModbusFactoryParameterReset+0x4c>
	if(  (err != 0)  && (ModbusDataPackage.dat[0] != 0) )	  //返回异常码信息
    3ed4:	11 23       	and	r17, r17
    3ed6:	31 f0       	breq	.+12     	; 0x3ee4 <ModbusFactoryParameterReset+0x56>
    3ed8:	01 c0       	rjmp	.+2      	; 0x3edc <ModbusFactoryParameterReset+0x4e>
	uint8_t err=0;
	uint8_t temp[255];
	uint16_t crc;
	if(ModbusDataPackage.DataLen != 8)err = err_OE;//有效操作发生异常
	if(strncmp(FactoryResetWord,(char *)&ModbusDataPackage.dat[2],4) != 0)err = err_OE;//寄存器值超出范围
	if(SuperMode_Flag==0)err=err_mode;
    3eda:	15 e0       	ldi	r17, 0x05	; 5
	if(  (err != 0)  && (ModbusDataPackage.dat[0] != 0) )	  //返回异常码信息
    3edc:	80 91 34 02 	lds	r24, 0x0234	; 0x800234 <ModbusDataPackage+0x2>
    3ee0:	81 11       	cpse	r24, r1
    3ee2:	51 c0       	rjmp	.+162    	; 0x3f86 <ModbusFactoryParameterReset+0xf8>
	}
	
	//KeepRegister_Num=0;
	//KeepRegister_Byte_Num=0;
	
	EEErase(KREEPROM_BASEADDR,12);           //擦除EEPROM前12个字节，包括地址、组号、初始高度、密度、重力加速度
    3ee4:	6c e0       	ldi	r22, 0x0C	; 12
    3ee6:	70 e0       	ldi	r23, 0x00	; 0
    3ee8:	80 e4       	ldi	r24, 0x40	; 64
    3eea:	90 e0       	ldi	r25, 0x00	; 0
    3eec:	0e 94 7a 03 	call	0x6f4	; 0x6f4 <EEErase>
	EEErase(KREEPROM_BASEADDR+16,4);         //擦除重力加速度。
    3ef0:	64 e0       	ldi	r22, 0x04	; 4
    3ef2:	70 e0       	ldi	r23, 0x00	; 0
    3ef4:	80 e5       	ldi	r24, 0x50	; 80
    3ef6:	90 e0       	ldi	r25, 0x00	; 0
    3ef8:	0e 94 7a 03 	call	0x6f4	; 0x6f4 <EEErase>
	
	EEErase(FPOWERONFLAG_BASEADDR,2);        //擦除首次上电标志位
    3efc:	62 e0       	ldi	r22, 0x02	; 2
    3efe:	70 e0       	ldi	r23, 0x00	; 0
    3f00:	80 e2       	ldi	r24, 0x20	; 32
    3f02:	90 e0       	ldi	r25, 0x00	; 0
    3f04:	0e 94 7a 03 	call	0x6f4	; 0x6f4 <EEErase>
	
	KeepRegistorDataHton();				 //大小端数据处理,放在缓存中
    3f08:	0e 94 95 05 	call	0xb2a	; 0xb2a <KeepRegistorDataHton>
										 
	temp[0] = KeepRegister.DeviceAddress;//赋值设备地址
    3f0c:	80 91 74 03 	lds	r24, 0x0374	; 0x800374 <KeepRegister>
    3f10:	90 91 75 03 	lds	r25, 0x0375	; 0x800375 <KeepRegister+0x1>
    3f14:	89 83       	std	Y+1, r24	; 0x01
	temp[1] = ModbusDataPackage.dat[1];	 //赋值功能码
    3f16:	02 e3       	ldi	r16, 0x32	; 50
    3f18:	12 e0       	ldi	r17, 0x02	; 2
    3f1a:	f8 01       	movw	r30, r16
    3f1c:	83 81       	ldd	r24, Z+3	; 0x03
    3f1e:	8a 83       	std	Y+2, r24	; 0x02
	temp[2] = 0x00;
    3f20:	1b 82       	std	Y+3, r1	; 0x03
	temp[3] = 0x00;
    3f22:	1c 82       	std	Y+4, r1	; 0x04
	temp[4] = 0x00;
    3f24:	1d 82       	std	Y+5, r1	; 0x05
	temp[5] = KeepRegister_Num;          
    3f26:	86 e5       	ldi	r24, 0x56	; 86
    3f28:	8e 83       	std	Y+6, r24	; 0x06
	temp[6] = KeepRegister_Byte_Num;
    3f2a:	8c ea       	ldi	r24, 0xAC	; 172
    3f2c:	8f 83       	std	Y+7, r24	; 0x07
	
	memcpy(&temp[7],(uint8_t *)&KeepRegisterTemp,KeepRegister_Byte_Num);//获取数据
    3f2e:	e0 e2       	ldi	r30, 0x20	; 32
    3f30:	f4 e0       	ldi	r31, 0x04	; 4
    3f32:	de 01       	movw	r26, r28
    3f34:	18 96       	adiw	r26, 0x08	; 8
    3f36:	01 90       	ld	r0, Z+
    3f38:	0d 92       	st	X+, r0
    3f3a:	8a 95       	dec	r24
    3f3c:	e1 f7       	brne	.-8      	; 0x3f36 <ModbusFactoryParameterReset+0xa8>
	
	//校验
	crc = CRC16_Check(temp,KeepRegister_Byte_Num+7); //crc校验
    3f3e:	63 eb       	ldi	r22, 0xB3	; 179
    3f40:	ce 01       	movw	r24, r28
    3f42:	01 96       	adiw	r24, 0x01	; 1
    3f44:	0e 94 3f 05 	call	0xa7e	; 0xa7e <CRC16_Check>
	temp[KeepRegister_Byte_Num+7] = crc & 0xff;		//crc低位在前
    3f48:	cc 54       	subi	r28, 0x4C	; 76
    3f4a:	df 4f       	sbci	r29, 0xFF	; 255
    3f4c:	88 83       	st	Y, r24
    3f4e:	c4 5b       	subi	r28, 0xB4	; 180
    3f50:	d0 40       	sbci	r29, 0x00	; 0
	temp[KeepRegister_Byte_Num+8] = crc >> 8;		//高位在后
    3f52:	cb 54       	subi	r28, 0x4B	; 75
    3f54:	df 4f       	sbci	r29, 0xFF	; 255
    3f56:	98 83       	st	Y, r25
    3f58:	c5 5b       	subi	r28, 0xB5	; 181
    3f5a:	d0 40       	sbci	r29, 0x00	; 0
	
	
	if(ModbusDataPackage.dat[0]) U485SendData(temp,KeepRegister_Byte_Num+9);//发送数据,长度=读取字节数+前面三个字节+两个校验；如果是广播命令则不回复。
    3f5c:	f8 01       	movw	r30, r16
    3f5e:	82 81       	ldd	r24, Z+2	; 0x02
    3f60:	88 23       	and	r24, r24
    3f62:	81 f0       	breq	.+32     	; 0x3f84 <ModbusFactoryParameterReset+0xf6>
    3f64:	5a 9a       	sbi	0x0b, 2	; 11
    3f66:	81 e0       	ldi	r24, 0x01	; 1
    3f68:	90 e0       	ldi	r25, 0x00	; 0
    3f6a:	0e 94 a1 03 	call	0x742	; 0x742 <Delay_ms>
    3f6e:	65 eb       	ldi	r22, 0xB5	; 181
    3f70:	70 e0       	ldi	r23, 0x00	; 0
    3f72:	ce 01       	movw	r24, r28
    3f74:	01 96       	adiw	r24, 0x01	; 1
    3f76:	0e 94 5c 22 	call	0x44b8	; 0x44b8 <USART0_PutData>
    3f7a:	8a e0       	ldi	r24, 0x0A	; 10
    3f7c:	90 e0       	ldi	r25, 0x00	; 0
    3f7e:	0e 94 a1 03 	call	0x742	; 0x742 <Delay_ms>
    3f82:	5a 98       	cbi	0x0b, 2	; 11
    3f84:	ff cf       	rjmp	.-2      	; 0x3f84 <ModbusFactoryParameterReset+0xf6>
	if(ModbusDataPackage.DataLen != 8)err = err_OE;//有效操作发生异常
	if(strncmp(FactoryResetWord,(char *)&ModbusDataPackage.dat[2],4) != 0)err = err_OE;//寄存器值超出范围
	if(SuperMode_Flag==0)err=err_mode;
	if(  (err != 0)  && (ModbusDataPackage.dat[0] != 0) )	  //返回异常码信息
	{
		ModbusReturnAckInfo(err);			  //向485返回异常码信息
    3f86:	81 2f       	mov	r24, r17
    3f88:	0e 94 63 05 	call	0xac6	; 0xac6 <ModbusReturnAckInfo>
	
	
	if(ModbusDataPackage.dat[0]) U485SendData(temp,KeepRegister_Byte_Num+9);//发送数据,长度=读取字节数+前面三个字节+两个校验；如果是广播命令则不回复。
	while(1);//等待看门狗复位操作，完成恢复出厂设置
	return SUCCESS;
}
    3f8c:	80 e0       	ldi	r24, 0x00	; 0
    3f8e:	c1 50       	subi	r28, 0x01	; 1
    3f90:	df 4f       	sbci	r29, 0xFF	; 255
    3f92:	0f b6       	in	r0, 0x3f	; 63
    3f94:	f8 94       	cli
    3f96:	de bf       	out	0x3e, r29	; 62
    3f98:	0f be       	out	0x3f, r0	; 63
    3f9a:	cd bf       	out	0x3d, r28	; 61
    3f9c:	df 91       	pop	r29
    3f9e:	cf 91       	pop	r28
    3fa0:	1f 91       	pop	r17
    3fa2:	0f 91       	pop	r16
    3fa4:	08 95       	ret

00003fa6 <ClC_WatchDogTask>:
* Output         : None
* Return         : None
*******************************************************************************/
void ClC_WatchDogTask(void)
{
	if(!WorkTimeOutFlag) 
    3fa6:	80 91 25 01 	lds	r24, 0x0125	; 0x800125 <WorkTimeOutFlag>
    3faa:	81 11       	cpse	r24, r1
    3fac:	0a c0       	rjmp	.+20     	; 0x3fc2 <ClC_WatchDogTask+0x1c>
	{WDI_COM;__asm("nop");__asm("nop");__asm("nop");__asm("nop");__asm("nop");_WDR();}   //喂狗操作；如果超过913秒内未收到任何指令，执行系统重启，否则喂狗。
    3fae:	95 b1       	in	r25, 0x05	; 5
    3fb0:	84 e0       	ldi	r24, 0x04	; 4
    3fb2:	89 27       	eor	r24, r25
    3fb4:	85 b9       	out	0x05, r24	; 5
	...
    3fbe:	00 00       	nop
    3fc0:	a8 95       	wdr
    3fc2:	08 95       	ret

00003fc4 <Temp_ReadTASK>:
	WDI_COM;__asm("nop");__asm("nop");__asm("nop");__asm("nop");__asm("nop");_WDR();//该行为测试代码，不重启系统
#endif
}

void Temp_ReadTASK(void)
{
    3fc4:	cf 93       	push	r28
    3fc6:	df 93       	push	r29
	if(Temp_Flag)
    3fc8:	80 91 02 01 	lds	r24, 0x0102	; 0x800102 <Temp_Flag>
    3fcc:	88 23       	and	r24, r24
    3fce:	81 f0       	breq	.+32     	; 0x3ff0 <Temp_ReadTASK+0x2c>
	{
		Temp_Flag=0;
    3fd0:	10 92 02 01 	sts	0x0102, r1	; 0x800102 <Temp_Flag>
		InputRegister.SystemWorkStatus=(InputRegister.SystemWorkStatus & 0xff00)|0x21;
    3fd4:	c4 e3       	ldi	r28, 0x34	; 52
    3fd6:	d3 e0       	ldi	r29, 0x03	; 3
    3fd8:	88 85       	ldd	r24, Y+8	; 0x08
    3fda:	99 85       	ldd	r25, Y+9	; 0x09
    3fdc:	88 27       	eor	r24, r24
    3fde:	81 62       	ori	r24, 0x21	; 33
    3fe0:	99 87       	std	Y+9, r25	; 0x09
    3fe2:	88 87       	std	Y+8, r24	; 0x08
		InputRegister.Temperature=Temp_Read();
    3fe4:	0e 94 43 21 	call	0x4286	; 0x4286 <Temp_Read>
    3fe8:	68 8b       	std	Y+16, r22	; 0x10
    3fea:	79 8b       	std	Y+17, r23	; 0x11
    3fec:	8a 8b       	std	Y+18, r24	; 0x12
    3fee:	9b 8b       	std	Y+19, r25	; 0x13
	}
}
    3ff0:	df 91       	pop	r29
    3ff2:	cf 91       	pop	r28
    3ff4:	08 95       	ret

00003ff6 <main>:
{
#ifdef DUBEG_TEST
	float AltitudeTemp1,PA1,ADCValue1;
#endif
	
	stdout = &mystdout;
    3ff6:	83 e1       	ldi	r24, 0x13	; 19
    3ff8:	91 e0       	ldi	r25, 0x01	; 1
    3ffa:	90 93 d1 04 	sts	0x04D1, r25	; 0x8004d1 <__iob+0x3>
    3ffe:	80 93 d0 04 	sts	0x04D0, r24	; 0x8004d0 <__iob+0x2>
    Init_Devices();
    4002:	0e 94 c3 03 	call	0x786	; 0x786 <Init_Devices>
	Init_Parameter();
    4006:	0e 94 ed 03 	call	0x7da	; 0x7da <Init_Parameter>

	InputRegister.Temperature=Temp_Read();   //上电初始化后执行一次温度采样，防止温度修正中出现跳变。
    400a:	0e 94 43 21 	call	0x4286	; 0x4286 <Temp_Read>
    400e:	60 93 44 03 	sts	0x0344, r22	; 0x800344 <InputRegister+0x10>
    4012:	70 93 45 03 	sts	0x0345, r23	; 0x800345 <InputRegister+0x11>
    4016:	80 93 46 03 	sts	0x0346, r24	; 0x800346 <InputRegister+0x12>
    401a:	90 93 47 03 	sts	0x0347, r25	; 0x800347 <InputRegister+0x13>
static void ProcessTask()
{
	unsigned char ix;
	unsigned short crc;
	U485RX;
	if(ModbusDataPackage.DataFlag)		  //数据包已接收完成
    401e:	0f 2e       	mov	r0, r31
    4020:	f2 e3       	ldi	r31, 0x32	; 50
    4022:	ef 2e       	mov	r14, r31
    4024:	f2 e0       	ldi	r31, 0x02	; 2
    4026:	ff 2e       	mov	r15, r31
    4028:	f0 2d       	mov	r31, r0
	{ 	
		LED2_COM;
    402a:	d2 e0       	ldi	r29, 0x02	; 2
		crc = CRC16_Check((uint8_t *)ModbusDataPackage.dat,ModbusDataPackage.DataLen-2 );
		if( (( crc == ( (ModbusDataPackage.dat[ModbusDataPackage.DataLen - 1] << 8) |    ModbusDataPackage.dat[ModbusDataPackage.DataLen - 2])        )) \
		||  ( ( (ModbusDataPackage.dat[ModbusDataPackage.DataLen - 1]) == 0xff    ) && ((ModbusDataPackage.dat[ModbusDataPackage.DataLen - 2]) == 0xff))  )				
		{
			WorkTime = 0;//清零计时时间
			if(ModbusDataPackage.dat[0] == KeepRegister.DeviceAddress)//是本机指令
    402c:	0f 2e       	mov	r0, r31
    402e:	f4 e7       	ldi	r31, 0x74	; 116
    4030:	cf 2e       	mov	r12, r31
    4032:	f3 e0       	ldi	r31, 0x03	; 3
    4034:	df 2e       	mov	r13, r31
    4036:	f0 2d       	mov	r31, r0
					case ModeSwitch:
								ModbusSwitchMode();		//模式切换
								break;	
					case FactoryParameterReset:	//恢复出厂设置
								ModbusFactoryParameterReset();
								InputRegister.SystemWorkStatus=(InputRegister.SystemWorkStatus & 0xff00)|0x13;
    4038:	0f 2e       	mov	r0, r31
    403a:	f4 e3       	ldi	r31, 0x34	; 52
    403c:	af 2e       	mov	r10, r31
    403e:	f3 e0       	ldi	r31, 0x03	; 3
    4040:	bf 2e       	mov	r11, r31
    4042:	f0 2d       	mov	r31, r0
*******************************************************************************/
static void ProcessTask()
{
	unsigned char ix;
	unsigned short crc;
	U485RX;
    4044:	5a 98       	cbi	0x0b, 2	; 11
	if(ModbusDataPackage.DataFlag)		  //数据包已接收完成
    4046:	d7 01       	movw	r26, r14
    4048:	8c 91       	ld	r24, X
    404a:	88 23       	and	r24, r24
    404c:	09 f4       	brne	.+2      	; 0x4050 <main+0x5a>
    404e:	0d c1       	rjmp	.+538    	; 0x426a <main+0x274>
	{ 	
		LED2_COM;
    4050:	85 b1       	in	r24, 0x05	; 5
    4052:	8d 27       	eor	r24, r29
    4054:	85 b9       	out	0x05, r24	; 5
		for(ix=0;ix<ModbusDataPackage.DataLen;ix++)
    4056:	11 96       	adiw	r26, 0x01	; 1
    4058:	8c 91       	ld	r24, X
    405a:	88 23       	and	r24, r24
    405c:	71 f0       	breq	.+28     	; 0x407a <main+0x84>
    405e:	c0 e0       	ldi	r28, 0x00	; 0
		{
			ModbusDataPackage.dat[ix] =USART0_GetChar();//将串口数据放到指定buf
    4060:	0c 2f       	mov	r16, r28
    4062:	10 e0       	ldi	r17, 0x00	; 0
    4064:	0e 94 8c 22 	call	0x4518	; 0x4518 <USART0_GetChar>
    4068:	f8 01       	movw	r30, r16
    406a:	ee 5c       	subi	r30, 0xCE	; 206
    406c:	fd 4f       	sbci	r31, 0xFD	; 253
    406e:	82 83       	std	Z+2, r24	; 0x02
	unsigned short crc;
	U485RX;
	if(ModbusDataPackage.DataFlag)		  //数据包已接收完成
	{ 	
		LED2_COM;
		for(ix=0;ix<ModbusDataPackage.DataLen;ix++)
    4070:	cf 5f       	subi	r28, 0xFF	; 255
    4072:	f7 01       	movw	r30, r14
    4074:	81 81       	ldd	r24, Z+1	; 0x01
    4076:	c8 17       	cp	r28, r24
    4078:	98 f3       	brcs	.-26     	; 0x4060 <main+0x6a>
			printf(":0x%x\r\n",ModbusDataPackage.dat[ix]);
		}
		printf("rxlen:%d\r\n",ModbusDataPackage.DataLen);
		Delay_ms(100);U485RX;
#endif		
		crc = CRC16_Check((uint8_t *)ModbusDataPackage.dat,ModbusDataPackage.DataLen-2 );
    407a:	d7 01       	movw	r26, r14
    407c:	11 96       	adiw	r26, 0x01	; 1
    407e:	6c 91       	ld	r22, X
    4080:	62 50       	subi	r22, 0x02	; 2
    4082:	84 e3       	ldi	r24, 0x34	; 52
    4084:	92 e0       	ldi	r25, 0x02	; 2
    4086:	0e 94 3f 05 	call	0xa7e	; 0xa7e <CRC16_Check>
		if( (( crc == ( (ModbusDataPackage.dat[ModbusDataPackage.DataLen - 1] << 8) |    ModbusDataPackage.dat[ModbusDataPackage.DataLen - 2])        )) \
    408a:	d7 01       	movw	r26, r14
    408c:	11 96       	adiw	r26, 0x01	; 1
    408e:	ec 91       	ld	r30, X
    4090:	11 97       	sbiw	r26, 0x01	; 1
    4092:	f0 e0       	ldi	r31, 0x00	; 0
    4094:	ef 5c       	subi	r30, 0xCF	; 207
    4096:	fd 4f       	sbci	r31, 0xFD	; 253
    4098:	42 81       	ldd	r20, Z+2	; 0x02
    409a:	11 96       	adiw	r26, 0x01	; 1
    409c:	ec 91       	ld	r30, X
    409e:	11 97       	sbiw	r26, 0x01	; 1
    40a0:	f0 e0       	ldi	r31, 0x00	; 0
    40a2:	e0 5d       	subi	r30, 0xD0	; 208
    40a4:	fd 4f       	sbci	r31, 0xFD	; 253
    40a6:	22 81       	ldd	r18, Z+2	; 0x02
    40a8:	30 e0       	ldi	r19, 0x00	; 0
    40aa:	34 2b       	or	r19, r20
    40ac:	82 17       	cp	r24, r18
    40ae:	93 07       	cpc	r25, r19
    40b0:	99 f0       	breq	.+38     	; 0x40d8 <main+0xe2>
		||  ( ( (ModbusDataPackage.dat[ModbusDataPackage.DataLen - 1]) == 0xff    ) && ((ModbusDataPackage.dat[ModbusDataPackage.DataLen - 2]) == 0xff))  )				
    40b2:	11 96       	adiw	r26, 0x01	; 1
    40b4:	ec 91       	ld	r30, X
    40b6:	11 97       	sbiw	r26, 0x01	; 1
    40b8:	f0 e0       	ldi	r31, 0x00	; 0
    40ba:	ef 5c       	subi	r30, 0xCF	; 207
    40bc:	fd 4f       	sbci	r31, 0xFD	; 253
    40be:	82 81       	ldd	r24, Z+2	; 0x02
    40c0:	8f 3f       	cpi	r24, 0xFF	; 255
    40c2:	09 f0       	breq	.+2      	; 0x40c6 <main+0xd0>
    40c4:	ca c0       	rjmp	.+404    	; 0x425a <main+0x264>
    40c6:	11 96       	adiw	r26, 0x01	; 1
    40c8:	ec 91       	ld	r30, X
    40ca:	f0 e0       	ldi	r31, 0x00	; 0
    40cc:	e0 5d       	subi	r30, 0xD0	; 208
    40ce:	fd 4f       	sbci	r31, 0xFD	; 253
    40d0:	82 81       	ldd	r24, Z+2	; 0x02
    40d2:	8f 3f       	cpi	r24, 0xFF	; 255
    40d4:	09 f0       	breq	.+2      	; 0x40d8 <main+0xe2>
    40d6:	c1 c0       	rjmp	.+386    	; 0x425a <main+0x264>
		{
			WorkTime = 0;//清零计时时间
    40d8:	10 92 27 01 	sts	0x0127, r1	; 0x800127 <WorkTime+0x1>
    40dc:	10 92 26 01 	sts	0x0126, r1	; 0x800126 <WorkTime>
			if(ModbusDataPackage.dat[0] == KeepRegister.DeviceAddress)//是本机指令
    40e0:	f7 01       	movw	r30, r14
    40e2:	82 81       	ldd	r24, Z+2	; 0x02
    40e4:	d6 01       	movw	r26, r12
    40e6:	2d 91       	ld	r18, X+
    40e8:	3c 91       	ld	r19, X
    40ea:	90 e0       	ldi	r25, 0x00	; 0
    40ec:	82 17       	cp	r24, r18
    40ee:	93 07       	cpc	r25, r19
    40f0:	09 f0       	breq	.+2      	; 0x40f4 <main+0xfe>
    40f2:	6f c0       	rjmp	.+222    	; 0x41d2 <main+0x1dc>
			{
				switch(ModbusDataPackage.dat[1])
    40f4:	e3 81       	ldd	r30, Z+3	; 0x03
    40f6:	8e 2f       	mov	r24, r30
    40f8:	90 e0       	ldi	r25, 0x00	; 0
    40fa:	fc 01       	movw	r30, r24
    40fc:	33 97       	sbiw	r30, 0x03	; 3
    40fe:	e6 36       	cpi	r30, 0x66	; 102
    4100:	f1 05       	cpc	r31, r1
    4102:	08 f0       	brcs	.+2      	; 0x4106 <main+0x110>
    4104:	62 c0       	rjmp	.+196    	; 0x41ca <main+0x1d4>
    4106:	ec 5c       	subi	r30, 0xCC	; 204
    4108:	ff 4f       	sbci	r31, 0xFF	; 255
    410a:	0c 94 04 2a 	jmp	0x5408	; 0x5408 <__tablejump2__>
				{
					case ReadKeepRegistor:			//读保持寄存器
								ModbusReadKeepRegistor();
    410e:	0e 94 8c 07 	call	0xf18	; 0xf18 <ModbusReadKeepRegistor>
    4112:	a3 c0       	rjmp	.+326    	; 0x425a <main+0x264>
								//InputRegister.SystemWorkStatus=0x01;
								break;
					case ReadInputRegistor:			//读输入寄存器
								ModbusReadInputRegistor();
    4114:	0e 94 10 09 	call	0x1220	; 0x1220 <ModbusReadInputRegistor>
								InputRegister.SystemWorkStatus=(InputRegister.SystemWorkStatus & 0xff00)|0x02;
    4118:	f5 01       	movw	r30, r10
    411a:	80 85       	ldd	r24, Z+8	; 0x08
    411c:	91 85       	ldd	r25, Z+9	; 0x09
    411e:	88 27       	eor	r24, r24
    4120:	82 60       	ori	r24, 0x02	; 2
    4122:	91 87       	std	Z+9, r25	; 0x09
    4124:	80 87       	std	Z+8, r24	; 0x08
    4126:	99 c0       	rjmp	.+306    	; 0x425a <main+0x264>
								break;
					case WriteSingleRegistor:		//写单个保持寄存器
								ModbusWriteSingleRegistor();
    4128:	0e 94 ce 09 	call	0x139c	; 0x139c <ModbusWriteSingleRegistor>
								InputRegister.SystemWorkStatus=(InputRegister.SystemWorkStatus & 0xff00)|0x03;
    412c:	d5 01       	movw	r26, r10
    412e:	18 96       	adiw	r26, 0x08	; 8
    4130:	8d 91       	ld	r24, X+
    4132:	9c 91       	ld	r25, X
    4134:	19 97       	sbiw	r26, 0x09	; 9
    4136:	88 27       	eor	r24, r24
    4138:	83 60       	ori	r24, 0x03	; 3
    413a:	19 96       	adiw	r26, 0x09	; 9
    413c:	9c 93       	st	X, r25
    413e:	8e 93       	st	-X, r24
    4140:	18 97       	sbiw	r26, 0x08	; 8
    4142:	8b c0       	rjmp	.+278    	; 0x425a <main+0x264>
								break;
					case WriteSomeRegistor:			//写多个保持寄存器
								ModbusWriteSomeRegistor();
    4144:	0e 94 af 0a 	call	0x155e	; 0x155e <ModbusWriteSomeRegistor>
								InputRegister.SystemWorkStatus=(InputRegister.SystemWorkStatus & 0xff00)|0x04;
    4148:	f5 01       	movw	r30, r10
    414a:	80 85       	ldd	r24, Z+8	; 0x08
    414c:	91 85       	ldd	r25, Z+9	; 0x09
    414e:	88 27       	eor	r24, r24
    4150:	84 60       	ori	r24, 0x04	; 4
    4152:	91 87       	std	Z+9, r25	; 0x09
    4154:	80 87       	std	Z+8, r24	; 0x08
    4156:	81 c0       	rjmp	.+258    	; 0x425a <main+0x264>
								break;
					case Get_SNInfo:                //获取SN信息
								Get_SNInfo_Fun();
    4158:	0e 94 25 1d 	call	0x3a4a	; 0x3a4a <Get_SNInfo_Fun>
    415c:	7e c0       	rjmp	.+252    	; 0x425a <main+0x264>
							break;
					case AutoSetInitalValue:		//自动设置初值
								ModbusSetInitalValue();
    415e:	0e 94 4f 1b 	call	0x369e	; 0x369e <ModbusSetInitalValue>
								InputRegister.SystemWorkStatus=(InputRegister.SystemWorkStatus & 0xff00)|0x05;
    4162:	d5 01       	movw	r26, r10
    4164:	18 96       	adiw	r26, 0x08	; 8
    4166:	8d 91       	ld	r24, X+
    4168:	9c 91       	ld	r25, X
    416a:	19 97       	sbiw	r26, 0x09	; 9
    416c:	88 27       	eor	r24, r24
    416e:	85 60       	ori	r24, 0x05	; 5
    4170:	19 96       	adiw	r26, 0x09	; 9
    4172:	9c 93       	st	X, r25
    4174:	8e 93       	st	-X, r24
    4176:	18 97       	sbiw	r26, 0x08	; 8
    4178:	70 c0       	rjmp	.+224    	; 0x425a <main+0x264>
								break;
					case StartSample:				//开始采样命令
								ModbusStartSample();
    417a:	0e 94 c7 1b 	call	0x378e	; 0x378e <ModbusStartSample>
								InputRegister.SystemWorkStatus=(InputRegister.SystemWorkStatus & 0xff00)|0x06;
    417e:	f5 01       	movw	r30, r10
    4180:	80 85       	ldd	r24, Z+8	; 0x08
    4182:	91 85       	ldd	r25, Z+9	; 0x09
    4184:	88 27       	eor	r24, r24
    4186:	86 60       	ori	r24, 0x06	; 6
    4188:	91 87       	std	Z+9, r25	; 0x09
    418a:	80 87       	std	Z+8, r24	; 0x08
    418c:	66 c0       	rjmp	.+204    	; 0x425a <main+0x264>
					case FactoryCalibration1:
					case FactoryCalibration2:
					case FactoryCalibration3:
					case FactoryCalibration4:
					case FactoryCalibration5:		
								FactoryCalibration();			
    418e:	0e 94 28 1c 	call	0x3850	; 0x3850 <FactoryCalibration>
								InputRegister.SystemWorkStatus=(InputRegister.SystemWorkStatus & 0xff00)|0x07;
    4192:	d5 01       	movw	r26, r10
    4194:	18 96       	adiw	r26, 0x08	; 8
    4196:	8d 91       	ld	r24, X+
    4198:	9c 91       	ld	r25, X
    419a:	19 97       	sbiw	r26, 0x09	; 9
    419c:	88 27       	eor	r24, r24
    419e:	87 60       	ori	r24, 0x07	; 7
    41a0:	19 96       	adiw	r26, 0x09	; 9
    41a2:	9c 93       	st	X, r25
    41a4:	8e 93       	st	-X, r24
    41a6:	18 97       	sbiw	r26, 0x08	; 8
    41a8:	58 c0       	rjmp	.+176    	; 0x425a <main+0x264>
								break;//出厂校准
					case Clear_temp_corr:                //清除校准系数
								CTC();
    41aa:	0e 94 70 1e 	call	0x3ce0	; 0x3ce0 <CTC>
    41ae:	55 c0       	rjmp	.+170    	; 0x425a <main+0x264>
								break;
					case ModeSwitch:
								ModbusSwitchMode();		//模式切换
    41b0:	0e 94 aa 1d 	call	0x3b54	; 0x3b54 <ModbusSwitchMode>
    41b4:	52 c0       	rjmp	.+164    	; 0x425a <main+0x264>
								break;
								
					case FactoryParameterReset:		//恢复出厂设置
								ModbusFactoryParameterReset();
    41b6:	0e 94 47 1f 	call	0x3e8e	; 0x3e8e <ModbusFactoryParameterReset>
								InputRegister.SystemWorkStatus=(InputRegister.SystemWorkStatus & 0xff00)|0x09;
    41ba:	f5 01       	movw	r30, r10
    41bc:	80 85       	ldd	r24, Z+8	; 0x08
    41be:	91 85       	ldd	r25, Z+9	; 0x09
    41c0:	88 27       	eor	r24, r24
    41c2:	89 60       	ori	r24, 0x09	; 9
    41c4:	91 87       	std	Z+9, r25	; 0x09
    41c6:	80 87       	std	Z+8, r24	; 0x08
    41c8:	48 c0       	rjmp	.+144    	; 0x425a <main+0x264>
								break;
					default:
								ModbusReturnAckInfo(err_Fu);//向485返回异常码信息,功能号无效
    41ca:	81 e0       	ldi	r24, 0x01	; 1
    41cc:	0e 94 63 05 	call	0xac6	; 0xac6 <ModbusReturnAckInfo>
    41d0:	44 c0       	rjmp	.+136    	; 0x425a <main+0x264>
			/********************************
			广播指令，不回复
			数据格式:器件地址(1字节)+功能码(0x)+操作码(4字节)+校验(2字节) 
			字段:0x33,0x55,0x77,0x99
			*********************************/
			else if (ModbusDataPackage.dat[0] == 0x00)//是广播指令
    41d2:	82 81       	ldd	r24, Z+2	; 0x02
    41d4:	81 11       	cpse	r24, r1
    41d6:	41 c0       	rjmp	.+130    	; 0x425a <main+0x264>
			{
				switch(ModbusDataPackage.dat[1])
    41d8:	83 81       	ldd	r24, Z+3	; 0x03
    41da:	89 34       	cpi	r24, 0x49	; 73
    41dc:	38 f4       	brcc	.+14     	; 0x41ec <main+0x1f6>
    41de:	83 34       	cpi	r24, 0x43	; 67
    41e0:	10 f5       	brcc	.+68     	; 0x4226 <main+0x230>
    41e2:	81 34       	cpi	r24, 0x41	; 65
    41e4:	41 f0       	breq	.+16     	; 0x41f6 <main+0x200>
    41e6:	82 34       	cpi	r24, 0x42	; 66
    41e8:	81 f0       	breq	.+32     	; 0x420a <main+0x214>
    41ea:	37 c0       	rjmp	.+110    	; 0x425a <main+0x264>
    41ec:	86 36       	cpi	r24, 0x66	; 102
    41ee:	29 f1       	breq	.+74     	; 0x423a <main+0x244>
    41f0:	88 36       	cpi	r24, 0x68	; 104
    41f2:	31 f1       	breq	.+76     	; 0x4240 <main+0x24a>
    41f4:	32 c0       	rjmp	.+100    	; 0x425a <main+0x264>
				{
					case AutoSetInitalValue:
								ModbusSetInitalValue();
    41f6:	0e 94 4f 1b 	call	0x369e	; 0x369e <ModbusSetInitalValue>
								InputRegister.SystemWorkStatus=(InputRegister.SystemWorkStatus & 0xff00)|0x11;
    41fa:	f5 01       	movw	r30, r10
    41fc:	80 85       	ldd	r24, Z+8	; 0x08
    41fe:	91 85       	ldd	r25, Z+9	; 0x09
    4200:	88 27       	eor	r24, r24
    4202:	81 61       	ori	r24, 0x11	; 17
    4204:	91 87       	std	Z+9, r25	; 0x09
    4206:	80 87       	std	Z+8, r24	; 0x08
    4208:	28 c0       	rjmp	.+80     	; 0x425a <main+0x264>
								break;
					case StartSample:
								ModbusStartSample();
    420a:	0e 94 c7 1b 	call	0x378e	; 0x378e <ModbusStartSample>
								InputRegister.SystemWorkStatus=(InputRegister.SystemWorkStatus & 0xff00)|0x12;
    420e:	d5 01       	movw	r26, r10
    4210:	18 96       	adiw	r26, 0x08	; 8
    4212:	8d 91       	ld	r24, X+
    4214:	9c 91       	ld	r25, X
    4216:	19 97       	sbiw	r26, 0x09	; 9
    4218:	88 27       	eor	r24, r24
    421a:	82 61       	ori	r24, 0x12	; 18
    421c:	19 96       	adiw	r26, 0x09	; 9
    421e:	9c 93       	st	X, r25
    4220:	8e 93       	st	-X, r24
    4222:	18 97       	sbiw	r26, 0x08	; 8
    4224:	1a c0       	rjmp	.+52     	; 0x425a <main+0x264>
					case FactoryCalibration1:
					case FactoryCalibration2:
					case FactoryCalibration3:
					case FactoryCalibration4:
					case FactoryCalibration5:
								FactoryCalibration();
    4226:	0e 94 28 1c 	call	0x3850	; 0x3850 <FactoryCalibration>
								InputRegister.SystemWorkStatus=(InputRegister.SystemWorkStatus & 0xff00)|0x07;
    422a:	f5 01       	movw	r30, r10
    422c:	80 85       	ldd	r24, Z+8	; 0x08
    422e:	91 85       	ldd	r25, Z+9	; 0x09
    4230:	88 27       	eor	r24, r24
    4232:	87 60       	ori	r24, 0x07	; 7
    4234:	91 87       	std	Z+9, r25	; 0x09
    4236:	80 87       	std	Z+8, r24	; 0x08
    4238:	10 c0       	rjmp	.+32     	; 0x425a <main+0x264>
								break;//出厂校准	
								
					case ModeSwitch:
								ModbusSwitchMode();		//模式切换
    423a:	0e 94 aa 1d 	call	0x3b54	; 0x3b54 <ModbusSwitchMode>
    423e:	0d c0       	rjmp	.+26     	; 0x425a <main+0x264>
								break;	
					case FactoryParameterReset:	//恢复出厂设置
								ModbusFactoryParameterReset();
    4240:	0e 94 47 1f 	call	0x3e8e	; 0x3e8e <ModbusFactoryParameterReset>
								InputRegister.SystemWorkStatus=(InputRegister.SystemWorkStatus & 0xff00)|0x13;
    4244:	d5 01       	movw	r26, r10
    4246:	18 96       	adiw	r26, 0x08	; 8
    4248:	8d 91       	ld	r24, X+
    424a:	9c 91       	ld	r25, X
    424c:	19 97       	sbiw	r26, 0x09	; 9
    424e:	88 27       	eor	r24, r24
    4250:	83 61       	ori	r24, 0x13	; 19
    4252:	19 96       	adiw	r26, 0x09	; 9
    4254:	9c 93       	st	X, r25
    4256:	8e 93       	st	-X, r24
    4258:	18 97       	sbiw	r26, 0x08	; 8
					default:
								break;
				} 
			} 
		}
		USART0_ClearBuf();				 //清空串口接收缓存
    425a:	0e 94 9a 22 	call	0x4534	; 0x4534 <USART0_ClearBuf>
		ModbusDataPackage.DataLen = 0;  //先清空长度，注意清空顺序
    425e:	f7 01       	movw	r30, r14
    4260:	11 82       	std	Z+1, r1	; 0x01
		ModbusDataPackage.DataFlag = 0; //清空标记位
    4262:	10 82       	st	Z, r1
		LED2_COM;
    4264:	85 b1       	in	r24, 0x05	; 5
    4266:	8d 27       	eor	r24, r29
    4268:	85 b9       	out	0x05, r24	; 5
	//SenPow_OFF;
	
	while(1)
    {
		ProcessTask();		//采样进程
		Temp_ReadTASK();	//温度采样任务，每隔5s采一次
    426a:	0e 94 e2 1f 	call	0x3fc4	; 0x3fc4 <Temp_ReadTASK>
		ClC_WatchDogTask();	//喂狗任务
    426e:	0e 94 d3 1f 	call	0x3fa6	; 0x3fa6 <ClC_WatchDogTask>
		printf("Altitude %f    Temp:%f\r\n",AltitudeTemp1,InputRegister.Temperature);
		printf("Sensor_FS_Val:%fmv\r\n\r\n",KeepRegister.Sensor_FS_Val);
		Delay_ms(1850);
		U485RX;Delay_ms(100);
#endif
    }
    4272:	e8 ce       	rjmp	.-560    	; 0x4044 <main+0x4e>

00004274 <SPI_Init>:
*******************************************************************************/
void spi_write(unsigned char temp)
{
	SPDR=temp;
	while(!(SPSR&(1<<SPIF)));
}
    4274:	81 e5       	ldi	r24, 0x51	; 81
    4276:	8c bd       	out	0x2c, r24	; 44
    4278:	08 95       	ret

0000427a <spi_read>:
* Return         : None
*******************************************************************************/
unsigned char spi_read(void)
{
	unsigned char data;
	SPDR=0x00;
    427a:	1e bc       	out	0x2e, r1	; 46
	while(!(SPSR&(1<<SPIF)));
    427c:	0d b4       	in	r0, 0x2d	; 45
    427e:	07 fe       	sbrs	r0, 7
    4280:	fd cf       	rjmp	.-6      	; 0x427c <spi_read+0x2>
	data=SPDR;
    4282:	8e b5       	in	r24, 0x2e	; 46
	return data;
}
    4284:	08 95       	ret

00004286 <Temp_Read>:
* Input          : None
* Output         : None
* Return         : None
*******************************************************************************/
float Temp_Read(void)
{
    4286:	1f 93       	push	r17
    4288:	cf 93       	push	r28
    428a:	df 93       	push	r29
	unsigned int TempVal_temp;
	unsigned char MSByte,LSByte;
	float TempVal,tt;
	TEMPCS_L;
    428c:	43 98       	cbi	0x08, 3	; 8
	Delay_ms(10);
    428e:	8a e0       	ldi	r24, 0x0A	; 10
    4290:	90 e0       	ldi	r25, 0x00	; 0
    4292:	0e 94 a1 03 	call	0x742	; 0x742 <Delay_ms>
	
	MSByte=spi_read();//读高位
    4296:	0e 94 3d 21 	call	0x427a	; 0x427a <spi_read>
    429a:	18 2f       	mov	r17, r24
	LSByte=spi_read();//读低位
    429c:	0e 94 3d 21 	call	0x427a	; 0x427a <spi_read>
    42a0:	c8 2f       	mov	r28, r24
	Delay_ms(10);
    42a2:	8a e0       	ldi	r24, 0x0A	; 10
    42a4:	90 e0       	ldi	r25, 0x00	; 0
    42a6:	0e 94 a1 03 	call	0x742	; 0x742 <Delay_ms>
	TEMPCS_H;
    42aa:	43 9a       	sbi	0x08, 3	; 8
	
	TempVal_temp = (MSByte<<8) | LSByte;
    42ac:	d0 e0       	ldi	r29, 0x00	; 0
    42ae:	d1 2b       	or	r29, r17
	TempVal      = (float)TempVal_temp;
    42b0:	be 01       	movw	r22, r28
    42b2:	80 e0       	ldi	r24, 0x00	; 0
    42b4:	90 e0       	ldi	r25, 0x00	; 0
    42b6:	0e 94 de 23 	call	0x47bc	; 0x47bc <__floatunsisf>
	if((TempVal_temp & 0x2000) == 0x2000) tt = (TempVal-16384)/32;
    42ba:	d5 ff       	sbrs	r29, 5
    42bc:	0d c0       	rjmp	.+26     	; 0x42d8 <Temp_Read+0x52>
    42be:	20 e0       	ldi	r18, 0x00	; 0
    42c0:	30 e0       	ldi	r19, 0x00	; 0
    42c2:	40 e8       	ldi	r20, 0x80	; 128
    42c4:	56 e4       	ldi	r21, 0x46	; 70
    42c6:	0e 94 fa 22 	call	0x45f4	; 0x45f4 <__subsf3>
    42ca:	20 e0       	ldi	r18, 0x00	; 0
    42cc:	30 e0       	ldi	r19, 0x00	; 0
    42ce:	40 e0       	ldi	r20, 0x00	; 0
    42d0:	5d e3       	ldi	r21, 0x3D	; 61
    42d2:	0e 94 95 24 	call	0x492a	; 0x492a <__mulsf3>
    42d6:	06 c0       	rjmp	.+12     	; 0x42e4 <Temp_Read+0x5e>
	else 
		tt = (TempVal/32);
    42d8:	20 e0       	ldi	r18, 0x00	; 0
    42da:	30 e0       	ldi	r19, 0x00	; 0
    42dc:	40 e0       	ldi	r20, 0x00	; 0
    42de:	5d e3       	ldi	r21, 0x3D	; 61
    42e0:	0e 94 95 24 	call	0x492a	; 0x492a <__mulsf3>
	return tt;

}
    42e4:	df 91       	pop	r29
    42e6:	cf 91       	pop	r28
    42e8:	1f 91       	pop	r17
    42ea:	08 95       	ret

000042ec <timer1_init>:
// WGM: 0) Normal, TOP=0xFFFF
// desired value: 1mSec
// actual value:  1.000mSec (0.0%)
void timer1_init(void)
{	
	TCNT1H = 0x00;
    42ec:	a5 e8       	ldi	r26, 0x85	; 133
    42ee:	b0 e0       	ldi	r27, 0x00	; 0
    42f0:	1c 92       	st	X, r1
	TCNT1L = 0x00;
    42f2:	e4 e8       	ldi	r30, 0x84	; 132
    42f4:	f0 e0       	ldi	r31, 0x00	; 0
    42f6:	10 82       	st	Z, r1
	TCCR1A = 0x00;
    42f8:	10 92 80 00 	sts	0x0080, r1	; 0x800080 <__TEXT_REGION_LENGTH__+0x7e0080>
	TCCR1B = 0x01;//start Timer
    42fc:	21 e0       	ldi	r18, 0x01	; 1
    42fe:	20 93 81 00 	sts	0x0081, r18	; 0x800081 <__TEXT_REGION_LENGTH__+0x7e0081>
	TCCR1C = 0x00;
    4302:	10 92 82 00 	sts	0x0082, r1	; 0x800082 <__TEXT_REGION_LENGTH__+0x7e0082>
	OCR1AH = 0x1C;
    4306:	9c e1       	ldi	r25, 0x1C	; 28
    4308:	90 93 89 00 	sts	0x0089, r25	; 0x800089 <__TEXT_REGION_LENGTH__+0x7e0089>
	OCR1AL = 0xCC;
    430c:	8c ec       	ldi	r24, 0xCC	; 204
    430e:	80 93 88 00 	sts	0x0088, r24	; 0x800088 <__TEXT_REGION_LENGTH__+0x7e0088>
	OCR1BH = 0x1C;
    4312:	90 93 8b 00 	sts	0x008B, r25	; 0x80008b <__TEXT_REGION_LENGTH__+0x7e008b>
	OCR1BL = 0xCC;
    4316:	80 93 8a 00 	sts	0x008A, r24	; 0x80008a <__TEXT_REGION_LENGTH__+0x7e008a>
	ICR1H  = 0x1C;
    431a:	90 93 87 00 	sts	0x0087, r25	; 0x800087 <__TEXT_REGION_LENGTH__+0x7e0087>
	ICR1L  = 0xCC;
    431e:	80 93 86 00 	sts	0x0086, r24	; 0x800086 <__TEXT_REGION_LENGTH__+0x7e0086>
	TIMSK1 = 0x01;
    4322:	20 93 6f 00 	sts	0x006F, r18	; 0x80006f <__TEXT_REGION_LENGTH__+0x7e006f>
	TIFR1  = 0x00;
    4326:	16 ba       	out	0x16, r1	; 22
	GTCCR  = 0x00;
    4328:	13 bc       	out	0x23, r1	; 35
	TCNT1H = 0xE3;//setup
    432a:	83 ee       	ldi	r24, 0xE3	; 227
    432c:	8c 93       	st	X, r24
	TCNT1L = 0x34;
    432e:	84 e3       	ldi	r24, 0x34	; 52
    4330:	80 83       	st	Z, r24
    4332:	08 95       	ret

00004334 <__vector_13>:
}
//#pragma interrupt_handler timer1_ovf_isr:iv_TIM1_OVF
SIGNAL(TIMER1_OVF_vect)
{
    4334:	1f 92       	push	r1
    4336:	0f 92       	push	r0
    4338:	0f b6       	in	r0, 0x3f	; 63
    433a:	0f 92       	push	r0
    433c:	11 24       	eor	r1, r1
    433e:	2f 93       	push	r18
    4340:	3f 93       	push	r19
    4342:	8f 93       	push	r24
    4344:	9f 93       	push	r25
    4346:	af 93       	push	r26
    4348:	bf 93       	push	r27
    434a:	ef 93       	push	r30
    434c:	ff 93       	push	r31
	TCNT1H = 0xE3; //reload counter high value
    434e:	83 ee       	ldi	r24, 0xE3	; 227
    4350:	80 93 85 00 	sts	0x0085, r24	; 0x800085 <__TEXT_REGION_LENGTH__+0x7e0085>
	TCNT1L = 0x34; //reload counter low value
    4354:	84 e3       	ldi	r24, 0x34	; 52
    4356:	80 93 84 00 	sts	0x0084, r24	; 0x800084 <__TEXT_REGION_LENGTH__+0x7e0084>
	if(_MS) _MS--;
    435a:	80 91 2c 01 	lds	r24, 0x012C	; 0x80012c <_MS>
    435e:	90 91 2d 01 	lds	r25, 0x012D	; 0x80012d <_MS+0x1>
    4362:	89 2b       	or	r24, r25
    4364:	49 f0       	breq	.+18     	; 0x4378 <__vector_13+0x44>
    4366:	80 91 2c 01 	lds	r24, 0x012C	; 0x80012c <_MS>
    436a:	90 91 2d 01 	lds	r25, 0x012D	; 0x80012d <_MS+0x1>
    436e:	01 97       	sbiw	r24, 0x01	; 1
    4370:	90 93 2d 01 	sts	0x012D, r25	; 0x80012d <_MS+0x1>
    4374:	80 93 2c 01 	sts	0x012C, r24	; 0x80012c <_MS>
	_MSCount++;
    4378:	80 91 2a 01 	lds	r24, 0x012A	; 0x80012a <_MSCount>
    437c:	90 91 2b 01 	lds	r25, 0x012B	; 0x80012b <_MSCount+0x1>
    4380:	01 96       	adiw	r24, 0x01	; 1
    4382:	90 93 2b 01 	sts	0x012B, r25	; 0x80012b <_MSCount+0x1>
    4386:	80 93 2a 01 	sts	0x012A, r24	; 0x80012a <_MSCount>
	if(SysTick_Count++ == 1950) LED1_ON;
    438a:	80 91 28 01 	lds	r24, 0x0128	; 0x800128 <SysTick_Count>
    438e:	90 91 29 01 	lds	r25, 0x0129	; 0x800129 <SysTick_Count+0x1>
    4392:	9c 01       	movw	r18, r24
    4394:	2f 5f       	subi	r18, 0xFF	; 255
    4396:	3f 4f       	sbci	r19, 0xFF	; 255
    4398:	30 93 29 01 	sts	0x0129, r19	; 0x800129 <SysTick_Count+0x1>
    439c:	20 93 28 01 	sts	0x0128, r18	; 0x800128 <SysTick_Count>
    43a0:	8e 39       	cpi	r24, 0x9E	; 158
    43a2:	97 40       	sbci	r25, 0x07	; 7
    43a4:	11 f4       	brne	.+4      	; 0x43aa <__vector_13+0x76>
    43a6:	28 98       	cbi	0x05, 0	; 5
    43a8:	0c c0       	rjmp	.+24     	; 0x43c2 <__vector_13+0x8e>
	else if(SysTick_Count >= 2000){SysTick_Count=0;LED1_OFF;};
    43aa:	80 91 28 01 	lds	r24, 0x0128	; 0x800128 <SysTick_Count>
    43ae:	90 91 29 01 	lds	r25, 0x0129	; 0x800129 <SysTick_Count+0x1>
    43b2:	80 3d       	cpi	r24, 0xD0	; 208
    43b4:	97 40       	sbci	r25, 0x07	; 7
    43b6:	28 f0       	brcs	.+10     	; 0x43c2 <__vector_13+0x8e>
    43b8:	10 92 29 01 	sts	0x0129, r1	; 0x800129 <SysTick_Count+0x1>
    43bc:	10 92 28 01 	sts	0x0128, r1	; 0x800128 <SysTick_Count>
    43c0:	28 9a       	sbi	0x05, 0	; 5
	if(_MSCount>=1000)
    43c2:	80 91 2a 01 	lds	r24, 0x012A	; 0x80012a <_MSCount>
    43c6:	90 91 2b 01 	lds	r25, 0x012B	; 0x80012b <_MSCount+0x1>
    43ca:	88 3e       	cpi	r24, 0xE8	; 232
    43cc:	93 40       	sbci	r25, 0x03	; 3
    43ce:	d0 f1       	brcs	.+116    	; 0x4444 <__vector_13+0x110>
	{
		_MSCount=0;
    43d0:	10 92 2b 01 	sts	0x012B, r1	; 0x80012b <_MSCount+0x1>
    43d4:	10 92 2a 01 	sts	0x012A, r1	; 0x80012a <_MSCount>
		InputRegister.SystemWorkTime++;//系统工作时间++
    43d8:	e4 e3       	ldi	r30, 0x34	; 52
    43da:	f3 e0       	ldi	r31, 0x03	; 3
    43dc:	84 81       	ldd	r24, Z+4	; 0x04
    43de:	95 81       	ldd	r25, Z+5	; 0x05
    43e0:	a6 81       	ldd	r26, Z+6	; 0x06
    43e2:	b7 81       	ldd	r27, Z+7	; 0x07
    43e4:	01 96       	adiw	r24, 0x01	; 1
    43e6:	a1 1d       	adc	r26, r1
    43e8:	b1 1d       	adc	r27, r1
    43ea:	84 83       	std	Z+4, r24	; 0x04
    43ec:	95 83       	std	Z+5, r25	; 0x05
    43ee:	a6 83       	std	Z+6, r26	; 0x06
    43f0:	b7 83       	std	Z+7, r27	; 0x07
		WorkTime++;
    43f2:	80 91 26 01 	lds	r24, 0x0126	; 0x800126 <WorkTime>
    43f6:	90 91 27 01 	lds	r25, 0x0127	; 0x800127 <WorkTime+0x1>
    43fa:	01 96       	adiw	r24, 0x01	; 1
    43fc:	90 93 27 01 	sts	0x0127, r25	; 0x800127 <WorkTime+0x1>
    4400:	80 93 26 01 	sts	0x0126, r24	; 0x800126 <WorkTime>
		Temp_Count++;
    4404:	80 91 23 01 	lds	r24, 0x0123	; 0x800123 <Temp_Count>
    4408:	90 91 24 01 	lds	r25, 0x0124	; 0x800124 <Temp_Count+0x1>
    440c:	01 96       	adiw	r24, 0x01	; 1
    440e:	90 93 24 01 	sts	0x0124, r25	; 0x800124 <Temp_Count+0x1>
    4412:	80 93 23 01 	sts	0x0123, r24	; 0x800123 <Temp_Count>
		if(WorkTime >= 913)//15分钟内收到指令，清零WorkTime
    4416:	80 91 26 01 	lds	r24, 0x0126	; 0x800126 <WorkTime>
    441a:	90 91 27 01 	lds	r25, 0x0127	; 0x800127 <WorkTime+0x1>
    441e:	81 39       	cpi	r24, 0x91	; 145
    4420:	93 40       	sbci	r25, 0x03	; 3
    4422:	18 f0       	brcs	.+6      	; 0x442a <__vector_13+0xf6>
		{
			WorkTimeOutFlag=1;
    4424:	81 e0       	ldi	r24, 0x01	; 1
    4426:	80 93 25 01 	sts	0x0125, r24	; 0x800125 <WorkTimeOutFlag>
		}
		if(Temp_Count>=5)   //温度采样标志位，每5S采集一次
    442a:	80 91 23 01 	lds	r24, 0x0123	; 0x800123 <Temp_Count>
    442e:	90 91 24 01 	lds	r25, 0x0124	; 0x800124 <Temp_Count+0x1>
    4432:	05 97       	sbiw	r24, 0x05	; 5
    4434:	38 f0       	brcs	.+14     	; 0x4444 <__vector_13+0x110>
		{
			Temp_Count=0;
    4436:	10 92 24 01 	sts	0x0124, r1	; 0x800124 <Temp_Count+0x1>
    443a:	10 92 23 01 	sts	0x0123, r1	; 0x800123 <Temp_Count>
			Temp_Flag =1;
    443e:	81 e0       	ldi	r24, 0x01	; 1
    4440:	80 93 02 01 	sts	0x0102, r24	; 0x800102 <Temp_Flag>
		}
	}
	if(ModbusIntervalTime) ModbusIntervalTime--;
    4444:	80 91 cc 04 	lds	r24, 0x04CC	; 0x8004cc <ModbusIntervalTime>
    4448:	88 23       	and	r24, r24
    444a:	31 f0       	breq	.+12     	; 0x4458 <__vector_13+0x124>
    444c:	80 91 cc 04 	lds	r24, 0x04CC	; 0x8004cc <ModbusIntervalTime>
    4450:	81 50       	subi	r24, 0x01	; 1
    4452:	80 93 cc 04 	sts	0x04CC, r24	; 0x8004cc <ModbusIntervalTime>
    4456:	0b c0       	rjmp	.+22     	; 0x446e <__vector_13+0x13a>
	else
	{
		if(ModbusDataPackage.DataLen && !ModbusDataPackage.DataFlag)
    4458:	80 91 33 02 	lds	r24, 0x0233	; 0x800233 <ModbusDataPackage+0x1>
    445c:	88 23       	and	r24, r24
    445e:	39 f0       	breq	.+14     	; 0x446e <__vector_13+0x13a>
    4460:	80 91 32 02 	lds	r24, 0x0232	; 0x800232 <ModbusDataPackage>
    4464:	81 11       	cpse	r24, r1
    4466:	03 c0       	rjmp	.+6      	; 0x446e <__vector_13+0x13a>
		ModbusDataPackage.DataFlag = 1;
    4468:	81 e0       	ldi	r24, 0x01	; 1
    446a:	80 93 32 02 	sts	0x0232, r24	; 0x800232 <ModbusDataPackage>
	}
    446e:	ff 91       	pop	r31
    4470:	ef 91       	pop	r30
    4472:	bf 91       	pop	r27
    4474:	af 91       	pop	r26
    4476:	9f 91       	pop	r25
    4478:	8f 91       	pop	r24
    447a:	3f 91       	pop	r19
    447c:	2f 91       	pop	r18
    447e:	0f 90       	pop	r0
    4480:	0f be       	out	0x3f, r0	; 63
    4482:	0f 90       	pop	r0
    4484:	1f 90       	pop	r1
    4486:	18 95       	reti

00004488 <uart0_init>:
* Return         : None
*******************************************************************************/
void USART0_PutS(unsigned char *s)
{
	while(*s != '\0')USART0_PutChar(*(s++));
}
    4488:	e1 ec       	ldi	r30, 0xC1	; 193
    448a:	f0 e0       	ldi	r31, 0x00	; 0
    448c:	10 82       	st	Z, r1
    448e:	10 92 c0 00 	sts	0x00C0, r1	; 0x8000c0 <__TEXT_REGION_LENGTH__+0x7e00c0>
    4492:	86 e0       	ldi	r24, 0x06	; 6
    4494:	80 93 c2 00 	sts	0x00C2, r24	; 0x8000c2 <__TEXT_REGION_LENGTH__+0x7e00c2>
    4498:	8f e2       	ldi	r24, 0x2F	; 47
    449a:	80 93 c4 00 	sts	0x00C4, r24	; 0x8000c4 <__TEXT_REGION_LENGTH__+0x7e00c4>
    449e:	10 92 c5 00 	sts	0x00C5, r1	; 0x8000c5 <__TEXT_REGION_LENGTH__+0x7e00c5>
    44a2:	88 e9       	ldi	r24, 0x98	; 152
    44a4:	80 83       	st	Z, r24
    44a6:	08 95       	ret

000044a8 <USART0_PutChar>:
    44a8:	e0 ec       	ldi	r30, 0xC0	; 192
    44aa:	f0 e0       	ldi	r31, 0x00	; 0
    44ac:	90 81       	ld	r25, Z
    44ae:	95 ff       	sbrs	r25, 5
    44b0:	fd cf       	rjmp	.-6      	; 0x44ac <USART0_PutChar+0x4>
    44b2:	80 93 c6 00 	sts	0x00C6, r24	; 0x8000c6 <__TEXT_REGION_LENGTH__+0x7e00c6>
    44b6:	08 95       	ret

000044b8 <USART0_PutData>:
    44b8:	0f 93       	push	r16
    44ba:	1f 93       	push	r17
    44bc:	cf 93       	push	r28
    44be:	df 93       	push	r29
    44c0:	61 15       	cp	r22, r1
    44c2:	71 05       	cpc	r23, r1
    44c4:	51 f0       	breq	.+20     	; 0x44da <USART0_PutData+0x22>
    44c6:	8c 01       	movw	r16, r24
    44c8:	ec 01       	movw	r28, r24
    44ca:	06 0f       	add	r16, r22
    44cc:	17 1f       	adc	r17, r23
    44ce:	89 91       	ld	r24, Y+
    44d0:	0e 94 54 22 	call	0x44a8	; 0x44a8 <USART0_PutChar>
    44d4:	c0 17       	cp	r28, r16
    44d6:	d1 07       	cpc	r29, r17
    44d8:	d1 f7       	brne	.-12     	; 0x44ce <USART0_PutData+0x16>
    44da:	df 91       	pop	r29
    44dc:	cf 91       	pop	r28
    44de:	1f 91       	pop	r17
    44e0:	0f 91       	pop	r16
    44e2:	08 95       	ret

000044e4 <USART0_GetCharBlock>:
*******************************************************************************/
uint16_t USART0_GetCharBlock(uint16_t timeout)
{
	UART0_RBUF_ST *p = &uart0_rbuf;
	uint16_t to = timeout;
	while(((p->out - p->in)& (UART0_RBUF_SIZE - 1)) == 0)if(!(--to))return TIMEOUT;
    44e4:	ee e2       	ldi	r30, 0x2E	; 46
    44e6:	f1 e0       	ldi	r31, 0x01	; 1
    44e8:	22 81       	ldd	r18, Z+2	; 0x02
    44ea:	33 81       	ldd	r19, Z+3	; 0x03
    44ec:	40 81       	ld	r20, Z
    44ee:	24 13       	cpse	r18, r20
    44f0:	03 c0       	rjmp	.+6      	; 0x44f8 <USART0_GetCharBlock+0x14>
    44f2:	01 97       	sbiw	r24, 0x01	; 1
    44f4:	f1 f7       	brne	.-4      	; 0x44f2 <USART0_GetCharBlock+0xe>
    44f6:	0d c0       	rjmp	.+26     	; 0x4512 <USART0_GetCharBlock+0x2e>
	return (p->buf [(p->out++) & (UART0_RBUF_SIZE - 1)]);
    44f8:	c9 01       	movw	r24, r18
    44fa:	01 96       	adiw	r24, 0x01	; 1
    44fc:	90 93 31 01 	sts	0x0131, r25	; 0x800131 <uart0_rbuf+0x3>
    4500:	80 93 30 01 	sts	0x0130, r24	; 0x800130 <uart0_rbuf+0x2>
    4504:	33 27       	eor	r19, r19
    4506:	f9 01       	movw	r30, r18
    4508:	e2 5d       	subi	r30, 0xD2	; 210
    450a:	fe 4f       	sbci	r31, 0xFE	; 254
    450c:	84 81       	ldd	r24, Z+4	; 0x04
    450e:	90 e0       	ldi	r25, 0x00	; 0
    4510:	08 95       	ret
*******************************************************************************/
uint16_t USART0_GetCharBlock(uint16_t timeout)
{
	UART0_RBUF_ST *p = &uart0_rbuf;
	uint16_t to = timeout;
	while(((p->out - p->in)& (UART0_RBUF_SIZE - 1)) == 0)if(!(--to))return TIMEOUT;
    4512:	8f ef       	ldi	r24, 0xFF	; 255
    4514:	9f ef       	ldi	r25, 0xFF	; 255
	return (p->buf [(p->out++) & (UART0_RBUF_SIZE - 1)]);
}
    4516:	08 95       	ret

00004518 <USART0_GetChar>:
* Return         : None
*******************************************************************************/
uint16_t USART0_GetChar(void)
{
	UART0_RBUF_ST *p = &uart0_rbuf;
	if(((p->out - p->in) & (UART0_RBUF_SIZE - 1)) == 0) //缓冲区空条件
    4518:	ee e2       	ldi	r30, 0x2E	; 46
    451a:	f1 e0       	ldi	r31, 0x01	; 1
    451c:	92 81       	ldd	r25, Z+2	; 0x02
    451e:	80 81       	ld	r24, Z
    4520:	98 17       	cp	r25, r24
    4522:	29 f0       	breq	.+10     	; 0x452e <USART0_GetChar+0x16>
	return EMPTY;
	return USART0_GetCharBlock(1000);
    4524:	88 ee       	ldi	r24, 0xE8	; 232
    4526:	93 e0       	ldi	r25, 0x03	; 3
    4528:	0e 94 72 22 	call	0x44e4	; 0x44e4 <USART0_GetCharBlock>
    452c:	08 95       	ret
*******************************************************************************/
uint16_t USART0_GetChar(void)
{
	UART0_RBUF_ST *p = &uart0_rbuf;
	if(((p->out - p->in) & (UART0_RBUF_SIZE - 1)) == 0) //缓冲区空条件
	return EMPTY;
    452e:	8f ef       	ldi	r24, 0xFF	; 255
    4530:	9f ef       	ldi	r25, 0xFF	; 255
	return USART0_GetCharBlock(1000);
}
    4532:	08 95       	ret

00004534 <USART0_ClearBuf>:
* Return         : None
*******************************************************************************/
uint16_t USART0_ClearBuf(void)
{
	UART0_RBUF_ST *p = &uart0_rbuf;
	p->out = 0;
    4534:	ee e2       	ldi	r30, 0x2E	; 46
    4536:	f1 e0       	ldi	r31, 0x01	; 1
    4538:	13 82       	std	Z+3, r1	; 0x03
    453a:	12 82       	std	Z+2, r1	; 0x02
	p->in = 0;
    453c:	11 82       	std	Z+1, r1	; 0x01
    453e:	10 82       	st	Z, r1
	return 1;
}
    4540:	81 e0       	ldi	r24, 0x01	; 1
    4542:	90 e0       	ldi	r25, 0x00	; 0
    4544:	08 95       	ret

00004546 <usart_putchar_printf>:
* Description    : printf功能实现函数，
* Input          : None
* Output         : None
* Return         : None
*******************************************************************************/
int usart_putchar_printf(char var, FILE *stream) {
    4546:	cf 93       	push	r28
    4548:	c8 2f       	mov	r28, r24
	if (var == '\n')USART0_PutChar('\r');
    454a:	8a 30       	cpi	r24, 0x0A	; 10
    454c:	19 f4       	brne	.+6      	; 0x4554 <usart_putchar_printf+0xe>
    454e:	8d e0       	ldi	r24, 0x0D	; 13
    4550:	0e 94 54 22 	call	0x44a8	; 0x44a8 <USART0_PutChar>
	USART0_PutChar(var);
    4554:	8c 2f       	mov	r24, r28
    4556:	0e 94 54 22 	call	0x44a8	; 0x44a8 <USART0_PutChar>
	return 0;
}
    455a:	80 e0       	ldi	r24, 0x00	; 0
    455c:	90 e0       	ldi	r25, 0x00	; 0
    455e:	cf 91       	pop	r28
    4560:	08 95       	ret

00004562 <__vector_18>:
* Input          : None
* Output         : None
* Return         : None
*******************************************************************************/
ISR(USART_RX_vect)
{
    4562:	1f 92       	push	r1
    4564:	0f 92       	push	r0
    4566:	0f b6       	in	r0, 0x3f	; 63
    4568:	0f 92       	push	r0
    456a:	11 24       	eor	r1, r1
    456c:	2f 93       	push	r18
    456e:	3f 93       	push	r19
    4570:	4f 93       	push	r20
    4572:	5f 93       	push	r21
    4574:	6f 93       	push	r22
    4576:	7f 93       	push	r23
    4578:	8f 93       	push	r24
    457a:	9f 93       	push	r25
    457c:	ef 93       	push	r30
    457e:	ff 93       	push	r31
	unsigned char Uart_Get_Data;		//串口接收的数据
	UART0_RBUF_ST *p = &uart0_rbuf;		//定义*p，使用指针返回多个数据
	
	Uart_Get_Data = UDR0;			//进入中断，获得UDR寄存器中接收到的数值
    4580:	40 91 c6 00 	lds	r20, 0x00C6	; 0x8000c6 <__TEXT_REGION_LENGTH__+0x7e00c6>
	//LED2_ON;
	if(!ModbusDataPackage.DataFlag) //判断是否已经存在完整的包数据,如果没有则接收新数据
    4584:	80 91 32 02 	lds	r24, 0x0232	; 0x800232 <ModbusDataPackage>
    4588:	81 11       	cpse	r24, r1
    458a:	25 c0       	rjmp	.+74     	; 0x45d6 <__vector_18+0x74>
	{
		//如果缓存为空,表示第一个数据,或者未达到接收时间间隔，判定为继续接收
		if((((p->out - p->in) & (UART0_RBUF_SIZE - 1)) == 0) || ModbusIntervalTime)
    458c:	ee e2       	ldi	r30, 0x2E	; 46
    458e:	f1 e0       	ldi	r31, 0x01	; 1
    4590:	22 81       	ldd	r18, Z+2	; 0x02
    4592:	33 81       	ldd	r19, Z+3	; 0x03
    4594:	80 81       	ld	r24, Z
    4596:	91 81       	ldd	r25, Z+1	; 0x01
    4598:	28 17       	cp	r18, r24
    459a:	21 f0       	breq	.+8      	; 0x45a4 <__vector_18+0x42>
    459c:	50 91 cc 04 	lds	r21, 0x04CC	; 0x8004cc <ModbusIntervalTime>
    45a0:	55 23       	and	r21, r21
    45a2:	c9 f0       	breq	.+50     	; 0x45d6 <__vector_18+0x74>
		{
			ModbusIntervalTime = MODBUS_INTERVAL_TIME;//赋值计数变量	
    45a4:	55 e0       	ldi	r21, 0x05	; 5
    45a6:	50 93 cc 04 	sts	0x04CC, r21	; 0x8004cc <ModbusIntervalTime>
			if((p->in - p->out)<UART0_RBUF_SIZE)//将数据放入缓存
    45aa:	bc 01       	movw	r22, r24
    45ac:	62 1b       	sub	r22, r18
    45ae:	73 0b       	sbc	r23, r19
    45b0:	6f 3f       	cpi	r22, 0xFF	; 255
    45b2:	71 05       	cpc	r23, r1
    45b4:	09 f0       	breq	.+2      	; 0x45b8 <__vector_18+0x56>
    45b6:	50 f4       	brcc	.+20     	; 0x45cc <__vector_18+0x6a>
			{
				p->buf[p->in & (UART0_RBUF_SIZE-1)] = Uart_Get_Data;//将数据放入到buf中
    45b8:	fc 01       	movw	r30, r24
    45ba:	ff 27       	eor	r31, r31
    45bc:	e2 5d       	subi	r30, 0xD2	; 210
    45be:	fe 4f       	sbci	r31, 0xFE	; 254
    45c0:	44 83       	std	Z+4, r20	; 0x04
				p->in++;
    45c2:	01 96       	adiw	r24, 0x01	; 1
    45c4:	90 93 2f 01 	sts	0x012F, r25	; 0x80012f <uart0_rbuf+0x1>
    45c8:	80 93 2e 01 	sts	0x012E, r24	; 0x80012e <uart0_rbuf>
			}
			ModbusDataPackage.DataLen  = (p->in - p->out) & (UART0_RBUF_SIZE - 1);//获取数据长度
    45cc:	80 91 2e 01 	lds	r24, 0x012E	; 0x80012e <uart0_rbuf>
    45d0:	82 1b       	sub	r24, r18
    45d2:	80 93 33 02 	sts	0x0233, r24	; 0x800233 <ModbusDataPackage+0x1>
		}
	}	
}
    45d6:	ff 91       	pop	r31
    45d8:	ef 91       	pop	r30
    45da:	9f 91       	pop	r25
    45dc:	8f 91       	pop	r24
    45de:	7f 91       	pop	r23
    45e0:	6f 91       	pop	r22
    45e2:	5f 91       	pop	r21
    45e4:	4f 91       	pop	r20
    45e6:	3f 91       	pop	r19
    45e8:	2f 91       	pop	r18
    45ea:	0f 90       	pop	r0
    45ec:	0f be       	out	0x3f, r0	; 63
    45ee:	0f 90       	pop	r0
    45f0:	1f 90       	pop	r1
    45f2:	18 95       	reti

000045f4 <__subsf3>:
    45f4:	50 58       	subi	r21, 0x80	; 128

000045f6 <__addsf3>:
    45f6:	bb 27       	eor	r27, r27
    45f8:	aa 27       	eor	r26, r26
    45fa:	0e 94 12 23 	call	0x4624	; 0x4624 <__addsf3x>
    45fe:	0c 94 56 24 	jmp	0x48ac	; 0x48ac <__fp_round>
    4602:	0e 94 48 24 	call	0x4890	; 0x4890 <__fp_pscA>
    4606:	38 f0       	brcs	.+14     	; 0x4616 <__addsf3+0x20>
    4608:	0e 94 4f 24 	call	0x489e	; 0x489e <__fp_pscB>
    460c:	20 f0       	brcs	.+8      	; 0x4616 <__addsf3+0x20>
    460e:	39 f4       	brne	.+14     	; 0x461e <__addsf3+0x28>
    4610:	9f 3f       	cpi	r25, 0xFF	; 255
    4612:	19 f4       	brne	.+6      	; 0x461a <__addsf3+0x24>
    4614:	26 f4       	brtc	.+8      	; 0x461e <__addsf3+0x28>
    4616:	0c 94 45 24 	jmp	0x488a	; 0x488a <__fp_nan>
    461a:	0e f4       	brtc	.+2      	; 0x461e <__addsf3+0x28>
    461c:	e0 95       	com	r30
    461e:	e7 fb       	bst	r30, 7
    4620:	0c 94 3f 24 	jmp	0x487e	; 0x487e <__fp_inf>

00004624 <__addsf3x>:
    4624:	e9 2f       	mov	r30, r25
    4626:	0e 94 67 24 	call	0x48ce	; 0x48ce <__fp_split3>
    462a:	58 f3       	brcs	.-42     	; 0x4602 <__addsf3+0xc>
    462c:	ba 17       	cp	r27, r26
    462e:	62 07       	cpc	r22, r18
    4630:	73 07       	cpc	r23, r19
    4632:	84 07       	cpc	r24, r20
    4634:	95 07       	cpc	r25, r21
    4636:	20 f0       	brcs	.+8      	; 0x4640 <__addsf3x+0x1c>
    4638:	79 f4       	brne	.+30     	; 0x4658 <__addsf3x+0x34>
    463a:	a6 f5       	brtc	.+104    	; 0x46a4 <__addsf3x+0x80>
    463c:	0c 94 89 24 	jmp	0x4912	; 0x4912 <__fp_zero>
    4640:	0e f4       	brtc	.+2      	; 0x4644 <__addsf3x+0x20>
    4642:	e0 95       	com	r30
    4644:	0b 2e       	mov	r0, r27
    4646:	ba 2f       	mov	r27, r26
    4648:	a0 2d       	mov	r26, r0
    464a:	0b 01       	movw	r0, r22
    464c:	b9 01       	movw	r22, r18
    464e:	90 01       	movw	r18, r0
    4650:	0c 01       	movw	r0, r24
    4652:	ca 01       	movw	r24, r20
    4654:	a0 01       	movw	r20, r0
    4656:	11 24       	eor	r1, r1
    4658:	ff 27       	eor	r31, r31
    465a:	59 1b       	sub	r21, r25
    465c:	99 f0       	breq	.+38     	; 0x4684 <__addsf3x+0x60>
    465e:	59 3f       	cpi	r21, 0xF9	; 249
    4660:	50 f4       	brcc	.+20     	; 0x4676 <__addsf3x+0x52>
    4662:	50 3e       	cpi	r21, 0xE0	; 224
    4664:	68 f1       	brcs	.+90     	; 0x46c0 <__addsf3x+0x9c>
    4666:	1a 16       	cp	r1, r26
    4668:	f0 40       	sbci	r31, 0x00	; 0
    466a:	a2 2f       	mov	r26, r18
    466c:	23 2f       	mov	r18, r19
    466e:	34 2f       	mov	r19, r20
    4670:	44 27       	eor	r20, r20
    4672:	58 5f       	subi	r21, 0xF8	; 248
    4674:	f3 cf       	rjmp	.-26     	; 0x465c <__addsf3x+0x38>
    4676:	46 95       	lsr	r20
    4678:	37 95       	ror	r19
    467a:	27 95       	ror	r18
    467c:	a7 95       	ror	r26
    467e:	f0 40       	sbci	r31, 0x00	; 0
    4680:	53 95       	inc	r21
    4682:	c9 f7       	brne	.-14     	; 0x4676 <__addsf3x+0x52>
    4684:	7e f4       	brtc	.+30     	; 0x46a4 <__addsf3x+0x80>
    4686:	1f 16       	cp	r1, r31
    4688:	ba 0b       	sbc	r27, r26
    468a:	62 0b       	sbc	r22, r18
    468c:	73 0b       	sbc	r23, r19
    468e:	84 0b       	sbc	r24, r20
    4690:	ba f0       	brmi	.+46     	; 0x46c0 <__addsf3x+0x9c>
    4692:	91 50       	subi	r25, 0x01	; 1
    4694:	a1 f0       	breq	.+40     	; 0x46be <__addsf3x+0x9a>
    4696:	ff 0f       	add	r31, r31
    4698:	bb 1f       	adc	r27, r27
    469a:	66 1f       	adc	r22, r22
    469c:	77 1f       	adc	r23, r23
    469e:	88 1f       	adc	r24, r24
    46a0:	c2 f7       	brpl	.-16     	; 0x4692 <__addsf3x+0x6e>
    46a2:	0e c0       	rjmp	.+28     	; 0x46c0 <__addsf3x+0x9c>
    46a4:	ba 0f       	add	r27, r26
    46a6:	62 1f       	adc	r22, r18
    46a8:	73 1f       	adc	r23, r19
    46aa:	84 1f       	adc	r24, r20
    46ac:	48 f4       	brcc	.+18     	; 0x46c0 <__addsf3x+0x9c>
    46ae:	87 95       	ror	r24
    46b0:	77 95       	ror	r23
    46b2:	67 95       	ror	r22
    46b4:	b7 95       	ror	r27
    46b6:	f7 95       	ror	r31
    46b8:	9e 3f       	cpi	r25, 0xFE	; 254
    46ba:	08 f0       	brcs	.+2      	; 0x46be <__addsf3x+0x9a>
    46bc:	b0 cf       	rjmp	.-160    	; 0x461e <__addsf3+0x28>
    46be:	93 95       	inc	r25
    46c0:	88 0f       	add	r24, r24
    46c2:	08 f0       	brcs	.+2      	; 0x46c6 <__addsf3x+0xa2>
    46c4:	99 27       	eor	r25, r25
    46c6:	ee 0f       	add	r30, r30
    46c8:	97 95       	ror	r25
    46ca:	87 95       	ror	r24
    46cc:	08 95       	ret

000046ce <__cmpsf2>:
    46ce:	0e 94 1b 24 	call	0x4836	; 0x4836 <__fp_cmp>
    46d2:	08 f4       	brcc	.+2      	; 0x46d6 <__cmpsf2+0x8>
    46d4:	81 e0       	ldi	r24, 0x01	; 1
    46d6:	08 95       	ret

000046d8 <__divsf3>:
    46d8:	0e 94 80 23 	call	0x4700	; 0x4700 <__divsf3x>
    46dc:	0c 94 56 24 	jmp	0x48ac	; 0x48ac <__fp_round>
    46e0:	0e 94 4f 24 	call	0x489e	; 0x489e <__fp_pscB>
    46e4:	58 f0       	brcs	.+22     	; 0x46fc <__divsf3+0x24>
    46e6:	0e 94 48 24 	call	0x4890	; 0x4890 <__fp_pscA>
    46ea:	40 f0       	brcs	.+16     	; 0x46fc <__divsf3+0x24>
    46ec:	29 f4       	brne	.+10     	; 0x46f8 <__divsf3+0x20>
    46ee:	5f 3f       	cpi	r21, 0xFF	; 255
    46f0:	29 f0       	breq	.+10     	; 0x46fc <__divsf3+0x24>
    46f2:	0c 94 3f 24 	jmp	0x487e	; 0x487e <__fp_inf>
    46f6:	51 11       	cpse	r21, r1
    46f8:	0c 94 8a 24 	jmp	0x4914	; 0x4914 <__fp_szero>
    46fc:	0c 94 45 24 	jmp	0x488a	; 0x488a <__fp_nan>

00004700 <__divsf3x>:
    4700:	0e 94 67 24 	call	0x48ce	; 0x48ce <__fp_split3>
    4704:	68 f3       	brcs	.-38     	; 0x46e0 <__divsf3+0x8>

00004706 <__divsf3_pse>:
    4706:	99 23       	and	r25, r25
    4708:	b1 f3       	breq	.-20     	; 0x46f6 <__divsf3+0x1e>
    470a:	55 23       	and	r21, r21
    470c:	91 f3       	breq	.-28     	; 0x46f2 <__divsf3+0x1a>
    470e:	95 1b       	sub	r25, r21
    4710:	55 0b       	sbc	r21, r21
    4712:	bb 27       	eor	r27, r27
    4714:	aa 27       	eor	r26, r26
    4716:	62 17       	cp	r22, r18
    4718:	73 07       	cpc	r23, r19
    471a:	84 07       	cpc	r24, r20
    471c:	38 f0       	brcs	.+14     	; 0x472c <__divsf3_pse+0x26>
    471e:	9f 5f       	subi	r25, 0xFF	; 255
    4720:	5f 4f       	sbci	r21, 0xFF	; 255
    4722:	22 0f       	add	r18, r18
    4724:	33 1f       	adc	r19, r19
    4726:	44 1f       	adc	r20, r20
    4728:	aa 1f       	adc	r26, r26
    472a:	a9 f3       	breq	.-22     	; 0x4716 <__divsf3_pse+0x10>
    472c:	35 d0       	rcall	.+106    	; 0x4798 <__divsf3_pse+0x92>
    472e:	0e 2e       	mov	r0, r30
    4730:	3a f0       	brmi	.+14     	; 0x4740 <__divsf3_pse+0x3a>
    4732:	e0 e8       	ldi	r30, 0x80	; 128
    4734:	32 d0       	rcall	.+100    	; 0x479a <__divsf3_pse+0x94>
    4736:	91 50       	subi	r25, 0x01	; 1
    4738:	50 40       	sbci	r21, 0x00	; 0
    473a:	e6 95       	lsr	r30
    473c:	00 1c       	adc	r0, r0
    473e:	ca f7       	brpl	.-14     	; 0x4732 <__divsf3_pse+0x2c>
    4740:	2b d0       	rcall	.+86     	; 0x4798 <__divsf3_pse+0x92>
    4742:	fe 2f       	mov	r31, r30
    4744:	29 d0       	rcall	.+82     	; 0x4798 <__divsf3_pse+0x92>
    4746:	66 0f       	add	r22, r22
    4748:	77 1f       	adc	r23, r23
    474a:	88 1f       	adc	r24, r24
    474c:	bb 1f       	adc	r27, r27
    474e:	26 17       	cp	r18, r22
    4750:	37 07       	cpc	r19, r23
    4752:	48 07       	cpc	r20, r24
    4754:	ab 07       	cpc	r26, r27
    4756:	b0 e8       	ldi	r27, 0x80	; 128
    4758:	09 f0       	breq	.+2      	; 0x475c <__divsf3_pse+0x56>
    475a:	bb 0b       	sbc	r27, r27
    475c:	80 2d       	mov	r24, r0
    475e:	bf 01       	movw	r22, r30
    4760:	ff 27       	eor	r31, r31
    4762:	93 58       	subi	r25, 0x83	; 131
    4764:	5f 4f       	sbci	r21, 0xFF	; 255
    4766:	3a f0       	brmi	.+14     	; 0x4776 <__divsf3_pse+0x70>
    4768:	9e 3f       	cpi	r25, 0xFE	; 254
    476a:	51 05       	cpc	r21, r1
    476c:	78 f0       	brcs	.+30     	; 0x478c <__divsf3_pse+0x86>
    476e:	0c 94 3f 24 	jmp	0x487e	; 0x487e <__fp_inf>
    4772:	0c 94 8a 24 	jmp	0x4914	; 0x4914 <__fp_szero>
    4776:	5f 3f       	cpi	r21, 0xFF	; 255
    4778:	e4 f3       	brlt	.-8      	; 0x4772 <__divsf3_pse+0x6c>
    477a:	98 3e       	cpi	r25, 0xE8	; 232
    477c:	d4 f3       	brlt	.-12     	; 0x4772 <__divsf3_pse+0x6c>
    477e:	86 95       	lsr	r24
    4780:	77 95       	ror	r23
    4782:	67 95       	ror	r22
    4784:	b7 95       	ror	r27
    4786:	f7 95       	ror	r31
    4788:	9f 5f       	subi	r25, 0xFF	; 255
    478a:	c9 f7       	brne	.-14     	; 0x477e <__divsf3_pse+0x78>
    478c:	88 0f       	add	r24, r24
    478e:	91 1d       	adc	r25, r1
    4790:	96 95       	lsr	r25
    4792:	87 95       	ror	r24
    4794:	97 f9       	bld	r25, 7
    4796:	08 95       	ret
    4798:	e1 e0       	ldi	r30, 0x01	; 1
    479a:	66 0f       	add	r22, r22
    479c:	77 1f       	adc	r23, r23
    479e:	88 1f       	adc	r24, r24
    47a0:	bb 1f       	adc	r27, r27
    47a2:	62 17       	cp	r22, r18
    47a4:	73 07       	cpc	r23, r19
    47a6:	84 07       	cpc	r24, r20
    47a8:	ba 07       	cpc	r27, r26
    47aa:	20 f0       	brcs	.+8      	; 0x47b4 <__divsf3_pse+0xae>
    47ac:	62 1b       	sub	r22, r18
    47ae:	73 0b       	sbc	r23, r19
    47b0:	84 0b       	sbc	r24, r20
    47b2:	ba 0b       	sbc	r27, r26
    47b4:	ee 1f       	adc	r30, r30
    47b6:	88 f7       	brcc	.-30     	; 0x479a <__divsf3_pse+0x94>
    47b8:	e0 95       	com	r30
    47ba:	08 95       	ret

000047bc <__floatunsisf>:
    47bc:	e8 94       	clt
    47be:	09 c0       	rjmp	.+18     	; 0x47d2 <__floatsisf+0x12>

000047c0 <__floatsisf>:
    47c0:	97 fb       	bst	r25, 7
    47c2:	3e f4       	brtc	.+14     	; 0x47d2 <__floatsisf+0x12>
    47c4:	90 95       	com	r25
    47c6:	80 95       	com	r24
    47c8:	70 95       	com	r23
    47ca:	61 95       	neg	r22
    47cc:	7f 4f       	sbci	r23, 0xFF	; 255
    47ce:	8f 4f       	sbci	r24, 0xFF	; 255
    47d0:	9f 4f       	sbci	r25, 0xFF	; 255
    47d2:	99 23       	and	r25, r25
    47d4:	a9 f0       	breq	.+42     	; 0x4800 <__floatsisf+0x40>
    47d6:	f9 2f       	mov	r31, r25
    47d8:	96 e9       	ldi	r25, 0x96	; 150
    47da:	bb 27       	eor	r27, r27
    47dc:	93 95       	inc	r25
    47de:	f6 95       	lsr	r31
    47e0:	87 95       	ror	r24
    47e2:	77 95       	ror	r23
    47e4:	67 95       	ror	r22
    47e6:	b7 95       	ror	r27
    47e8:	f1 11       	cpse	r31, r1
    47ea:	f8 cf       	rjmp	.-16     	; 0x47dc <__floatsisf+0x1c>
    47ec:	fa f4       	brpl	.+62     	; 0x482c <__floatsisf+0x6c>
    47ee:	bb 0f       	add	r27, r27
    47f0:	11 f4       	brne	.+4      	; 0x47f6 <__floatsisf+0x36>
    47f2:	60 ff       	sbrs	r22, 0
    47f4:	1b c0       	rjmp	.+54     	; 0x482c <__floatsisf+0x6c>
    47f6:	6f 5f       	subi	r22, 0xFF	; 255
    47f8:	7f 4f       	sbci	r23, 0xFF	; 255
    47fa:	8f 4f       	sbci	r24, 0xFF	; 255
    47fc:	9f 4f       	sbci	r25, 0xFF	; 255
    47fe:	16 c0       	rjmp	.+44     	; 0x482c <__floatsisf+0x6c>
    4800:	88 23       	and	r24, r24
    4802:	11 f0       	breq	.+4      	; 0x4808 <__floatsisf+0x48>
    4804:	96 e9       	ldi	r25, 0x96	; 150
    4806:	11 c0       	rjmp	.+34     	; 0x482a <__floatsisf+0x6a>
    4808:	77 23       	and	r23, r23
    480a:	21 f0       	breq	.+8      	; 0x4814 <__floatsisf+0x54>
    480c:	9e e8       	ldi	r25, 0x8E	; 142
    480e:	87 2f       	mov	r24, r23
    4810:	76 2f       	mov	r23, r22
    4812:	05 c0       	rjmp	.+10     	; 0x481e <__floatsisf+0x5e>
    4814:	66 23       	and	r22, r22
    4816:	71 f0       	breq	.+28     	; 0x4834 <__floatsisf+0x74>
    4818:	96 e8       	ldi	r25, 0x86	; 134
    481a:	86 2f       	mov	r24, r22
    481c:	70 e0       	ldi	r23, 0x00	; 0
    481e:	60 e0       	ldi	r22, 0x00	; 0
    4820:	2a f0       	brmi	.+10     	; 0x482c <__floatsisf+0x6c>
    4822:	9a 95       	dec	r25
    4824:	66 0f       	add	r22, r22
    4826:	77 1f       	adc	r23, r23
    4828:	88 1f       	adc	r24, r24
    482a:	da f7       	brpl	.-10     	; 0x4822 <__floatsisf+0x62>
    482c:	88 0f       	add	r24, r24
    482e:	96 95       	lsr	r25
    4830:	87 95       	ror	r24
    4832:	97 f9       	bld	r25, 7
    4834:	08 95       	ret

00004836 <__fp_cmp>:
    4836:	99 0f       	add	r25, r25
    4838:	00 08       	sbc	r0, r0
    483a:	55 0f       	add	r21, r21
    483c:	aa 0b       	sbc	r26, r26
    483e:	e0 e8       	ldi	r30, 0x80	; 128
    4840:	fe ef       	ldi	r31, 0xFE	; 254
    4842:	16 16       	cp	r1, r22
    4844:	17 06       	cpc	r1, r23
    4846:	e8 07       	cpc	r30, r24
    4848:	f9 07       	cpc	r31, r25
    484a:	c0 f0       	brcs	.+48     	; 0x487c <__fp_cmp+0x46>
    484c:	12 16       	cp	r1, r18
    484e:	13 06       	cpc	r1, r19
    4850:	e4 07       	cpc	r30, r20
    4852:	f5 07       	cpc	r31, r21
    4854:	98 f0       	brcs	.+38     	; 0x487c <__fp_cmp+0x46>
    4856:	62 1b       	sub	r22, r18
    4858:	73 0b       	sbc	r23, r19
    485a:	84 0b       	sbc	r24, r20
    485c:	95 0b       	sbc	r25, r21
    485e:	39 f4       	brne	.+14     	; 0x486e <__fp_cmp+0x38>
    4860:	0a 26       	eor	r0, r26
    4862:	61 f0       	breq	.+24     	; 0x487c <__fp_cmp+0x46>
    4864:	23 2b       	or	r18, r19
    4866:	24 2b       	or	r18, r20
    4868:	25 2b       	or	r18, r21
    486a:	21 f4       	brne	.+8      	; 0x4874 <__fp_cmp+0x3e>
    486c:	08 95       	ret
    486e:	0a 26       	eor	r0, r26
    4870:	09 f4       	brne	.+2      	; 0x4874 <__fp_cmp+0x3e>
    4872:	a1 40       	sbci	r26, 0x01	; 1
    4874:	a6 95       	lsr	r26
    4876:	8f ef       	ldi	r24, 0xFF	; 255
    4878:	81 1d       	adc	r24, r1
    487a:	81 1d       	adc	r24, r1
    487c:	08 95       	ret

0000487e <__fp_inf>:
    487e:	97 f9       	bld	r25, 7
    4880:	9f 67       	ori	r25, 0x7F	; 127
    4882:	80 e8       	ldi	r24, 0x80	; 128
    4884:	70 e0       	ldi	r23, 0x00	; 0
    4886:	60 e0       	ldi	r22, 0x00	; 0
    4888:	08 95       	ret

0000488a <__fp_nan>:
    488a:	9f ef       	ldi	r25, 0xFF	; 255
    488c:	80 ec       	ldi	r24, 0xC0	; 192
    488e:	08 95       	ret

00004890 <__fp_pscA>:
    4890:	00 24       	eor	r0, r0
    4892:	0a 94       	dec	r0
    4894:	16 16       	cp	r1, r22
    4896:	17 06       	cpc	r1, r23
    4898:	18 06       	cpc	r1, r24
    489a:	09 06       	cpc	r0, r25
    489c:	08 95       	ret

0000489e <__fp_pscB>:
    489e:	00 24       	eor	r0, r0
    48a0:	0a 94       	dec	r0
    48a2:	12 16       	cp	r1, r18
    48a4:	13 06       	cpc	r1, r19
    48a6:	14 06       	cpc	r1, r20
    48a8:	05 06       	cpc	r0, r21
    48aa:	08 95       	ret

000048ac <__fp_round>:
    48ac:	09 2e       	mov	r0, r25
    48ae:	03 94       	inc	r0
    48b0:	00 0c       	add	r0, r0
    48b2:	11 f4       	brne	.+4      	; 0x48b8 <__fp_round+0xc>
    48b4:	88 23       	and	r24, r24
    48b6:	52 f0       	brmi	.+20     	; 0x48cc <__fp_round+0x20>
    48b8:	bb 0f       	add	r27, r27
    48ba:	40 f4       	brcc	.+16     	; 0x48cc <__fp_round+0x20>
    48bc:	bf 2b       	or	r27, r31
    48be:	11 f4       	brne	.+4      	; 0x48c4 <__fp_round+0x18>
    48c0:	60 ff       	sbrs	r22, 0
    48c2:	04 c0       	rjmp	.+8      	; 0x48cc <__fp_round+0x20>
    48c4:	6f 5f       	subi	r22, 0xFF	; 255
    48c6:	7f 4f       	sbci	r23, 0xFF	; 255
    48c8:	8f 4f       	sbci	r24, 0xFF	; 255
    48ca:	9f 4f       	sbci	r25, 0xFF	; 255
    48cc:	08 95       	ret

000048ce <__fp_split3>:
    48ce:	57 fd       	sbrc	r21, 7
    48d0:	90 58       	subi	r25, 0x80	; 128
    48d2:	44 0f       	add	r20, r20
    48d4:	55 1f       	adc	r21, r21
    48d6:	59 f0       	breq	.+22     	; 0x48ee <__fp_splitA+0x10>
    48d8:	5f 3f       	cpi	r21, 0xFF	; 255
    48da:	71 f0       	breq	.+28     	; 0x48f8 <__fp_splitA+0x1a>
    48dc:	47 95       	ror	r20

000048de <__fp_splitA>:
    48de:	88 0f       	add	r24, r24
    48e0:	97 fb       	bst	r25, 7
    48e2:	99 1f       	adc	r25, r25
    48e4:	61 f0       	breq	.+24     	; 0x48fe <__fp_splitA+0x20>
    48e6:	9f 3f       	cpi	r25, 0xFF	; 255
    48e8:	79 f0       	breq	.+30     	; 0x4908 <__fp_splitA+0x2a>
    48ea:	87 95       	ror	r24
    48ec:	08 95       	ret
    48ee:	12 16       	cp	r1, r18
    48f0:	13 06       	cpc	r1, r19
    48f2:	14 06       	cpc	r1, r20
    48f4:	55 1f       	adc	r21, r21
    48f6:	f2 cf       	rjmp	.-28     	; 0x48dc <__fp_split3+0xe>
    48f8:	46 95       	lsr	r20
    48fa:	f1 df       	rcall	.-30     	; 0x48de <__fp_splitA>
    48fc:	08 c0       	rjmp	.+16     	; 0x490e <__fp_splitA+0x30>
    48fe:	16 16       	cp	r1, r22
    4900:	17 06       	cpc	r1, r23
    4902:	18 06       	cpc	r1, r24
    4904:	99 1f       	adc	r25, r25
    4906:	f1 cf       	rjmp	.-30     	; 0x48ea <__fp_splitA+0xc>
    4908:	86 95       	lsr	r24
    490a:	71 05       	cpc	r23, r1
    490c:	61 05       	cpc	r22, r1
    490e:	08 94       	sec
    4910:	08 95       	ret

00004912 <__fp_zero>:
    4912:	e8 94       	clt

00004914 <__fp_szero>:
    4914:	bb 27       	eor	r27, r27
    4916:	66 27       	eor	r22, r22
    4918:	77 27       	eor	r23, r23
    491a:	cb 01       	movw	r24, r22
    491c:	97 f9       	bld	r25, 7
    491e:	08 95       	ret

00004920 <__gesf2>:
    4920:	0e 94 1b 24 	call	0x4836	; 0x4836 <__fp_cmp>
    4924:	08 f4       	brcc	.+2      	; 0x4928 <__gesf2+0x8>
    4926:	8f ef       	ldi	r24, 0xFF	; 255
    4928:	08 95       	ret

0000492a <__mulsf3>:
    492a:	0e 94 a8 24 	call	0x4950	; 0x4950 <__mulsf3x>
    492e:	0c 94 56 24 	jmp	0x48ac	; 0x48ac <__fp_round>
    4932:	0e 94 48 24 	call	0x4890	; 0x4890 <__fp_pscA>
    4936:	38 f0       	brcs	.+14     	; 0x4946 <__mulsf3+0x1c>
    4938:	0e 94 4f 24 	call	0x489e	; 0x489e <__fp_pscB>
    493c:	20 f0       	brcs	.+8      	; 0x4946 <__mulsf3+0x1c>
    493e:	95 23       	and	r25, r21
    4940:	11 f0       	breq	.+4      	; 0x4946 <__mulsf3+0x1c>
    4942:	0c 94 3f 24 	jmp	0x487e	; 0x487e <__fp_inf>
    4946:	0c 94 45 24 	jmp	0x488a	; 0x488a <__fp_nan>
    494a:	11 24       	eor	r1, r1
    494c:	0c 94 8a 24 	jmp	0x4914	; 0x4914 <__fp_szero>

00004950 <__mulsf3x>:
    4950:	0e 94 67 24 	call	0x48ce	; 0x48ce <__fp_split3>
    4954:	70 f3       	brcs	.-36     	; 0x4932 <__mulsf3+0x8>

00004956 <__mulsf3_pse>:
    4956:	95 9f       	mul	r25, r21
    4958:	c1 f3       	breq	.-16     	; 0x494a <__mulsf3+0x20>
    495a:	95 0f       	add	r25, r21
    495c:	50 e0       	ldi	r21, 0x00	; 0
    495e:	55 1f       	adc	r21, r21
    4960:	62 9f       	mul	r22, r18
    4962:	f0 01       	movw	r30, r0
    4964:	72 9f       	mul	r23, r18
    4966:	bb 27       	eor	r27, r27
    4968:	f0 0d       	add	r31, r0
    496a:	b1 1d       	adc	r27, r1
    496c:	63 9f       	mul	r22, r19
    496e:	aa 27       	eor	r26, r26
    4970:	f0 0d       	add	r31, r0
    4972:	b1 1d       	adc	r27, r1
    4974:	aa 1f       	adc	r26, r26
    4976:	64 9f       	mul	r22, r20
    4978:	66 27       	eor	r22, r22
    497a:	b0 0d       	add	r27, r0
    497c:	a1 1d       	adc	r26, r1
    497e:	66 1f       	adc	r22, r22
    4980:	82 9f       	mul	r24, r18
    4982:	22 27       	eor	r18, r18
    4984:	b0 0d       	add	r27, r0
    4986:	a1 1d       	adc	r26, r1
    4988:	62 1f       	adc	r22, r18
    498a:	73 9f       	mul	r23, r19
    498c:	b0 0d       	add	r27, r0
    498e:	a1 1d       	adc	r26, r1
    4990:	62 1f       	adc	r22, r18
    4992:	83 9f       	mul	r24, r19
    4994:	a0 0d       	add	r26, r0
    4996:	61 1d       	adc	r22, r1
    4998:	22 1f       	adc	r18, r18
    499a:	74 9f       	mul	r23, r20
    499c:	33 27       	eor	r19, r19
    499e:	a0 0d       	add	r26, r0
    49a0:	61 1d       	adc	r22, r1
    49a2:	23 1f       	adc	r18, r19
    49a4:	84 9f       	mul	r24, r20
    49a6:	60 0d       	add	r22, r0
    49a8:	21 1d       	adc	r18, r1
    49aa:	82 2f       	mov	r24, r18
    49ac:	76 2f       	mov	r23, r22
    49ae:	6a 2f       	mov	r22, r26
    49b0:	11 24       	eor	r1, r1
    49b2:	9f 57       	subi	r25, 0x7F	; 127
    49b4:	50 40       	sbci	r21, 0x00	; 0
    49b6:	9a f0       	brmi	.+38     	; 0x49de <__mulsf3_pse+0x88>
    49b8:	f1 f0       	breq	.+60     	; 0x49f6 <__mulsf3_pse+0xa0>
    49ba:	88 23       	and	r24, r24
    49bc:	4a f0       	brmi	.+18     	; 0x49d0 <__mulsf3_pse+0x7a>
    49be:	ee 0f       	add	r30, r30
    49c0:	ff 1f       	adc	r31, r31
    49c2:	bb 1f       	adc	r27, r27
    49c4:	66 1f       	adc	r22, r22
    49c6:	77 1f       	adc	r23, r23
    49c8:	88 1f       	adc	r24, r24
    49ca:	91 50       	subi	r25, 0x01	; 1
    49cc:	50 40       	sbci	r21, 0x00	; 0
    49ce:	a9 f7       	brne	.-22     	; 0x49ba <__mulsf3_pse+0x64>
    49d0:	9e 3f       	cpi	r25, 0xFE	; 254
    49d2:	51 05       	cpc	r21, r1
    49d4:	80 f0       	brcs	.+32     	; 0x49f6 <__mulsf3_pse+0xa0>
    49d6:	0c 94 3f 24 	jmp	0x487e	; 0x487e <__fp_inf>
    49da:	0c 94 8a 24 	jmp	0x4914	; 0x4914 <__fp_szero>
    49de:	5f 3f       	cpi	r21, 0xFF	; 255
    49e0:	e4 f3       	brlt	.-8      	; 0x49da <__mulsf3_pse+0x84>
    49e2:	98 3e       	cpi	r25, 0xE8	; 232
    49e4:	d4 f3       	brlt	.-12     	; 0x49da <__mulsf3_pse+0x84>
    49e6:	86 95       	lsr	r24
    49e8:	77 95       	ror	r23
    49ea:	67 95       	ror	r22
    49ec:	b7 95       	ror	r27
    49ee:	f7 95       	ror	r31
    49f0:	e7 95       	ror	r30
    49f2:	9f 5f       	subi	r25, 0xFF	; 255
    49f4:	c1 f7       	brne	.-16     	; 0x49e6 <__mulsf3_pse+0x90>
    49f6:	fe 2b       	or	r31, r30
    49f8:	88 0f       	add	r24, r24
    49fa:	91 1d       	adc	r25, r1
    49fc:	96 95       	lsr	r25
    49fe:	87 95       	ror	r24
    4a00:	97 f9       	bld	r25, 7
    4a02:	08 95       	ret

00004a04 <pow>:
    4a04:	fa 01       	movw	r30, r20
    4a06:	ee 0f       	add	r30, r30
    4a08:	ff 1f       	adc	r31, r31
    4a0a:	30 96       	adiw	r30, 0x00	; 0
    4a0c:	21 05       	cpc	r18, r1
    4a0e:	31 05       	cpc	r19, r1
    4a10:	a1 f1       	breq	.+104    	; 0x4a7a <pow+0x76>
    4a12:	61 15       	cp	r22, r1
    4a14:	71 05       	cpc	r23, r1
    4a16:	61 f4       	brne	.+24     	; 0x4a30 <pow+0x2c>
    4a18:	80 38       	cpi	r24, 0x80	; 128
    4a1a:	bf e3       	ldi	r27, 0x3F	; 63
    4a1c:	9b 07       	cpc	r25, r27
    4a1e:	49 f1       	breq	.+82     	; 0x4a72 <pow+0x6e>
    4a20:	68 94       	set
    4a22:	90 38       	cpi	r25, 0x80	; 128
    4a24:	81 05       	cpc	r24, r1
    4a26:	61 f0       	breq	.+24     	; 0x4a40 <pow+0x3c>
    4a28:	80 38       	cpi	r24, 0x80	; 128
    4a2a:	bf ef       	ldi	r27, 0xFF	; 255
    4a2c:	9b 07       	cpc	r25, r27
    4a2e:	41 f0       	breq	.+16     	; 0x4a40 <pow+0x3c>
    4a30:	99 23       	and	r25, r25
    4a32:	4a f5       	brpl	.+82     	; 0x4a86 <pow+0x82>
    4a34:	ff 3f       	cpi	r31, 0xFF	; 255
    4a36:	e1 05       	cpc	r30, r1
    4a38:	31 05       	cpc	r19, r1
    4a3a:	21 05       	cpc	r18, r1
    4a3c:	19 f1       	breq	.+70     	; 0x4a84 <pow+0x80>
    4a3e:	e8 94       	clt
    4a40:	08 94       	sec
    4a42:	e7 95       	ror	r30
    4a44:	d9 01       	movw	r26, r18
    4a46:	aa 23       	and	r26, r26
    4a48:	29 f4       	brne	.+10     	; 0x4a54 <pow+0x50>
    4a4a:	ab 2f       	mov	r26, r27
    4a4c:	be 2f       	mov	r27, r30
    4a4e:	f8 5f       	subi	r31, 0xF8	; 248
    4a50:	d0 f3       	brcs	.-12     	; 0x4a46 <pow+0x42>
    4a52:	10 c0       	rjmp	.+32     	; 0x4a74 <pow+0x70>
    4a54:	ff 5f       	subi	r31, 0xFF	; 255
    4a56:	70 f4       	brcc	.+28     	; 0x4a74 <pow+0x70>
    4a58:	a6 95       	lsr	r26
    4a5a:	e0 f7       	brcc	.-8      	; 0x4a54 <pow+0x50>
    4a5c:	f7 39       	cpi	r31, 0x97	; 151
    4a5e:	50 f0       	brcs	.+20     	; 0x4a74 <pow+0x70>
    4a60:	19 f0       	breq	.+6      	; 0x4a68 <pow+0x64>
    4a62:	ff 3a       	cpi	r31, 0xAF	; 175
    4a64:	38 f4       	brcc	.+14     	; 0x4a74 <pow+0x70>
    4a66:	9f 77       	andi	r25, 0x7F	; 127
    4a68:	9f 93       	push	r25
    4a6a:	0d d0       	rcall	.+26     	; 0x4a86 <pow+0x82>
    4a6c:	0f 90       	pop	r0
    4a6e:	07 fc       	sbrc	r0, 7
    4a70:	90 58       	subi	r25, 0x80	; 128
    4a72:	08 95       	ret
    4a74:	46 f0       	brts	.+16     	; 0x4a86 <pow+0x82>
    4a76:	0c 94 45 24 	jmp	0x488a	; 0x488a <__fp_nan>
    4a7a:	60 e0       	ldi	r22, 0x00	; 0
    4a7c:	70 e0       	ldi	r23, 0x00	; 0
    4a7e:	80 e8       	ldi	r24, 0x80	; 128
    4a80:	9f e3       	ldi	r25, 0x3F	; 63
    4a82:	08 95       	ret
    4a84:	4f e7       	ldi	r20, 0x7F	; 127
    4a86:	9f 77       	andi	r25, 0x7F	; 127
    4a88:	5f 93       	push	r21
    4a8a:	4f 93       	push	r20
    4a8c:	3f 93       	push	r19
    4a8e:	2f 93       	push	r18
    4a90:	0e 94 fd 25 	call	0x4bfa	; 0x4bfa <log>
    4a94:	2f 91       	pop	r18
    4a96:	3f 91       	pop	r19
    4a98:	4f 91       	pop	r20
    4a9a:	5f 91       	pop	r21
    4a9c:	0e 94 95 24 	call	0x492a	; 0x492a <__mulsf3>
    4aa0:	0c 94 5a 25 	jmp	0x4ab4	; 0x4ab4 <exp>
    4aa4:	29 f4       	brne	.+10     	; 0x4ab0 <pow+0xac>
    4aa6:	16 f0       	brts	.+4      	; 0x4aac <pow+0xa8>
    4aa8:	0c 94 3f 24 	jmp	0x487e	; 0x487e <__fp_inf>
    4aac:	0c 94 89 24 	jmp	0x4912	; 0x4912 <__fp_zero>
    4ab0:	0c 94 45 24 	jmp	0x488a	; 0x488a <__fp_nan>

00004ab4 <exp>:
    4ab4:	0e 94 6f 24 	call	0x48de	; 0x48de <__fp_splitA>
    4ab8:	a8 f3       	brcs	.-22     	; 0x4aa4 <pow+0xa0>
    4aba:	96 38       	cpi	r25, 0x86	; 134
    4abc:	a0 f7       	brcc	.-24     	; 0x4aa6 <pow+0xa2>
    4abe:	07 f8       	bld	r0, 7
    4ac0:	0f 92       	push	r0
    4ac2:	e8 94       	clt
    4ac4:	2b e3       	ldi	r18, 0x3B	; 59
    4ac6:	3a ea       	ldi	r19, 0xAA	; 170
    4ac8:	48 eb       	ldi	r20, 0xB8	; 184
    4aca:	5f e7       	ldi	r21, 0x7F	; 127
    4acc:	0e 94 ab 24 	call	0x4956	; 0x4956 <__mulsf3_pse>
    4ad0:	0f 92       	push	r0
    4ad2:	0f 92       	push	r0
    4ad4:	0f 92       	push	r0
    4ad6:	4d b7       	in	r20, 0x3d	; 61
    4ad8:	5e b7       	in	r21, 0x3e	; 62
    4ada:	0f 92       	push	r0
    4adc:	0e 94 45 26 	call	0x4c8a	; 0x4c8a <modf>
    4ae0:	e4 e3       	ldi	r30, 0x34	; 52
    4ae2:	f1 e0       	ldi	r31, 0x01	; 1
    4ae4:	0e 94 8c 25 	call	0x4b18	; 0x4b18 <__fp_powser>
    4ae8:	4f 91       	pop	r20
    4aea:	5f 91       	pop	r21
    4aec:	ef 91       	pop	r30
    4aee:	ff 91       	pop	r31
    4af0:	e5 95       	asr	r30
    4af2:	ee 1f       	adc	r30, r30
    4af4:	ff 1f       	adc	r31, r31
    4af6:	49 f0       	breq	.+18     	; 0x4b0a <exp+0x56>
    4af8:	fe 57       	subi	r31, 0x7E	; 126
    4afa:	e0 68       	ori	r30, 0x80	; 128
    4afc:	44 27       	eor	r20, r20
    4afe:	ee 0f       	add	r30, r30
    4b00:	44 1f       	adc	r20, r20
    4b02:	fa 95       	dec	r31
    4b04:	e1 f7       	brne	.-8      	; 0x4afe <exp+0x4a>
    4b06:	41 95       	neg	r20
    4b08:	55 0b       	sbc	r21, r21
    4b0a:	0e 94 bf 25 	call	0x4b7e	; 0x4b7e <ldexp>
    4b0e:	0f 90       	pop	r0
    4b10:	07 fe       	sbrs	r0, 7
    4b12:	0c 94 b3 25 	jmp	0x4b66	; 0x4b66 <inverse>
    4b16:	08 95       	ret

00004b18 <__fp_powser>:
    4b18:	df 93       	push	r29
    4b1a:	cf 93       	push	r28
    4b1c:	1f 93       	push	r17
    4b1e:	0f 93       	push	r16
    4b20:	ff 92       	push	r15
    4b22:	ef 92       	push	r14
    4b24:	df 92       	push	r13
    4b26:	7b 01       	movw	r14, r22
    4b28:	8c 01       	movw	r16, r24
    4b2a:	68 94       	set
    4b2c:	06 c0       	rjmp	.+12     	; 0x4b3a <__fp_powser+0x22>
    4b2e:	da 2e       	mov	r13, r26
    4b30:	ef 01       	movw	r28, r30
    4b32:	0e 94 a8 24 	call	0x4950	; 0x4950 <__mulsf3x>
    4b36:	fe 01       	movw	r30, r28
    4b38:	e8 94       	clt
    4b3a:	a5 91       	lpm	r26, Z+
    4b3c:	25 91       	lpm	r18, Z+
    4b3e:	35 91       	lpm	r19, Z+
    4b40:	45 91       	lpm	r20, Z+
    4b42:	55 91       	lpm	r21, Z+
    4b44:	a6 f3       	brts	.-24     	; 0x4b2e <__fp_powser+0x16>
    4b46:	ef 01       	movw	r28, r30
    4b48:	0e 94 12 23 	call	0x4624	; 0x4624 <__addsf3x>
    4b4c:	fe 01       	movw	r30, r28
    4b4e:	97 01       	movw	r18, r14
    4b50:	a8 01       	movw	r20, r16
    4b52:	da 94       	dec	r13
    4b54:	69 f7       	brne	.-38     	; 0x4b30 <__fp_powser+0x18>
    4b56:	df 90       	pop	r13
    4b58:	ef 90       	pop	r14
    4b5a:	ff 90       	pop	r15
    4b5c:	0f 91       	pop	r16
    4b5e:	1f 91       	pop	r17
    4b60:	cf 91       	pop	r28
    4b62:	df 91       	pop	r29
    4b64:	08 95       	ret

00004b66 <inverse>:
    4b66:	9b 01       	movw	r18, r22
    4b68:	ac 01       	movw	r20, r24
    4b6a:	60 e0       	ldi	r22, 0x00	; 0
    4b6c:	70 e0       	ldi	r23, 0x00	; 0
    4b6e:	80 e8       	ldi	r24, 0x80	; 128
    4b70:	9f e3       	ldi	r25, 0x3F	; 63
    4b72:	0c 94 6c 23 	jmp	0x46d8	; 0x46d8 <__divsf3>
    4b76:	0c 94 3f 24 	jmp	0x487e	; 0x487e <__fp_inf>
    4b7a:	0c 94 79 26 	jmp	0x4cf2	; 0x4cf2 <__fp_mpack>

00004b7e <ldexp>:
    4b7e:	0e 94 6f 24 	call	0x48de	; 0x48de <__fp_splitA>
    4b82:	d8 f3       	brcs	.-10     	; 0x4b7a <inverse+0x14>
    4b84:	99 23       	and	r25, r25
    4b86:	c9 f3       	breq	.-14     	; 0x4b7a <inverse+0x14>
    4b88:	94 0f       	add	r25, r20
    4b8a:	51 1d       	adc	r21, r1
    4b8c:	a3 f3       	brvs	.-24     	; 0x4b76 <inverse+0x10>
    4b8e:	91 50       	subi	r25, 0x01	; 1
    4b90:	50 40       	sbci	r21, 0x00	; 0
    4b92:	94 f0       	brlt	.+36     	; 0x4bb8 <ldexp+0x3a>
    4b94:	59 f0       	breq	.+22     	; 0x4bac <ldexp+0x2e>
    4b96:	88 23       	and	r24, r24
    4b98:	32 f0       	brmi	.+12     	; 0x4ba6 <ldexp+0x28>
    4b9a:	66 0f       	add	r22, r22
    4b9c:	77 1f       	adc	r23, r23
    4b9e:	88 1f       	adc	r24, r24
    4ba0:	91 50       	subi	r25, 0x01	; 1
    4ba2:	50 40       	sbci	r21, 0x00	; 0
    4ba4:	c1 f7       	brne	.-16     	; 0x4b96 <ldexp+0x18>
    4ba6:	9e 3f       	cpi	r25, 0xFE	; 254
    4ba8:	51 05       	cpc	r21, r1
    4baa:	2c f7       	brge	.-54     	; 0x4b76 <inverse+0x10>
    4bac:	88 0f       	add	r24, r24
    4bae:	91 1d       	adc	r25, r1
    4bb0:	96 95       	lsr	r25
    4bb2:	87 95       	ror	r24
    4bb4:	97 f9       	bld	r25, 7
    4bb6:	08 95       	ret
    4bb8:	5f 3f       	cpi	r21, 0xFF	; 255
    4bba:	ac f0       	brlt	.+42     	; 0x4be6 <ldexp+0x68>
    4bbc:	98 3e       	cpi	r25, 0xE8	; 232
    4bbe:	9c f0       	brlt	.+38     	; 0x4be6 <ldexp+0x68>
    4bc0:	bb 27       	eor	r27, r27
    4bc2:	86 95       	lsr	r24
    4bc4:	77 95       	ror	r23
    4bc6:	67 95       	ror	r22
    4bc8:	b7 95       	ror	r27
    4bca:	08 f4       	brcc	.+2      	; 0x4bce <ldexp+0x50>
    4bcc:	b1 60       	ori	r27, 0x01	; 1
    4bce:	93 95       	inc	r25
    4bd0:	c1 f7       	brne	.-16     	; 0x4bc2 <ldexp+0x44>
    4bd2:	bb 0f       	add	r27, r27
    4bd4:	58 f7       	brcc	.-42     	; 0x4bac <ldexp+0x2e>
    4bd6:	11 f4       	brne	.+4      	; 0x4bdc <ldexp+0x5e>
    4bd8:	60 ff       	sbrs	r22, 0
    4bda:	e8 cf       	rjmp	.-48     	; 0x4bac <ldexp+0x2e>
    4bdc:	6f 5f       	subi	r22, 0xFF	; 255
    4bde:	7f 4f       	sbci	r23, 0xFF	; 255
    4be0:	8f 4f       	sbci	r24, 0xFF	; 255
    4be2:	9f 4f       	sbci	r25, 0xFF	; 255
    4be4:	e3 cf       	rjmp	.-58     	; 0x4bac <ldexp+0x2e>
    4be6:	0c 94 8a 24 	jmp	0x4914	; 0x4914 <__fp_szero>
    4bea:	16 f0       	brts	.+4      	; 0x4bf0 <ldexp+0x72>
    4bec:	0c 94 79 26 	jmp	0x4cf2	; 0x4cf2 <__fp_mpack>
    4bf0:	0c 94 45 24 	jmp	0x488a	; 0x488a <__fp_nan>
    4bf4:	68 94       	set
    4bf6:	0c 94 3f 24 	jmp	0x487e	; 0x487e <__fp_inf>

00004bfa <log>:
    4bfa:	0e 94 6f 24 	call	0x48de	; 0x48de <__fp_splitA>
    4bfe:	a8 f3       	brcs	.-22     	; 0x4bea <ldexp+0x6c>
    4c00:	99 23       	and	r25, r25
    4c02:	c1 f3       	breq	.-16     	; 0x4bf4 <ldexp+0x76>
    4c04:	ae f3       	brts	.-22     	; 0x4bf0 <ldexp+0x72>
    4c06:	df 93       	push	r29
    4c08:	cf 93       	push	r28
    4c0a:	1f 93       	push	r17
    4c0c:	0f 93       	push	r16
    4c0e:	ff 92       	push	r15
    4c10:	c9 2f       	mov	r28, r25
    4c12:	dd 27       	eor	r29, r29
    4c14:	88 23       	and	r24, r24
    4c16:	2a f0       	brmi	.+10     	; 0x4c22 <log+0x28>
    4c18:	21 97       	sbiw	r28, 0x01	; 1
    4c1a:	66 0f       	add	r22, r22
    4c1c:	77 1f       	adc	r23, r23
    4c1e:	88 1f       	adc	r24, r24
    4c20:	da f7       	brpl	.-10     	; 0x4c18 <log+0x1e>
    4c22:	20 e0       	ldi	r18, 0x00	; 0
    4c24:	30 e0       	ldi	r19, 0x00	; 0
    4c26:	40 e8       	ldi	r20, 0x80	; 128
    4c28:	5f eb       	ldi	r21, 0xBF	; 191
    4c2a:	9f e3       	ldi	r25, 0x3F	; 63
    4c2c:	88 39       	cpi	r24, 0x98	; 152
    4c2e:	20 f0       	brcs	.+8      	; 0x4c38 <log+0x3e>
    4c30:	80 3e       	cpi	r24, 0xE0	; 224
    4c32:	38 f0       	brcs	.+14     	; 0x4c42 <log+0x48>
    4c34:	21 96       	adiw	r28, 0x01	; 1
    4c36:	8f 77       	andi	r24, 0x7F	; 127
    4c38:	0e 94 fb 22 	call	0x45f6	; 0x45f6 <__addsf3>
    4c3c:	ec e5       	ldi	r30, 0x5C	; 92
    4c3e:	f1 e0       	ldi	r31, 0x01	; 1
    4c40:	04 c0       	rjmp	.+8      	; 0x4c4a <log+0x50>
    4c42:	0e 94 fb 22 	call	0x45f6	; 0x45f6 <__addsf3>
    4c46:	e9 e8       	ldi	r30, 0x89	; 137
    4c48:	f1 e0       	ldi	r31, 0x01	; 1
    4c4a:	0e 94 8c 25 	call	0x4b18	; 0x4b18 <__fp_powser>
    4c4e:	8b 01       	movw	r16, r22
    4c50:	be 01       	movw	r22, r28
    4c52:	ec 01       	movw	r28, r24
    4c54:	fb 2e       	mov	r15, r27
    4c56:	6f 57       	subi	r22, 0x7F	; 127
    4c58:	71 09       	sbc	r23, r1
    4c5a:	75 95       	asr	r23
    4c5c:	77 1f       	adc	r23, r23
    4c5e:	88 0b       	sbc	r24, r24
    4c60:	99 0b       	sbc	r25, r25
    4c62:	0e 94 e0 23 	call	0x47c0	; 0x47c0 <__floatsisf>
    4c66:	28 e1       	ldi	r18, 0x18	; 24
    4c68:	32 e7       	ldi	r19, 0x72	; 114
    4c6a:	41 e3       	ldi	r20, 0x31	; 49
    4c6c:	5f e3       	ldi	r21, 0x3F	; 63
    4c6e:	0e 94 a8 24 	call	0x4950	; 0x4950 <__mulsf3x>
    4c72:	af 2d       	mov	r26, r15
    4c74:	98 01       	movw	r18, r16
    4c76:	ae 01       	movw	r20, r28
    4c78:	ff 90       	pop	r15
    4c7a:	0f 91       	pop	r16
    4c7c:	1f 91       	pop	r17
    4c7e:	cf 91       	pop	r28
    4c80:	df 91       	pop	r29
    4c82:	0e 94 12 23 	call	0x4624	; 0x4624 <__addsf3x>
    4c86:	0c 94 56 24 	jmp	0x48ac	; 0x48ac <__fp_round>

00004c8a <modf>:
    4c8a:	fa 01       	movw	r30, r20
    4c8c:	dc 01       	movw	r26, r24
    4c8e:	aa 0f       	add	r26, r26
    4c90:	bb 1f       	adc	r27, r27
    4c92:	9b 01       	movw	r18, r22
    4c94:	ac 01       	movw	r20, r24
    4c96:	bf 57       	subi	r27, 0x7F	; 127
    4c98:	28 f4       	brcc	.+10     	; 0x4ca4 <modf+0x1a>
    4c9a:	22 27       	eor	r18, r18
    4c9c:	33 27       	eor	r19, r19
    4c9e:	44 27       	eor	r20, r20
    4ca0:	50 78       	andi	r21, 0x80	; 128
    4ca2:	20 c0       	rjmp	.+64     	; 0x4ce4 <modf+0x5a>
    4ca4:	b7 51       	subi	r27, 0x17	; 23
    4ca6:	90 f4       	brcc	.+36     	; 0x4ccc <modf+0x42>
    4ca8:	ab 2f       	mov	r26, r27
    4caa:	00 24       	eor	r0, r0
    4cac:	46 95       	lsr	r20
    4cae:	37 95       	ror	r19
    4cb0:	27 95       	ror	r18
    4cb2:	01 1c       	adc	r0, r1
    4cb4:	a3 95       	inc	r26
    4cb6:	d2 f3       	brmi	.-12     	; 0x4cac <modf+0x22>
    4cb8:	00 20       	and	r0, r0
    4cba:	71 f0       	breq	.+28     	; 0x4cd8 <modf+0x4e>
    4cbc:	22 0f       	add	r18, r18
    4cbe:	33 1f       	adc	r19, r19
    4cc0:	44 1f       	adc	r20, r20
    4cc2:	b3 95       	inc	r27
    4cc4:	da f3       	brmi	.-10     	; 0x4cbc <modf+0x32>
    4cc6:	0e d0       	rcall	.+28     	; 0x4ce4 <modf+0x5a>
    4cc8:	0c 94 fa 22 	jmp	0x45f4	; 0x45f4 <__subsf3>
    4ccc:	61 30       	cpi	r22, 0x01	; 1
    4cce:	71 05       	cpc	r23, r1
    4cd0:	a0 e8       	ldi	r26, 0x80	; 128
    4cd2:	8a 07       	cpc	r24, r26
    4cd4:	b9 46       	sbci	r27, 0x69	; 105
    4cd6:	30 f4       	brcc	.+12     	; 0x4ce4 <modf+0x5a>
    4cd8:	9b 01       	movw	r18, r22
    4cda:	ac 01       	movw	r20, r24
    4cdc:	66 27       	eor	r22, r22
    4cde:	77 27       	eor	r23, r23
    4ce0:	88 27       	eor	r24, r24
    4ce2:	90 78       	andi	r25, 0x80	; 128
    4ce4:	30 96       	adiw	r30, 0x00	; 0
    4ce6:	21 f0       	breq	.+8      	; 0x4cf0 <modf+0x66>
    4ce8:	20 83       	st	Z, r18
    4cea:	31 83       	std	Z+1, r19	; 0x01
    4cec:	42 83       	std	Z+2, r20	; 0x02
    4cee:	53 83       	std	Z+3, r21	; 0x03
    4cf0:	08 95       	ret

00004cf2 <__fp_mpack>:
    4cf2:	9f 3f       	cpi	r25, 0xFF	; 255
    4cf4:	31 f0       	breq	.+12     	; 0x4d02 <__fp_mpack_finite+0xc>

00004cf6 <__fp_mpack_finite>:
    4cf6:	91 50       	subi	r25, 0x01	; 1
    4cf8:	20 f4       	brcc	.+8      	; 0x4d02 <__fp_mpack_finite+0xc>
    4cfa:	87 95       	ror	r24
    4cfc:	77 95       	ror	r23
    4cfe:	67 95       	ror	r22
    4d00:	b7 95       	ror	r27
    4d02:	88 0f       	add	r24, r24
    4d04:	91 1d       	adc	r25, r1
    4d06:	96 95       	lsr	r25
    4d08:	87 95       	ror	r24
    4d0a:	97 f9       	bld	r25, 7
    4d0c:	08 95       	ret

00004d0e <vfprintf>:
    4d0e:	a0 e1       	ldi	r26, 0x10	; 16
    4d10:	b0 e0       	ldi	r27, 0x00	; 0
    4d12:	ed e8       	ldi	r30, 0x8D	; 141
    4d14:	f6 e2       	ldi	r31, 0x26	; 38
    4d16:	0c 94 0a 2a 	jmp	0x5414	; 0x5414 <__prologue_saves__>
    4d1a:	7c 01       	movw	r14, r24
    4d1c:	1b 01       	movw	r2, r22
    4d1e:	6a 01       	movw	r12, r20
    4d20:	fc 01       	movw	r30, r24
    4d22:	17 82       	std	Z+7, r1	; 0x07
    4d24:	16 82       	std	Z+6, r1	; 0x06
    4d26:	83 81       	ldd	r24, Z+3	; 0x03
    4d28:	81 ff       	sbrs	r24, 1
    4d2a:	44 c3       	rjmp	.+1672   	; 0x53b4 <vfprintf+0x6a6>
    4d2c:	9e 01       	movw	r18, r28
    4d2e:	2f 5f       	subi	r18, 0xFF	; 255
    4d30:	3f 4f       	sbci	r19, 0xFF	; 255
    4d32:	39 01       	movw	r6, r18
    4d34:	f7 01       	movw	r30, r14
    4d36:	93 81       	ldd	r25, Z+3	; 0x03
    4d38:	f1 01       	movw	r30, r2
    4d3a:	93 fd       	sbrc	r25, 3
    4d3c:	85 91       	lpm	r24, Z+
    4d3e:	93 ff       	sbrs	r25, 3
    4d40:	81 91       	ld	r24, Z+
    4d42:	1f 01       	movw	r2, r30
    4d44:	88 23       	and	r24, r24
    4d46:	09 f4       	brne	.+2      	; 0x4d4a <vfprintf+0x3c>
    4d48:	31 c3       	rjmp	.+1634   	; 0x53ac <vfprintf+0x69e>
    4d4a:	85 32       	cpi	r24, 0x25	; 37
    4d4c:	39 f4       	brne	.+14     	; 0x4d5c <vfprintf+0x4e>
    4d4e:	93 fd       	sbrc	r25, 3
    4d50:	85 91       	lpm	r24, Z+
    4d52:	93 ff       	sbrs	r25, 3
    4d54:	81 91       	ld	r24, Z+
    4d56:	1f 01       	movw	r2, r30
    4d58:	85 32       	cpi	r24, 0x25	; 37
    4d5a:	39 f4       	brne	.+14     	; 0x4d6a <vfprintf+0x5c>
    4d5c:	b7 01       	movw	r22, r14
    4d5e:	90 e0       	ldi	r25, 0x00	; 0
    4d60:	0e 94 46 2b 	call	0x568c	; 0x568c <fputc>
    4d64:	56 01       	movw	r10, r12
    4d66:	65 01       	movw	r12, r10
    4d68:	e5 cf       	rjmp	.-54     	; 0x4d34 <vfprintf+0x26>
    4d6a:	10 e0       	ldi	r17, 0x00	; 0
    4d6c:	51 2c       	mov	r5, r1
    4d6e:	91 2c       	mov	r9, r1
    4d70:	ff e1       	ldi	r31, 0x1F	; 31
    4d72:	f9 15       	cp	r31, r9
    4d74:	d8 f0       	brcs	.+54     	; 0x4dac <vfprintf+0x9e>
    4d76:	8b 32       	cpi	r24, 0x2B	; 43
    4d78:	79 f0       	breq	.+30     	; 0x4d98 <vfprintf+0x8a>
    4d7a:	38 f4       	brcc	.+14     	; 0x4d8a <vfprintf+0x7c>
    4d7c:	80 32       	cpi	r24, 0x20	; 32
    4d7e:	79 f0       	breq	.+30     	; 0x4d9e <vfprintf+0x90>
    4d80:	83 32       	cpi	r24, 0x23	; 35
    4d82:	a1 f4       	brne	.+40     	; 0x4dac <vfprintf+0x9e>
    4d84:	f9 2d       	mov	r31, r9
    4d86:	f0 61       	ori	r31, 0x10	; 16
    4d88:	2e c0       	rjmp	.+92     	; 0x4de6 <vfprintf+0xd8>
    4d8a:	8d 32       	cpi	r24, 0x2D	; 45
    4d8c:	61 f0       	breq	.+24     	; 0x4da6 <vfprintf+0x98>
    4d8e:	80 33       	cpi	r24, 0x30	; 48
    4d90:	69 f4       	brne	.+26     	; 0x4dac <vfprintf+0x9e>
    4d92:	29 2d       	mov	r18, r9
    4d94:	21 60       	ori	r18, 0x01	; 1
    4d96:	2d c0       	rjmp	.+90     	; 0x4df2 <vfprintf+0xe4>
    4d98:	39 2d       	mov	r19, r9
    4d9a:	32 60       	ori	r19, 0x02	; 2
    4d9c:	93 2e       	mov	r9, r19
    4d9e:	89 2d       	mov	r24, r9
    4da0:	84 60       	ori	r24, 0x04	; 4
    4da2:	98 2e       	mov	r9, r24
    4da4:	2a c0       	rjmp	.+84     	; 0x4dfa <vfprintf+0xec>
    4da6:	e9 2d       	mov	r30, r9
    4da8:	e8 60       	ori	r30, 0x08	; 8
    4daa:	15 c0       	rjmp	.+42     	; 0x4dd6 <vfprintf+0xc8>
    4dac:	97 fc       	sbrc	r9, 7
    4dae:	2d c0       	rjmp	.+90     	; 0x4e0a <vfprintf+0xfc>
    4db0:	20 ed       	ldi	r18, 0xD0	; 208
    4db2:	28 0f       	add	r18, r24
    4db4:	2a 30       	cpi	r18, 0x0A	; 10
    4db6:	88 f4       	brcc	.+34     	; 0x4dda <vfprintf+0xcc>
    4db8:	96 fe       	sbrs	r9, 6
    4dba:	06 c0       	rjmp	.+12     	; 0x4dc8 <vfprintf+0xba>
    4dbc:	3a e0       	ldi	r19, 0x0A	; 10
    4dbe:	13 9f       	mul	r17, r19
    4dc0:	20 0d       	add	r18, r0
    4dc2:	11 24       	eor	r1, r1
    4dc4:	12 2f       	mov	r17, r18
    4dc6:	19 c0       	rjmp	.+50     	; 0x4dfa <vfprintf+0xec>
    4dc8:	8a e0       	ldi	r24, 0x0A	; 10
    4dca:	58 9e       	mul	r5, r24
    4dcc:	20 0d       	add	r18, r0
    4dce:	11 24       	eor	r1, r1
    4dd0:	52 2e       	mov	r5, r18
    4dd2:	e9 2d       	mov	r30, r9
    4dd4:	e0 62       	ori	r30, 0x20	; 32
    4dd6:	9e 2e       	mov	r9, r30
    4dd8:	10 c0       	rjmp	.+32     	; 0x4dfa <vfprintf+0xec>
    4dda:	8e 32       	cpi	r24, 0x2E	; 46
    4ddc:	31 f4       	brne	.+12     	; 0x4dea <vfprintf+0xdc>
    4dde:	96 fc       	sbrc	r9, 6
    4de0:	e5 c2       	rjmp	.+1482   	; 0x53ac <vfprintf+0x69e>
    4de2:	f9 2d       	mov	r31, r9
    4de4:	f0 64       	ori	r31, 0x40	; 64
    4de6:	9f 2e       	mov	r9, r31
    4de8:	08 c0       	rjmp	.+16     	; 0x4dfa <vfprintf+0xec>
    4dea:	8c 36       	cpi	r24, 0x6C	; 108
    4dec:	21 f4       	brne	.+8      	; 0x4df6 <vfprintf+0xe8>
    4dee:	29 2d       	mov	r18, r9
    4df0:	20 68       	ori	r18, 0x80	; 128
    4df2:	92 2e       	mov	r9, r18
    4df4:	02 c0       	rjmp	.+4      	; 0x4dfa <vfprintf+0xec>
    4df6:	88 36       	cpi	r24, 0x68	; 104
    4df8:	41 f4       	brne	.+16     	; 0x4e0a <vfprintf+0xfc>
    4dfa:	f1 01       	movw	r30, r2
    4dfc:	93 fd       	sbrc	r25, 3
    4dfe:	85 91       	lpm	r24, Z+
    4e00:	93 ff       	sbrs	r25, 3
    4e02:	81 91       	ld	r24, Z+
    4e04:	1f 01       	movw	r2, r30
    4e06:	81 11       	cpse	r24, r1
    4e08:	b3 cf       	rjmp	.-154    	; 0x4d70 <vfprintf+0x62>
    4e0a:	9b eb       	ldi	r25, 0xBB	; 187
    4e0c:	98 0f       	add	r25, r24
    4e0e:	93 30       	cpi	r25, 0x03	; 3
    4e10:	20 f4       	brcc	.+8      	; 0x4e1a <vfprintf+0x10c>
    4e12:	99 2d       	mov	r25, r9
    4e14:	90 61       	ori	r25, 0x10	; 16
    4e16:	80 5e       	subi	r24, 0xE0	; 224
    4e18:	07 c0       	rjmp	.+14     	; 0x4e28 <vfprintf+0x11a>
    4e1a:	9b e9       	ldi	r25, 0x9B	; 155
    4e1c:	98 0f       	add	r25, r24
    4e1e:	93 30       	cpi	r25, 0x03	; 3
    4e20:	08 f0       	brcs	.+2      	; 0x4e24 <vfprintf+0x116>
    4e22:	66 c1       	rjmp	.+716    	; 0x50f0 <vfprintf+0x3e2>
    4e24:	99 2d       	mov	r25, r9
    4e26:	9f 7e       	andi	r25, 0xEF	; 239
    4e28:	96 ff       	sbrs	r25, 6
    4e2a:	16 e0       	ldi	r17, 0x06	; 6
    4e2c:	9f 73       	andi	r25, 0x3F	; 63
    4e2e:	99 2e       	mov	r9, r25
    4e30:	85 36       	cpi	r24, 0x65	; 101
    4e32:	19 f4       	brne	.+6      	; 0x4e3a <vfprintf+0x12c>
    4e34:	90 64       	ori	r25, 0x40	; 64
    4e36:	99 2e       	mov	r9, r25
    4e38:	08 c0       	rjmp	.+16     	; 0x4e4a <vfprintf+0x13c>
    4e3a:	86 36       	cpi	r24, 0x66	; 102
    4e3c:	21 f4       	brne	.+8      	; 0x4e46 <vfprintf+0x138>
    4e3e:	39 2f       	mov	r19, r25
    4e40:	30 68       	ori	r19, 0x80	; 128
    4e42:	93 2e       	mov	r9, r19
    4e44:	02 c0       	rjmp	.+4      	; 0x4e4a <vfprintf+0x13c>
    4e46:	11 11       	cpse	r17, r1
    4e48:	11 50       	subi	r17, 0x01	; 1
    4e4a:	97 fe       	sbrs	r9, 7
    4e4c:	07 c0       	rjmp	.+14     	; 0x4e5c <vfprintf+0x14e>
    4e4e:	1c 33       	cpi	r17, 0x3C	; 60
    4e50:	50 f4       	brcc	.+20     	; 0x4e66 <vfprintf+0x158>
    4e52:	44 24       	eor	r4, r4
    4e54:	43 94       	inc	r4
    4e56:	41 0e       	add	r4, r17
    4e58:	27 e0       	ldi	r18, 0x07	; 7
    4e5a:	0b c0       	rjmp	.+22     	; 0x4e72 <vfprintf+0x164>
    4e5c:	18 30       	cpi	r17, 0x08	; 8
    4e5e:	38 f0       	brcs	.+14     	; 0x4e6e <vfprintf+0x160>
    4e60:	27 e0       	ldi	r18, 0x07	; 7
    4e62:	17 e0       	ldi	r17, 0x07	; 7
    4e64:	05 c0       	rjmp	.+10     	; 0x4e70 <vfprintf+0x162>
    4e66:	27 e0       	ldi	r18, 0x07	; 7
    4e68:	9c e3       	ldi	r25, 0x3C	; 60
    4e6a:	49 2e       	mov	r4, r25
    4e6c:	02 c0       	rjmp	.+4      	; 0x4e72 <vfprintf+0x164>
    4e6e:	21 2f       	mov	r18, r17
    4e70:	41 2c       	mov	r4, r1
    4e72:	56 01       	movw	r10, r12
    4e74:	84 e0       	ldi	r24, 0x04	; 4
    4e76:	a8 0e       	add	r10, r24
    4e78:	b1 1c       	adc	r11, r1
    4e7a:	f6 01       	movw	r30, r12
    4e7c:	60 81       	ld	r22, Z
    4e7e:	71 81       	ldd	r23, Z+1	; 0x01
    4e80:	82 81       	ldd	r24, Z+2	; 0x02
    4e82:	93 81       	ldd	r25, Z+3	; 0x03
    4e84:	04 2d       	mov	r16, r4
    4e86:	a3 01       	movw	r20, r6
    4e88:	0e 94 41 2a 	call	0x5482	; 0x5482 <__ftoa_engine>
    4e8c:	6c 01       	movw	r12, r24
    4e8e:	f9 81       	ldd	r31, Y+1	; 0x01
    4e90:	fc 87       	std	Y+12, r31	; 0x0c
    4e92:	f0 ff       	sbrs	r31, 0
    4e94:	02 c0       	rjmp	.+4      	; 0x4e9a <vfprintf+0x18c>
    4e96:	f3 ff       	sbrs	r31, 3
    4e98:	06 c0       	rjmp	.+12     	; 0x4ea6 <vfprintf+0x198>
    4e9a:	91 fc       	sbrc	r9, 1
    4e9c:	06 c0       	rjmp	.+12     	; 0x4eaa <vfprintf+0x19c>
    4e9e:	92 fe       	sbrs	r9, 2
    4ea0:	06 c0       	rjmp	.+12     	; 0x4eae <vfprintf+0x1a0>
    4ea2:	00 e2       	ldi	r16, 0x20	; 32
    4ea4:	05 c0       	rjmp	.+10     	; 0x4eb0 <vfprintf+0x1a2>
    4ea6:	0d e2       	ldi	r16, 0x2D	; 45
    4ea8:	03 c0       	rjmp	.+6      	; 0x4eb0 <vfprintf+0x1a2>
    4eaa:	0b e2       	ldi	r16, 0x2B	; 43
    4eac:	01 c0       	rjmp	.+2      	; 0x4eb0 <vfprintf+0x1a2>
    4eae:	00 e0       	ldi	r16, 0x00	; 0
    4eb0:	8c 85       	ldd	r24, Y+12	; 0x0c
    4eb2:	8c 70       	andi	r24, 0x0C	; 12
    4eb4:	19 f0       	breq	.+6      	; 0x4ebc <vfprintf+0x1ae>
    4eb6:	01 11       	cpse	r16, r1
    4eb8:	5a c2       	rjmp	.+1204   	; 0x536e <vfprintf+0x660>
    4eba:	9b c2       	rjmp	.+1334   	; 0x53f2 <vfprintf+0x6e4>
    4ebc:	97 fe       	sbrs	r9, 7
    4ebe:	10 c0       	rjmp	.+32     	; 0x4ee0 <vfprintf+0x1d2>
    4ec0:	4c 0c       	add	r4, r12
    4ec2:	fc 85       	ldd	r31, Y+12	; 0x0c
    4ec4:	f4 ff       	sbrs	r31, 4
    4ec6:	04 c0       	rjmp	.+8      	; 0x4ed0 <vfprintf+0x1c2>
    4ec8:	8a 81       	ldd	r24, Y+2	; 0x02
    4eca:	81 33       	cpi	r24, 0x31	; 49
    4ecc:	09 f4       	brne	.+2      	; 0x4ed0 <vfprintf+0x1c2>
    4ece:	4a 94       	dec	r4
    4ed0:	14 14       	cp	r1, r4
    4ed2:	74 f5       	brge	.+92     	; 0x4f30 <vfprintf+0x222>
    4ed4:	28 e0       	ldi	r18, 0x08	; 8
    4ed6:	24 15       	cp	r18, r4
    4ed8:	78 f5       	brcc	.+94     	; 0x4f38 <vfprintf+0x22a>
    4eda:	88 e0       	ldi	r24, 0x08	; 8
    4edc:	48 2e       	mov	r4, r24
    4ede:	2c c0       	rjmp	.+88     	; 0x4f38 <vfprintf+0x22a>
    4ee0:	96 fc       	sbrc	r9, 6
    4ee2:	2a c0       	rjmp	.+84     	; 0x4f38 <vfprintf+0x22a>
    4ee4:	81 2f       	mov	r24, r17
    4ee6:	90 e0       	ldi	r25, 0x00	; 0
    4ee8:	8c 15       	cp	r24, r12
    4eea:	9d 05       	cpc	r25, r13
    4eec:	9c f0       	brlt	.+38     	; 0x4f14 <vfprintf+0x206>
    4eee:	3c ef       	ldi	r19, 0xFC	; 252
    4ef0:	c3 16       	cp	r12, r19
    4ef2:	3f ef       	ldi	r19, 0xFF	; 255
    4ef4:	d3 06       	cpc	r13, r19
    4ef6:	74 f0       	brlt	.+28     	; 0x4f14 <vfprintf+0x206>
    4ef8:	89 2d       	mov	r24, r9
    4efa:	80 68       	ori	r24, 0x80	; 128
    4efc:	98 2e       	mov	r9, r24
    4efe:	0a c0       	rjmp	.+20     	; 0x4f14 <vfprintf+0x206>
    4f00:	e2 e0       	ldi	r30, 0x02	; 2
    4f02:	f0 e0       	ldi	r31, 0x00	; 0
    4f04:	ec 0f       	add	r30, r28
    4f06:	fd 1f       	adc	r31, r29
    4f08:	e1 0f       	add	r30, r17
    4f0a:	f1 1d       	adc	r31, r1
    4f0c:	80 81       	ld	r24, Z
    4f0e:	80 33       	cpi	r24, 0x30	; 48
    4f10:	19 f4       	brne	.+6      	; 0x4f18 <vfprintf+0x20a>
    4f12:	11 50       	subi	r17, 0x01	; 1
    4f14:	11 11       	cpse	r17, r1
    4f16:	f4 cf       	rjmp	.-24     	; 0x4f00 <vfprintf+0x1f2>
    4f18:	97 fe       	sbrs	r9, 7
    4f1a:	0e c0       	rjmp	.+28     	; 0x4f38 <vfprintf+0x22a>
    4f1c:	44 24       	eor	r4, r4
    4f1e:	43 94       	inc	r4
    4f20:	41 0e       	add	r4, r17
    4f22:	81 2f       	mov	r24, r17
    4f24:	90 e0       	ldi	r25, 0x00	; 0
    4f26:	c8 16       	cp	r12, r24
    4f28:	d9 06       	cpc	r13, r25
    4f2a:	2c f4       	brge	.+10     	; 0x4f36 <vfprintf+0x228>
    4f2c:	1c 19       	sub	r17, r12
    4f2e:	04 c0       	rjmp	.+8      	; 0x4f38 <vfprintf+0x22a>
    4f30:	44 24       	eor	r4, r4
    4f32:	43 94       	inc	r4
    4f34:	01 c0       	rjmp	.+2      	; 0x4f38 <vfprintf+0x22a>
    4f36:	10 e0       	ldi	r17, 0x00	; 0
    4f38:	97 fe       	sbrs	r9, 7
    4f3a:	06 c0       	rjmp	.+12     	; 0x4f48 <vfprintf+0x23a>
    4f3c:	1c 14       	cp	r1, r12
    4f3e:	1d 04       	cpc	r1, r13
    4f40:	34 f4       	brge	.+12     	; 0x4f4e <vfprintf+0x240>
    4f42:	c6 01       	movw	r24, r12
    4f44:	01 96       	adiw	r24, 0x01	; 1
    4f46:	05 c0       	rjmp	.+10     	; 0x4f52 <vfprintf+0x244>
    4f48:	85 e0       	ldi	r24, 0x05	; 5
    4f4a:	90 e0       	ldi	r25, 0x00	; 0
    4f4c:	02 c0       	rjmp	.+4      	; 0x4f52 <vfprintf+0x244>
    4f4e:	81 e0       	ldi	r24, 0x01	; 1
    4f50:	90 e0       	ldi	r25, 0x00	; 0
    4f52:	01 11       	cpse	r16, r1
    4f54:	01 96       	adiw	r24, 0x01	; 1
    4f56:	11 23       	and	r17, r17
    4f58:	31 f0       	breq	.+12     	; 0x4f66 <vfprintf+0x258>
    4f5a:	21 2f       	mov	r18, r17
    4f5c:	30 e0       	ldi	r19, 0x00	; 0
    4f5e:	2f 5f       	subi	r18, 0xFF	; 255
    4f60:	3f 4f       	sbci	r19, 0xFF	; 255
    4f62:	82 0f       	add	r24, r18
    4f64:	93 1f       	adc	r25, r19
    4f66:	25 2d       	mov	r18, r5
    4f68:	30 e0       	ldi	r19, 0x00	; 0
    4f6a:	82 17       	cp	r24, r18
    4f6c:	93 07       	cpc	r25, r19
    4f6e:	14 f4       	brge	.+4      	; 0x4f74 <vfprintf+0x266>
    4f70:	58 1a       	sub	r5, r24
    4f72:	01 c0       	rjmp	.+2      	; 0x4f76 <vfprintf+0x268>
    4f74:	51 2c       	mov	r5, r1
    4f76:	89 2d       	mov	r24, r9
    4f78:	89 70       	andi	r24, 0x09	; 9
    4f7a:	49 f4       	brne	.+18     	; 0x4f8e <vfprintf+0x280>
    4f7c:	55 20       	and	r5, r5
    4f7e:	39 f0       	breq	.+14     	; 0x4f8e <vfprintf+0x280>
    4f80:	b7 01       	movw	r22, r14
    4f82:	80 e2       	ldi	r24, 0x20	; 32
    4f84:	90 e0       	ldi	r25, 0x00	; 0
    4f86:	0e 94 46 2b 	call	0x568c	; 0x568c <fputc>
    4f8a:	5a 94       	dec	r5
    4f8c:	f7 cf       	rjmp	.-18     	; 0x4f7c <vfprintf+0x26e>
    4f8e:	00 23       	and	r16, r16
    4f90:	29 f0       	breq	.+10     	; 0x4f9c <vfprintf+0x28e>
    4f92:	b7 01       	movw	r22, r14
    4f94:	80 2f       	mov	r24, r16
    4f96:	90 e0       	ldi	r25, 0x00	; 0
    4f98:	0e 94 46 2b 	call	0x568c	; 0x568c <fputc>
    4f9c:	93 fc       	sbrc	r9, 3
    4f9e:	09 c0       	rjmp	.+18     	; 0x4fb2 <vfprintf+0x2a4>
    4fa0:	55 20       	and	r5, r5
    4fa2:	39 f0       	breq	.+14     	; 0x4fb2 <vfprintf+0x2a4>
    4fa4:	b7 01       	movw	r22, r14
    4fa6:	80 e3       	ldi	r24, 0x30	; 48
    4fa8:	90 e0       	ldi	r25, 0x00	; 0
    4faa:	0e 94 46 2b 	call	0x568c	; 0x568c <fputc>
    4fae:	5a 94       	dec	r5
    4fb0:	f7 cf       	rjmp	.-18     	; 0x4fa0 <vfprintf+0x292>
    4fb2:	97 fe       	sbrs	r9, 7
    4fb4:	4c c0       	rjmp	.+152    	; 0x504e <vfprintf+0x340>
    4fb6:	46 01       	movw	r8, r12
    4fb8:	d7 fe       	sbrs	r13, 7
    4fba:	02 c0       	rjmp	.+4      	; 0x4fc0 <vfprintf+0x2b2>
    4fbc:	81 2c       	mov	r8, r1
    4fbe:	91 2c       	mov	r9, r1
    4fc0:	c6 01       	movw	r24, r12
    4fc2:	88 19       	sub	r24, r8
    4fc4:	99 09       	sbc	r25, r9
    4fc6:	f3 01       	movw	r30, r6
    4fc8:	e8 0f       	add	r30, r24
    4fca:	f9 1f       	adc	r31, r25
    4fcc:	fe 87       	std	Y+14, r31	; 0x0e
    4fce:	ed 87       	std	Y+13, r30	; 0x0d
    4fd0:	96 01       	movw	r18, r12
    4fd2:	24 19       	sub	r18, r4
    4fd4:	31 09       	sbc	r19, r1
    4fd6:	38 8b       	std	Y+16, r19	; 0x10
    4fd8:	2f 87       	std	Y+15, r18	; 0x0f
    4fda:	01 2f       	mov	r16, r17
    4fdc:	10 e0       	ldi	r17, 0x00	; 0
    4fde:	11 95       	neg	r17
    4fe0:	01 95       	neg	r16
    4fe2:	11 09       	sbc	r17, r1
    4fe4:	3f ef       	ldi	r19, 0xFF	; 255
    4fe6:	83 16       	cp	r8, r19
    4fe8:	93 06       	cpc	r9, r19
    4fea:	29 f4       	brne	.+10     	; 0x4ff6 <vfprintf+0x2e8>
    4fec:	b7 01       	movw	r22, r14
    4fee:	8e e2       	ldi	r24, 0x2E	; 46
    4ff0:	90 e0       	ldi	r25, 0x00	; 0
    4ff2:	0e 94 46 2b 	call	0x568c	; 0x568c <fputc>
    4ff6:	c8 14       	cp	r12, r8
    4ff8:	d9 04       	cpc	r13, r9
    4ffa:	4c f0       	brlt	.+18     	; 0x500e <vfprintf+0x300>
    4ffc:	8f 85       	ldd	r24, Y+15	; 0x0f
    4ffe:	98 89       	ldd	r25, Y+16	; 0x10
    5000:	88 15       	cp	r24, r8
    5002:	99 05       	cpc	r25, r9
    5004:	24 f4       	brge	.+8      	; 0x500e <vfprintf+0x300>
    5006:	ed 85       	ldd	r30, Y+13	; 0x0d
    5008:	fe 85       	ldd	r31, Y+14	; 0x0e
    500a:	81 81       	ldd	r24, Z+1	; 0x01
    500c:	01 c0       	rjmp	.+2      	; 0x5010 <vfprintf+0x302>
    500e:	80 e3       	ldi	r24, 0x30	; 48
    5010:	f1 e0       	ldi	r31, 0x01	; 1
    5012:	8f 1a       	sub	r8, r31
    5014:	91 08       	sbc	r9, r1
    5016:	2d 85       	ldd	r18, Y+13	; 0x0d
    5018:	3e 85       	ldd	r19, Y+14	; 0x0e
    501a:	2f 5f       	subi	r18, 0xFF	; 255
    501c:	3f 4f       	sbci	r19, 0xFF	; 255
    501e:	3e 87       	std	Y+14, r19	; 0x0e
    5020:	2d 87       	std	Y+13, r18	; 0x0d
    5022:	80 16       	cp	r8, r16
    5024:	91 06       	cpc	r9, r17
    5026:	2c f0       	brlt	.+10     	; 0x5032 <vfprintf+0x324>
    5028:	b7 01       	movw	r22, r14
    502a:	90 e0       	ldi	r25, 0x00	; 0
    502c:	0e 94 46 2b 	call	0x568c	; 0x568c <fputc>
    5030:	d9 cf       	rjmp	.-78     	; 0x4fe4 <vfprintf+0x2d6>
    5032:	c8 14       	cp	r12, r8
    5034:	d9 04       	cpc	r13, r9
    5036:	41 f4       	brne	.+16     	; 0x5048 <vfprintf+0x33a>
    5038:	9a 81       	ldd	r25, Y+2	; 0x02
    503a:	96 33       	cpi	r25, 0x36	; 54
    503c:	20 f4       	brcc	.+8      	; 0x5046 <vfprintf+0x338>
    503e:	95 33       	cpi	r25, 0x35	; 53
    5040:	19 f4       	brne	.+6      	; 0x5048 <vfprintf+0x33a>
    5042:	3c 85       	ldd	r19, Y+12	; 0x0c
    5044:	34 ff       	sbrs	r19, 4
    5046:	81 e3       	ldi	r24, 0x31	; 49
    5048:	b7 01       	movw	r22, r14
    504a:	90 e0       	ldi	r25, 0x00	; 0
    504c:	4e c0       	rjmp	.+156    	; 0x50ea <vfprintf+0x3dc>
    504e:	8a 81       	ldd	r24, Y+2	; 0x02
    5050:	81 33       	cpi	r24, 0x31	; 49
    5052:	19 f0       	breq	.+6      	; 0x505a <vfprintf+0x34c>
    5054:	9c 85       	ldd	r25, Y+12	; 0x0c
    5056:	9f 7e       	andi	r25, 0xEF	; 239
    5058:	9c 87       	std	Y+12, r25	; 0x0c
    505a:	b7 01       	movw	r22, r14
    505c:	90 e0       	ldi	r25, 0x00	; 0
    505e:	0e 94 46 2b 	call	0x568c	; 0x568c <fputc>
    5062:	11 11       	cpse	r17, r1
    5064:	05 c0       	rjmp	.+10     	; 0x5070 <vfprintf+0x362>
    5066:	94 fc       	sbrc	r9, 4
    5068:	18 c0       	rjmp	.+48     	; 0x509a <vfprintf+0x38c>
    506a:	85 e6       	ldi	r24, 0x65	; 101
    506c:	90 e0       	ldi	r25, 0x00	; 0
    506e:	17 c0       	rjmp	.+46     	; 0x509e <vfprintf+0x390>
    5070:	b7 01       	movw	r22, r14
    5072:	8e e2       	ldi	r24, 0x2E	; 46
    5074:	90 e0       	ldi	r25, 0x00	; 0
    5076:	0e 94 46 2b 	call	0x568c	; 0x568c <fputc>
    507a:	1e 5f       	subi	r17, 0xFE	; 254
    507c:	82 e0       	ldi	r24, 0x02	; 2
    507e:	01 e0       	ldi	r16, 0x01	; 1
    5080:	08 0f       	add	r16, r24
    5082:	f3 01       	movw	r30, r6
    5084:	e8 0f       	add	r30, r24
    5086:	f1 1d       	adc	r31, r1
    5088:	80 81       	ld	r24, Z
    508a:	b7 01       	movw	r22, r14
    508c:	90 e0       	ldi	r25, 0x00	; 0
    508e:	0e 94 46 2b 	call	0x568c	; 0x568c <fputc>
    5092:	80 2f       	mov	r24, r16
    5094:	01 13       	cpse	r16, r17
    5096:	f3 cf       	rjmp	.-26     	; 0x507e <vfprintf+0x370>
    5098:	e6 cf       	rjmp	.-52     	; 0x5066 <vfprintf+0x358>
    509a:	85 e4       	ldi	r24, 0x45	; 69
    509c:	90 e0       	ldi	r25, 0x00	; 0
    509e:	b7 01       	movw	r22, r14
    50a0:	0e 94 46 2b 	call	0x568c	; 0x568c <fputc>
    50a4:	d7 fc       	sbrc	r13, 7
    50a6:	06 c0       	rjmp	.+12     	; 0x50b4 <vfprintf+0x3a6>
    50a8:	c1 14       	cp	r12, r1
    50aa:	d1 04       	cpc	r13, r1
    50ac:	41 f4       	brne	.+16     	; 0x50be <vfprintf+0x3b0>
    50ae:	ec 85       	ldd	r30, Y+12	; 0x0c
    50b0:	e4 ff       	sbrs	r30, 4
    50b2:	05 c0       	rjmp	.+10     	; 0x50be <vfprintf+0x3b0>
    50b4:	d1 94       	neg	r13
    50b6:	c1 94       	neg	r12
    50b8:	d1 08       	sbc	r13, r1
    50ba:	8d e2       	ldi	r24, 0x2D	; 45
    50bc:	01 c0       	rjmp	.+2      	; 0x50c0 <vfprintf+0x3b2>
    50be:	8b e2       	ldi	r24, 0x2B	; 43
    50c0:	b7 01       	movw	r22, r14
    50c2:	90 e0       	ldi	r25, 0x00	; 0
    50c4:	0e 94 46 2b 	call	0x568c	; 0x568c <fputc>
    50c8:	80 e3       	ldi	r24, 0x30	; 48
    50ca:	2a e0       	ldi	r18, 0x0A	; 10
    50cc:	c2 16       	cp	r12, r18
    50ce:	d1 04       	cpc	r13, r1
    50d0:	2c f0       	brlt	.+10     	; 0x50dc <vfprintf+0x3ce>
    50d2:	8f 5f       	subi	r24, 0xFF	; 255
    50d4:	fa e0       	ldi	r31, 0x0A	; 10
    50d6:	cf 1a       	sub	r12, r31
    50d8:	d1 08       	sbc	r13, r1
    50da:	f7 cf       	rjmp	.-18     	; 0x50ca <vfprintf+0x3bc>
    50dc:	b7 01       	movw	r22, r14
    50de:	90 e0       	ldi	r25, 0x00	; 0
    50e0:	0e 94 46 2b 	call	0x568c	; 0x568c <fputc>
    50e4:	b7 01       	movw	r22, r14
    50e6:	c6 01       	movw	r24, r12
    50e8:	c0 96       	adiw	r24, 0x30	; 48
    50ea:	0e 94 46 2b 	call	0x568c	; 0x568c <fputc>
    50ee:	54 c1       	rjmp	.+680    	; 0x5398 <vfprintf+0x68a>
    50f0:	83 36       	cpi	r24, 0x63	; 99
    50f2:	31 f0       	breq	.+12     	; 0x5100 <vfprintf+0x3f2>
    50f4:	83 37       	cpi	r24, 0x73	; 115
    50f6:	79 f0       	breq	.+30     	; 0x5116 <vfprintf+0x408>
    50f8:	83 35       	cpi	r24, 0x53	; 83
    50fa:	09 f0       	breq	.+2      	; 0x50fe <vfprintf+0x3f0>
    50fc:	56 c0       	rjmp	.+172    	; 0x51aa <vfprintf+0x49c>
    50fe:	20 c0       	rjmp	.+64     	; 0x5140 <vfprintf+0x432>
    5100:	56 01       	movw	r10, r12
    5102:	32 e0       	ldi	r19, 0x02	; 2
    5104:	a3 0e       	add	r10, r19
    5106:	b1 1c       	adc	r11, r1
    5108:	f6 01       	movw	r30, r12
    510a:	80 81       	ld	r24, Z
    510c:	89 83       	std	Y+1, r24	; 0x01
    510e:	01 e0       	ldi	r16, 0x01	; 1
    5110:	10 e0       	ldi	r17, 0x00	; 0
    5112:	63 01       	movw	r12, r6
    5114:	12 c0       	rjmp	.+36     	; 0x513a <vfprintf+0x42c>
    5116:	56 01       	movw	r10, r12
    5118:	f2 e0       	ldi	r31, 0x02	; 2
    511a:	af 0e       	add	r10, r31
    511c:	b1 1c       	adc	r11, r1
    511e:	f6 01       	movw	r30, r12
    5120:	c0 80       	ld	r12, Z
    5122:	d1 80       	ldd	r13, Z+1	; 0x01
    5124:	96 fe       	sbrs	r9, 6
    5126:	03 c0       	rjmp	.+6      	; 0x512e <vfprintf+0x420>
    5128:	61 2f       	mov	r22, r17
    512a:	70 e0       	ldi	r23, 0x00	; 0
    512c:	02 c0       	rjmp	.+4      	; 0x5132 <vfprintf+0x424>
    512e:	6f ef       	ldi	r22, 0xFF	; 255
    5130:	7f ef       	ldi	r23, 0xFF	; 255
    5132:	c6 01       	movw	r24, r12
    5134:	0e 94 3b 2b 	call	0x5676	; 0x5676 <strnlen>
    5138:	8c 01       	movw	r16, r24
    513a:	f9 2d       	mov	r31, r9
    513c:	ff 77       	andi	r31, 0x7F	; 127
    513e:	14 c0       	rjmp	.+40     	; 0x5168 <vfprintf+0x45a>
    5140:	56 01       	movw	r10, r12
    5142:	22 e0       	ldi	r18, 0x02	; 2
    5144:	a2 0e       	add	r10, r18
    5146:	b1 1c       	adc	r11, r1
    5148:	f6 01       	movw	r30, r12
    514a:	c0 80       	ld	r12, Z
    514c:	d1 80       	ldd	r13, Z+1	; 0x01
    514e:	96 fe       	sbrs	r9, 6
    5150:	03 c0       	rjmp	.+6      	; 0x5158 <vfprintf+0x44a>
    5152:	61 2f       	mov	r22, r17
    5154:	70 e0       	ldi	r23, 0x00	; 0
    5156:	02 c0       	rjmp	.+4      	; 0x515c <vfprintf+0x44e>
    5158:	6f ef       	ldi	r22, 0xFF	; 255
    515a:	7f ef       	ldi	r23, 0xFF	; 255
    515c:	c6 01       	movw	r24, r12
    515e:	0e 94 19 2b 	call	0x5632	; 0x5632 <strnlen_P>
    5162:	8c 01       	movw	r16, r24
    5164:	f9 2d       	mov	r31, r9
    5166:	f0 68       	ori	r31, 0x80	; 128
    5168:	9f 2e       	mov	r9, r31
    516a:	f3 fd       	sbrc	r31, 3
    516c:	1a c0       	rjmp	.+52     	; 0x51a2 <vfprintf+0x494>
    516e:	85 2d       	mov	r24, r5
    5170:	90 e0       	ldi	r25, 0x00	; 0
    5172:	08 17       	cp	r16, r24
    5174:	19 07       	cpc	r17, r25
    5176:	a8 f4       	brcc	.+42     	; 0x51a2 <vfprintf+0x494>
    5178:	b7 01       	movw	r22, r14
    517a:	80 e2       	ldi	r24, 0x20	; 32
    517c:	90 e0       	ldi	r25, 0x00	; 0
    517e:	0e 94 46 2b 	call	0x568c	; 0x568c <fputc>
    5182:	5a 94       	dec	r5
    5184:	f4 cf       	rjmp	.-24     	; 0x516e <vfprintf+0x460>
    5186:	f6 01       	movw	r30, r12
    5188:	97 fc       	sbrc	r9, 7
    518a:	85 91       	lpm	r24, Z+
    518c:	97 fe       	sbrs	r9, 7
    518e:	81 91       	ld	r24, Z+
    5190:	6f 01       	movw	r12, r30
    5192:	b7 01       	movw	r22, r14
    5194:	90 e0       	ldi	r25, 0x00	; 0
    5196:	0e 94 46 2b 	call	0x568c	; 0x568c <fputc>
    519a:	51 10       	cpse	r5, r1
    519c:	5a 94       	dec	r5
    519e:	01 50       	subi	r16, 0x01	; 1
    51a0:	11 09       	sbc	r17, r1
    51a2:	01 15       	cp	r16, r1
    51a4:	11 05       	cpc	r17, r1
    51a6:	79 f7       	brne	.-34     	; 0x5186 <vfprintf+0x478>
    51a8:	f7 c0       	rjmp	.+494    	; 0x5398 <vfprintf+0x68a>
    51aa:	84 36       	cpi	r24, 0x64	; 100
    51ac:	11 f0       	breq	.+4      	; 0x51b2 <vfprintf+0x4a4>
    51ae:	89 36       	cpi	r24, 0x69	; 105
    51b0:	61 f5       	brne	.+88     	; 0x520a <vfprintf+0x4fc>
    51b2:	56 01       	movw	r10, r12
    51b4:	97 fe       	sbrs	r9, 7
    51b6:	09 c0       	rjmp	.+18     	; 0x51ca <vfprintf+0x4bc>
    51b8:	24 e0       	ldi	r18, 0x04	; 4
    51ba:	a2 0e       	add	r10, r18
    51bc:	b1 1c       	adc	r11, r1
    51be:	f6 01       	movw	r30, r12
    51c0:	60 81       	ld	r22, Z
    51c2:	71 81       	ldd	r23, Z+1	; 0x01
    51c4:	82 81       	ldd	r24, Z+2	; 0x02
    51c6:	93 81       	ldd	r25, Z+3	; 0x03
    51c8:	0a c0       	rjmp	.+20     	; 0x51de <vfprintf+0x4d0>
    51ca:	f2 e0       	ldi	r31, 0x02	; 2
    51cc:	af 0e       	add	r10, r31
    51ce:	b1 1c       	adc	r11, r1
    51d0:	f6 01       	movw	r30, r12
    51d2:	60 81       	ld	r22, Z
    51d4:	71 81       	ldd	r23, Z+1	; 0x01
    51d6:	07 2e       	mov	r0, r23
    51d8:	00 0c       	add	r0, r0
    51da:	88 0b       	sbc	r24, r24
    51dc:	99 0b       	sbc	r25, r25
    51de:	f9 2d       	mov	r31, r9
    51e0:	ff 76       	andi	r31, 0x6F	; 111
    51e2:	9f 2e       	mov	r9, r31
    51e4:	97 ff       	sbrs	r25, 7
    51e6:	09 c0       	rjmp	.+18     	; 0x51fa <vfprintf+0x4ec>
    51e8:	90 95       	com	r25
    51ea:	80 95       	com	r24
    51ec:	70 95       	com	r23
    51ee:	61 95       	neg	r22
    51f0:	7f 4f       	sbci	r23, 0xFF	; 255
    51f2:	8f 4f       	sbci	r24, 0xFF	; 255
    51f4:	9f 4f       	sbci	r25, 0xFF	; 255
    51f6:	f0 68       	ori	r31, 0x80	; 128
    51f8:	9f 2e       	mov	r9, r31
    51fa:	2a e0       	ldi	r18, 0x0A	; 10
    51fc:	30 e0       	ldi	r19, 0x00	; 0
    51fe:	a3 01       	movw	r20, r6
    5200:	0e 94 82 2b 	call	0x5704	; 0x5704 <__ultoa_invert>
    5204:	c8 2e       	mov	r12, r24
    5206:	c6 18       	sub	r12, r6
    5208:	3f c0       	rjmp	.+126    	; 0x5288 <vfprintf+0x57a>
    520a:	09 2d       	mov	r16, r9
    520c:	85 37       	cpi	r24, 0x75	; 117
    520e:	21 f4       	brne	.+8      	; 0x5218 <vfprintf+0x50a>
    5210:	0f 7e       	andi	r16, 0xEF	; 239
    5212:	2a e0       	ldi	r18, 0x0A	; 10
    5214:	30 e0       	ldi	r19, 0x00	; 0
    5216:	1d c0       	rjmp	.+58     	; 0x5252 <vfprintf+0x544>
    5218:	09 7f       	andi	r16, 0xF9	; 249
    521a:	8f 36       	cpi	r24, 0x6F	; 111
    521c:	91 f0       	breq	.+36     	; 0x5242 <vfprintf+0x534>
    521e:	18 f4       	brcc	.+6      	; 0x5226 <vfprintf+0x518>
    5220:	88 35       	cpi	r24, 0x58	; 88
    5222:	59 f0       	breq	.+22     	; 0x523a <vfprintf+0x52c>
    5224:	c3 c0       	rjmp	.+390    	; 0x53ac <vfprintf+0x69e>
    5226:	80 37       	cpi	r24, 0x70	; 112
    5228:	19 f0       	breq	.+6      	; 0x5230 <vfprintf+0x522>
    522a:	88 37       	cpi	r24, 0x78	; 120
    522c:	11 f0       	breq	.+4      	; 0x5232 <vfprintf+0x524>
    522e:	be c0       	rjmp	.+380    	; 0x53ac <vfprintf+0x69e>
    5230:	00 61       	ori	r16, 0x10	; 16
    5232:	04 ff       	sbrs	r16, 4
    5234:	09 c0       	rjmp	.+18     	; 0x5248 <vfprintf+0x53a>
    5236:	04 60       	ori	r16, 0x04	; 4
    5238:	07 c0       	rjmp	.+14     	; 0x5248 <vfprintf+0x53a>
    523a:	94 fe       	sbrs	r9, 4
    523c:	08 c0       	rjmp	.+16     	; 0x524e <vfprintf+0x540>
    523e:	06 60       	ori	r16, 0x06	; 6
    5240:	06 c0       	rjmp	.+12     	; 0x524e <vfprintf+0x540>
    5242:	28 e0       	ldi	r18, 0x08	; 8
    5244:	30 e0       	ldi	r19, 0x00	; 0
    5246:	05 c0       	rjmp	.+10     	; 0x5252 <vfprintf+0x544>
    5248:	20 e1       	ldi	r18, 0x10	; 16
    524a:	30 e0       	ldi	r19, 0x00	; 0
    524c:	02 c0       	rjmp	.+4      	; 0x5252 <vfprintf+0x544>
    524e:	20 e1       	ldi	r18, 0x10	; 16
    5250:	32 e0       	ldi	r19, 0x02	; 2
    5252:	56 01       	movw	r10, r12
    5254:	07 ff       	sbrs	r16, 7
    5256:	09 c0       	rjmp	.+18     	; 0x526a <vfprintf+0x55c>
    5258:	84 e0       	ldi	r24, 0x04	; 4
    525a:	a8 0e       	add	r10, r24
    525c:	b1 1c       	adc	r11, r1
    525e:	f6 01       	movw	r30, r12
    5260:	60 81       	ld	r22, Z
    5262:	71 81       	ldd	r23, Z+1	; 0x01
    5264:	82 81       	ldd	r24, Z+2	; 0x02
    5266:	93 81       	ldd	r25, Z+3	; 0x03
    5268:	08 c0       	rjmp	.+16     	; 0x527a <vfprintf+0x56c>
    526a:	f2 e0       	ldi	r31, 0x02	; 2
    526c:	af 0e       	add	r10, r31
    526e:	b1 1c       	adc	r11, r1
    5270:	f6 01       	movw	r30, r12
    5272:	60 81       	ld	r22, Z
    5274:	71 81       	ldd	r23, Z+1	; 0x01
    5276:	80 e0       	ldi	r24, 0x00	; 0
    5278:	90 e0       	ldi	r25, 0x00	; 0
    527a:	a3 01       	movw	r20, r6
    527c:	0e 94 82 2b 	call	0x5704	; 0x5704 <__ultoa_invert>
    5280:	c8 2e       	mov	r12, r24
    5282:	c6 18       	sub	r12, r6
    5284:	0f 77       	andi	r16, 0x7F	; 127
    5286:	90 2e       	mov	r9, r16
    5288:	96 fe       	sbrs	r9, 6
    528a:	0b c0       	rjmp	.+22     	; 0x52a2 <vfprintf+0x594>
    528c:	09 2d       	mov	r16, r9
    528e:	0e 7f       	andi	r16, 0xFE	; 254
    5290:	c1 16       	cp	r12, r17
    5292:	50 f4       	brcc	.+20     	; 0x52a8 <vfprintf+0x59a>
    5294:	94 fe       	sbrs	r9, 4
    5296:	0a c0       	rjmp	.+20     	; 0x52ac <vfprintf+0x59e>
    5298:	92 fc       	sbrc	r9, 2
    529a:	08 c0       	rjmp	.+16     	; 0x52ac <vfprintf+0x59e>
    529c:	09 2d       	mov	r16, r9
    529e:	0e 7e       	andi	r16, 0xEE	; 238
    52a0:	05 c0       	rjmp	.+10     	; 0x52ac <vfprintf+0x59e>
    52a2:	dc 2c       	mov	r13, r12
    52a4:	09 2d       	mov	r16, r9
    52a6:	03 c0       	rjmp	.+6      	; 0x52ae <vfprintf+0x5a0>
    52a8:	dc 2c       	mov	r13, r12
    52aa:	01 c0       	rjmp	.+2      	; 0x52ae <vfprintf+0x5a0>
    52ac:	d1 2e       	mov	r13, r17
    52ae:	04 ff       	sbrs	r16, 4
    52b0:	0d c0       	rjmp	.+26     	; 0x52cc <vfprintf+0x5be>
    52b2:	fe 01       	movw	r30, r28
    52b4:	ec 0d       	add	r30, r12
    52b6:	f1 1d       	adc	r31, r1
    52b8:	80 81       	ld	r24, Z
    52ba:	80 33       	cpi	r24, 0x30	; 48
    52bc:	11 f4       	brne	.+4      	; 0x52c2 <vfprintf+0x5b4>
    52be:	09 7e       	andi	r16, 0xE9	; 233
    52c0:	09 c0       	rjmp	.+18     	; 0x52d4 <vfprintf+0x5c6>
    52c2:	02 ff       	sbrs	r16, 2
    52c4:	06 c0       	rjmp	.+12     	; 0x52d2 <vfprintf+0x5c4>
    52c6:	d3 94       	inc	r13
    52c8:	d3 94       	inc	r13
    52ca:	04 c0       	rjmp	.+8      	; 0x52d4 <vfprintf+0x5c6>
    52cc:	80 2f       	mov	r24, r16
    52ce:	86 78       	andi	r24, 0x86	; 134
    52d0:	09 f0       	breq	.+2      	; 0x52d4 <vfprintf+0x5c6>
    52d2:	d3 94       	inc	r13
    52d4:	03 fd       	sbrc	r16, 3
    52d6:	11 c0       	rjmp	.+34     	; 0x52fa <vfprintf+0x5ec>
    52d8:	00 ff       	sbrs	r16, 0
    52da:	06 c0       	rjmp	.+12     	; 0x52e8 <vfprintf+0x5da>
    52dc:	1c 2d       	mov	r17, r12
    52de:	d5 14       	cp	r13, r5
    52e0:	80 f4       	brcc	.+32     	; 0x5302 <vfprintf+0x5f4>
    52e2:	15 0d       	add	r17, r5
    52e4:	1d 19       	sub	r17, r13
    52e6:	0d c0       	rjmp	.+26     	; 0x5302 <vfprintf+0x5f4>
    52e8:	d5 14       	cp	r13, r5
    52ea:	58 f4       	brcc	.+22     	; 0x5302 <vfprintf+0x5f4>
    52ec:	b7 01       	movw	r22, r14
    52ee:	80 e2       	ldi	r24, 0x20	; 32
    52f0:	90 e0       	ldi	r25, 0x00	; 0
    52f2:	0e 94 46 2b 	call	0x568c	; 0x568c <fputc>
    52f6:	d3 94       	inc	r13
    52f8:	f7 cf       	rjmp	.-18     	; 0x52e8 <vfprintf+0x5da>
    52fa:	d5 14       	cp	r13, r5
    52fc:	10 f4       	brcc	.+4      	; 0x5302 <vfprintf+0x5f4>
    52fe:	5d 18       	sub	r5, r13
    5300:	01 c0       	rjmp	.+2      	; 0x5304 <vfprintf+0x5f6>
    5302:	51 2c       	mov	r5, r1
    5304:	04 ff       	sbrs	r16, 4
    5306:	10 c0       	rjmp	.+32     	; 0x5328 <vfprintf+0x61a>
    5308:	b7 01       	movw	r22, r14
    530a:	80 e3       	ldi	r24, 0x30	; 48
    530c:	90 e0       	ldi	r25, 0x00	; 0
    530e:	0e 94 46 2b 	call	0x568c	; 0x568c <fputc>
    5312:	02 ff       	sbrs	r16, 2
    5314:	17 c0       	rjmp	.+46     	; 0x5344 <vfprintf+0x636>
    5316:	01 fd       	sbrc	r16, 1
    5318:	03 c0       	rjmp	.+6      	; 0x5320 <vfprintf+0x612>
    531a:	88 e7       	ldi	r24, 0x78	; 120
    531c:	90 e0       	ldi	r25, 0x00	; 0
    531e:	02 c0       	rjmp	.+4      	; 0x5324 <vfprintf+0x616>
    5320:	88 e5       	ldi	r24, 0x58	; 88
    5322:	90 e0       	ldi	r25, 0x00	; 0
    5324:	b7 01       	movw	r22, r14
    5326:	0c c0       	rjmp	.+24     	; 0x5340 <vfprintf+0x632>
    5328:	80 2f       	mov	r24, r16
    532a:	86 78       	andi	r24, 0x86	; 134
    532c:	59 f0       	breq	.+22     	; 0x5344 <vfprintf+0x636>
    532e:	01 ff       	sbrs	r16, 1
    5330:	02 c0       	rjmp	.+4      	; 0x5336 <vfprintf+0x628>
    5332:	8b e2       	ldi	r24, 0x2B	; 43
    5334:	01 c0       	rjmp	.+2      	; 0x5338 <vfprintf+0x62a>
    5336:	80 e2       	ldi	r24, 0x20	; 32
    5338:	07 fd       	sbrc	r16, 7
    533a:	8d e2       	ldi	r24, 0x2D	; 45
    533c:	b7 01       	movw	r22, r14
    533e:	90 e0       	ldi	r25, 0x00	; 0
    5340:	0e 94 46 2b 	call	0x568c	; 0x568c <fputc>
    5344:	c1 16       	cp	r12, r17
    5346:	38 f4       	brcc	.+14     	; 0x5356 <vfprintf+0x648>
    5348:	b7 01       	movw	r22, r14
    534a:	80 e3       	ldi	r24, 0x30	; 48
    534c:	90 e0       	ldi	r25, 0x00	; 0
    534e:	0e 94 46 2b 	call	0x568c	; 0x568c <fputc>
    5352:	11 50       	subi	r17, 0x01	; 1
    5354:	f7 cf       	rjmp	.-18     	; 0x5344 <vfprintf+0x636>
    5356:	ca 94       	dec	r12
    5358:	f3 01       	movw	r30, r6
    535a:	ec 0d       	add	r30, r12
    535c:	f1 1d       	adc	r31, r1
    535e:	80 81       	ld	r24, Z
    5360:	b7 01       	movw	r22, r14
    5362:	90 e0       	ldi	r25, 0x00	; 0
    5364:	0e 94 46 2b 	call	0x568c	; 0x568c <fputc>
    5368:	c1 10       	cpse	r12, r1
    536a:	f5 cf       	rjmp	.-22     	; 0x5356 <vfprintf+0x648>
    536c:	15 c0       	rjmp	.+42     	; 0x5398 <vfprintf+0x68a>
    536e:	f4 e0       	ldi	r31, 0x04	; 4
    5370:	f5 15       	cp	r31, r5
    5372:	60 f5       	brcc	.+88     	; 0x53cc <vfprintf+0x6be>
    5374:	84 e0       	ldi	r24, 0x04	; 4
    5376:	58 1a       	sub	r5, r24
    5378:	93 fe       	sbrs	r9, 3
    537a:	1f c0       	rjmp	.+62     	; 0x53ba <vfprintf+0x6ac>
    537c:	01 11       	cpse	r16, r1
    537e:	27 c0       	rjmp	.+78     	; 0x53ce <vfprintf+0x6c0>
    5380:	2c 85       	ldd	r18, Y+12	; 0x0c
    5382:	23 ff       	sbrs	r18, 3
    5384:	2a c0       	rjmp	.+84     	; 0x53da <vfprintf+0x6cc>
    5386:	06 eb       	ldi	r16, 0xB6	; 182
    5388:	11 e0       	ldi	r17, 0x01	; 1
    538a:	39 2d       	mov	r19, r9
    538c:	30 71       	andi	r19, 0x10	; 16
    538e:	93 2e       	mov	r9, r19
    5390:	f8 01       	movw	r30, r16
    5392:	84 91       	lpm	r24, Z
    5394:	81 11       	cpse	r24, r1
    5396:	24 c0       	rjmp	.+72     	; 0x53e0 <vfprintf+0x6d2>
    5398:	55 20       	and	r5, r5
    539a:	09 f4       	brne	.+2      	; 0x539e <vfprintf+0x690>
    539c:	e4 cc       	rjmp	.-1592   	; 0x4d66 <vfprintf+0x58>
    539e:	b7 01       	movw	r22, r14
    53a0:	80 e2       	ldi	r24, 0x20	; 32
    53a2:	90 e0       	ldi	r25, 0x00	; 0
    53a4:	0e 94 46 2b 	call	0x568c	; 0x568c <fputc>
    53a8:	5a 94       	dec	r5
    53aa:	f6 cf       	rjmp	.-20     	; 0x5398 <vfprintf+0x68a>
    53ac:	f7 01       	movw	r30, r14
    53ae:	86 81       	ldd	r24, Z+6	; 0x06
    53b0:	97 81       	ldd	r25, Z+7	; 0x07
    53b2:	26 c0       	rjmp	.+76     	; 0x5400 <vfprintf+0x6f2>
    53b4:	8f ef       	ldi	r24, 0xFF	; 255
    53b6:	9f ef       	ldi	r25, 0xFF	; 255
    53b8:	23 c0       	rjmp	.+70     	; 0x5400 <vfprintf+0x6f2>
    53ba:	b7 01       	movw	r22, r14
    53bc:	80 e2       	ldi	r24, 0x20	; 32
    53be:	90 e0       	ldi	r25, 0x00	; 0
    53c0:	0e 94 46 2b 	call	0x568c	; 0x568c <fputc>
    53c4:	5a 94       	dec	r5
    53c6:	51 10       	cpse	r5, r1
    53c8:	f8 cf       	rjmp	.-16     	; 0x53ba <vfprintf+0x6ac>
    53ca:	d8 cf       	rjmp	.-80     	; 0x537c <vfprintf+0x66e>
    53cc:	51 2c       	mov	r5, r1
    53ce:	b7 01       	movw	r22, r14
    53d0:	80 2f       	mov	r24, r16
    53d2:	90 e0       	ldi	r25, 0x00	; 0
    53d4:	0e 94 46 2b 	call	0x568c	; 0x568c <fputc>
    53d8:	d3 cf       	rjmp	.-90     	; 0x5380 <vfprintf+0x672>
    53da:	0a eb       	ldi	r16, 0xBA	; 186
    53dc:	11 e0       	ldi	r17, 0x01	; 1
    53de:	d5 cf       	rjmp	.-86     	; 0x538a <vfprintf+0x67c>
    53e0:	91 10       	cpse	r9, r1
    53e2:	80 52       	subi	r24, 0x20	; 32
    53e4:	b7 01       	movw	r22, r14
    53e6:	90 e0       	ldi	r25, 0x00	; 0
    53e8:	0e 94 46 2b 	call	0x568c	; 0x568c <fputc>
    53ec:	0f 5f       	subi	r16, 0xFF	; 255
    53ee:	1f 4f       	sbci	r17, 0xFF	; 255
    53f0:	cf cf       	rjmp	.-98     	; 0x5390 <vfprintf+0x682>
    53f2:	23 e0       	ldi	r18, 0x03	; 3
    53f4:	25 15       	cp	r18, r5
    53f6:	10 f4       	brcc	.+4      	; 0x53fc <vfprintf+0x6ee>
    53f8:	83 e0       	ldi	r24, 0x03	; 3
    53fa:	bd cf       	rjmp	.-134    	; 0x5376 <vfprintf+0x668>
    53fc:	51 2c       	mov	r5, r1
    53fe:	c0 cf       	rjmp	.-128    	; 0x5380 <vfprintf+0x672>
    5400:	60 96       	adiw	r28, 0x10	; 16
    5402:	e2 e1       	ldi	r30, 0x12	; 18
    5404:	0c 94 26 2a 	jmp	0x544c	; 0x544c <__epilogue_restores__>

00005408 <__tablejump2__>:
    5408:	ee 0f       	add	r30, r30
    540a:	ff 1f       	adc	r31, r31
    540c:	05 90       	lpm	r0, Z+
    540e:	f4 91       	lpm	r31, Z
    5410:	e0 2d       	mov	r30, r0
    5412:	09 94       	ijmp

00005414 <__prologue_saves__>:
    5414:	2f 92       	push	r2
    5416:	3f 92       	push	r3
    5418:	4f 92       	push	r4
    541a:	5f 92       	push	r5
    541c:	6f 92       	push	r6
    541e:	7f 92       	push	r7
    5420:	8f 92       	push	r8
    5422:	9f 92       	push	r9
    5424:	af 92       	push	r10
    5426:	bf 92       	push	r11
    5428:	cf 92       	push	r12
    542a:	df 92       	push	r13
    542c:	ef 92       	push	r14
    542e:	ff 92       	push	r15
    5430:	0f 93       	push	r16
    5432:	1f 93       	push	r17
    5434:	cf 93       	push	r28
    5436:	df 93       	push	r29
    5438:	cd b7       	in	r28, 0x3d	; 61
    543a:	de b7       	in	r29, 0x3e	; 62
    543c:	ca 1b       	sub	r28, r26
    543e:	db 0b       	sbc	r29, r27
    5440:	0f b6       	in	r0, 0x3f	; 63
    5442:	f8 94       	cli
    5444:	de bf       	out	0x3e, r29	; 62
    5446:	0f be       	out	0x3f, r0	; 63
    5448:	cd bf       	out	0x3d, r28	; 61
    544a:	09 94       	ijmp

0000544c <__epilogue_restores__>:
    544c:	2a 88       	ldd	r2, Y+18	; 0x12
    544e:	39 88       	ldd	r3, Y+17	; 0x11
    5450:	48 88       	ldd	r4, Y+16	; 0x10
    5452:	5f 84       	ldd	r5, Y+15	; 0x0f
    5454:	6e 84       	ldd	r6, Y+14	; 0x0e
    5456:	7d 84       	ldd	r7, Y+13	; 0x0d
    5458:	8c 84       	ldd	r8, Y+12	; 0x0c
    545a:	9b 84       	ldd	r9, Y+11	; 0x0b
    545c:	aa 84       	ldd	r10, Y+10	; 0x0a
    545e:	b9 84       	ldd	r11, Y+9	; 0x09
    5460:	c8 84       	ldd	r12, Y+8	; 0x08
    5462:	df 80       	ldd	r13, Y+7	; 0x07
    5464:	ee 80       	ldd	r14, Y+6	; 0x06
    5466:	fd 80       	ldd	r15, Y+5	; 0x05
    5468:	0c 81       	ldd	r16, Y+4	; 0x04
    546a:	1b 81       	ldd	r17, Y+3	; 0x03
    546c:	aa 81       	ldd	r26, Y+2	; 0x02
    546e:	b9 81       	ldd	r27, Y+1	; 0x01
    5470:	ce 0f       	add	r28, r30
    5472:	d1 1d       	adc	r29, r1
    5474:	0f b6       	in	r0, 0x3f	; 63
    5476:	f8 94       	cli
    5478:	de bf       	out	0x3e, r29	; 62
    547a:	0f be       	out	0x3f, r0	; 63
    547c:	cd bf       	out	0x3d, r28	; 61
    547e:	ed 01       	movw	r28, r26
    5480:	08 95       	ret

00005482 <__ftoa_engine>:
    5482:	28 30       	cpi	r18, 0x08	; 8
    5484:	08 f0       	brcs	.+2      	; 0x5488 <__ftoa_engine+0x6>
    5486:	27 e0       	ldi	r18, 0x07	; 7
    5488:	33 27       	eor	r19, r19
    548a:	da 01       	movw	r26, r20
    548c:	99 0f       	add	r25, r25
    548e:	31 1d       	adc	r19, r1
    5490:	87 fd       	sbrc	r24, 7
    5492:	91 60       	ori	r25, 0x01	; 1
    5494:	00 96       	adiw	r24, 0x00	; 0
    5496:	61 05       	cpc	r22, r1
    5498:	71 05       	cpc	r23, r1
    549a:	39 f4       	brne	.+14     	; 0x54aa <__ftoa_engine+0x28>
    549c:	32 60       	ori	r19, 0x02	; 2
    549e:	2e 5f       	subi	r18, 0xFE	; 254
    54a0:	3d 93       	st	X+, r19
    54a2:	30 e3       	ldi	r19, 0x30	; 48
    54a4:	2a 95       	dec	r18
    54a6:	e1 f7       	brne	.-8      	; 0x54a0 <__ftoa_engine+0x1e>
    54a8:	08 95       	ret
    54aa:	9f 3f       	cpi	r25, 0xFF	; 255
    54ac:	30 f0       	brcs	.+12     	; 0x54ba <__ftoa_engine+0x38>
    54ae:	80 38       	cpi	r24, 0x80	; 128
    54b0:	71 05       	cpc	r23, r1
    54b2:	61 05       	cpc	r22, r1
    54b4:	09 f0       	breq	.+2      	; 0x54b8 <__ftoa_engine+0x36>
    54b6:	3c 5f       	subi	r19, 0xFC	; 252
    54b8:	3c 5f       	subi	r19, 0xFC	; 252
    54ba:	3d 93       	st	X+, r19
    54bc:	91 30       	cpi	r25, 0x01	; 1
    54be:	08 f0       	brcs	.+2      	; 0x54c2 <__ftoa_engine+0x40>
    54c0:	80 68       	ori	r24, 0x80	; 128
    54c2:	91 1d       	adc	r25, r1
    54c4:	df 93       	push	r29
    54c6:	cf 93       	push	r28
    54c8:	1f 93       	push	r17
    54ca:	0f 93       	push	r16
    54cc:	ff 92       	push	r15
    54ce:	ef 92       	push	r14
    54d0:	19 2f       	mov	r17, r25
    54d2:	98 7f       	andi	r25, 0xF8	; 248
    54d4:	96 95       	lsr	r25
    54d6:	e9 2f       	mov	r30, r25
    54d8:	96 95       	lsr	r25
    54da:	96 95       	lsr	r25
    54dc:	e9 0f       	add	r30, r25
    54de:	ff 27       	eor	r31, r31
    54e0:	e8 5e       	subi	r30, 0xE8	; 232
    54e2:	fd 4f       	sbci	r31, 0xFD	; 253
    54e4:	99 27       	eor	r25, r25
    54e6:	33 27       	eor	r19, r19
    54e8:	ee 24       	eor	r14, r14
    54ea:	ff 24       	eor	r15, r15
    54ec:	a7 01       	movw	r20, r14
    54ee:	e7 01       	movw	r28, r14
    54f0:	05 90       	lpm	r0, Z+
    54f2:	08 94       	sec
    54f4:	07 94       	ror	r0
    54f6:	28 f4       	brcc	.+10     	; 0x5502 <__ftoa_engine+0x80>
    54f8:	36 0f       	add	r19, r22
    54fa:	e7 1e       	adc	r14, r23
    54fc:	f8 1e       	adc	r15, r24
    54fe:	49 1f       	adc	r20, r25
    5500:	51 1d       	adc	r21, r1
    5502:	66 0f       	add	r22, r22
    5504:	77 1f       	adc	r23, r23
    5506:	88 1f       	adc	r24, r24
    5508:	99 1f       	adc	r25, r25
    550a:	06 94       	lsr	r0
    550c:	a1 f7       	brne	.-24     	; 0x54f6 <__ftoa_engine+0x74>
    550e:	05 90       	lpm	r0, Z+
    5510:	07 94       	ror	r0
    5512:	28 f4       	brcc	.+10     	; 0x551e <__ftoa_engine+0x9c>
    5514:	e7 0e       	add	r14, r23
    5516:	f8 1e       	adc	r15, r24
    5518:	49 1f       	adc	r20, r25
    551a:	56 1f       	adc	r21, r22
    551c:	c1 1d       	adc	r28, r1
    551e:	77 0f       	add	r23, r23
    5520:	88 1f       	adc	r24, r24
    5522:	99 1f       	adc	r25, r25
    5524:	66 1f       	adc	r22, r22
    5526:	06 94       	lsr	r0
    5528:	a1 f7       	brne	.-24     	; 0x5512 <__ftoa_engine+0x90>
    552a:	05 90       	lpm	r0, Z+
    552c:	07 94       	ror	r0
    552e:	28 f4       	brcc	.+10     	; 0x553a <__ftoa_engine+0xb8>
    5530:	f8 0e       	add	r15, r24
    5532:	49 1f       	adc	r20, r25
    5534:	56 1f       	adc	r21, r22
    5536:	c7 1f       	adc	r28, r23
    5538:	d1 1d       	adc	r29, r1
    553a:	88 0f       	add	r24, r24
    553c:	99 1f       	adc	r25, r25
    553e:	66 1f       	adc	r22, r22
    5540:	77 1f       	adc	r23, r23
    5542:	06 94       	lsr	r0
    5544:	a1 f7       	brne	.-24     	; 0x552e <__ftoa_engine+0xac>
    5546:	05 90       	lpm	r0, Z+
    5548:	07 94       	ror	r0
    554a:	20 f4       	brcc	.+8      	; 0x5554 <__ftoa_engine+0xd2>
    554c:	49 0f       	add	r20, r25
    554e:	56 1f       	adc	r21, r22
    5550:	c7 1f       	adc	r28, r23
    5552:	d8 1f       	adc	r29, r24
    5554:	99 0f       	add	r25, r25
    5556:	66 1f       	adc	r22, r22
    5558:	77 1f       	adc	r23, r23
    555a:	88 1f       	adc	r24, r24
    555c:	06 94       	lsr	r0
    555e:	a9 f7       	brne	.-22     	; 0x554a <__ftoa_engine+0xc8>
    5560:	84 91       	lpm	r24, Z
    5562:	10 95       	com	r17
    5564:	17 70       	andi	r17, 0x07	; 7
    5566:	41 f0       	breq	.+16     	; 0x5578 <__ftoa_engine+0xf6>
    5568:	d6 95       	lsr	r29
    556a:	c7 95       	ror	r28
    556c:	57 95       	ror	r21
    556e:	47 95       	ror	r20
    5570:	f7 94       	ror	r15
    5572:	e7 94       	ror	r14
    5574:	1a 95       	dec	r17
    5576:	c1 f7       	brne	.-16     	; 0x5568 <__ftoa_engine+0xe6>
    5578:	ee eb       	ldi	r30, 0xBE	; 190
    557a:	f1 e0       	ldi	r31, 0x01	; 1
    557c:	68 94       	set
    557e:	15 90       	lpm	r1, Z+
    5580:	15 91       	lpm	r17, Z+
    5582:	35 91       	lpm	r19, Z+
    5584:	65 91       	lpm	r22, Z+
    5586:	95 91       	lpm	r25, Z+
    5588:	05 90       	lpm	r0, Z+
    558a:	7f e2       	ldi	r23, 0x2F	; 47
    558c:	73 95       	inc	r23
    558e:	e1 18       	sub	r14, r1
    5590:	f1 0a       	sbc	r15, r17
    5592:	43 0b       	sbc	r20, r19
    5594:	56 0b       	sbc	r21, r22
    5596:	c9 0b       	sbc	r28, r25
    5598:	d0 09       	sbc	r29, r0
    559a:	c0 f7       	brcc	.-16     	; 0x558c <__ftoa_engine+0x10a>
    559c:	e1 0c       	add	r14, r1
    559e:	f1 1e       	adc	r15, r17
    55a0:	43 1f       	adc	r20, r19
    55a2:	56 1f       	adc	r21, r22
    55a4:	c9 1f       	adc	r28, r25
    55a6:	d0 1d       	adc	r29, r0
    55a8:	7e f4       	brtc	.+30     	; 0x55c8 <__ftoa_engine+0x146>
    55aa:	70 33       	cpi	r23, 0x30	; 48
    55ac:	11 f4       	brne	.+4      	; 0x55b2 <__ftoa_engine+0x130>
    55ae:	8a 95       	dec	r24
    55b0:	e6 cf       	rjmp	.-52     	; 0x557e <__ftoa_engine+0xfc>
    55b2:	e8 94       	clt
    55b4:	01 50       	subi	r16, 0x01	; 1
    55b6:	30 f0       	brcs	.+12     	; 0x55c4 <__ftoa_engine+0x142>
    55b8:	08 0f       	add	r16, r24
    55ba:	0a f4       	brpl	.+2      	; 0x55be <__ftoa_engine+0x13c>
    55bc:	00 27       	eor	r16, r16
    55be:	02 17       	cp	r16, r18
    55c0:	08 f4       	brcc	.+2      	; 0x55c4 <__ftoa_engine+0x142>
    55c2:	20 2f       	mov	r18, r16
    55c4:	23 95       	inc	r18
    55c6:	02 2f       	mov	r16, r18
    55c8:	7a 33       	cpi	r23, 0x3A	; 58
    55ca:	28 f0       	brcs	.+10     	; 0x55d6 <__ftoa_engine+0x154>
    55cc:	79 e3       	ldi	r23, 0x39	; 57
    55ce:	7d 93       	st	X+, r23
    55d0:	2a 95       	dec	r18
    55d2:	e9 f7       	brne	.-6      	; 0x55ce <__ftoa_engine+0x14c>
    55d4:	10 c0       	rjmp	.+32     	; 0x55f6 <__ftoa_engine+0x174>
    55d6:	7d 93       	st	X+, r23
    55d8:	2a 95       	dec	r18
    55da:	89 f6       	brne	.-94     	; 0x557e <__ftoa_engine+0xfc>
    55dc:	06 94       	lsr	r0
    55de:	97 95       	ror	r25
    55e0:	67 95       	ror	r22
    55e2:	37 95       	ror	r19
    55e4:	17 95       	ror	r17
    55e6:	17 94       	ror	r1
    55e8:	e1 18       	sub	r14, r1
    55ea:	f1 0a       	sbc	r15, r17
    55ec:	43 0b       	sbc	r20, r19
    55ee:	56 0b       	sbc	r21, r22
    55f0:	c9 0b       	sbc	r28, r25
    55f2:	d0 09       	sbc	r29, r0
    55f4:	98 f0       	brcs	.+38     	; 0x561c <__ftoa_engine+0x19a>
    55f6:	23 95       	inc	r18
    55f8:	7e 91       	ld	r23, -X
    55fa:	73 95       	inc	r23
    55fc:	7a 33       	cpi	r23, 0x3A	; 58
    55fe:	08 f0       	brcs	.+2      	; 0x5602 <__ftoa_engine+0x180>
    5600:	70 e3       	ldi	r23, 0x30	; 48
    5602:	7c 93       	st	X, r23
    5604:	20 13       	cpse	r18, r16
    5606:	b8 f7       	brcc	.-18     	; 0x55f6 <__ftoa_engine+0x174>
    5608:	7e 91       	ld	r23, -X
    560a:	70 61       	ori	r23, 0x10	; 16
    560c:	7d 93       	st	X+, r23
    560e:	30 f0       	brcs	.+12     	; 0x561c <__ftoa_engine+0x19a>
    5610:	83 95       	inc	r24
    5612:	71 e3       	ldi	r23, 0x31	; 49
    5614:	7d 93       	st	X+, r23
    5616:	70 e3       	ldi	r23, 0x30	; 48
    5618:	2a 95       	dec	r18
    561a:	e1 f7       	brne	.-8      	; 0x5614 <__ftoa_engine+0x192>
    561c:	11 24       	eor	r1, r1
    561e:	ef 90       	pop	r14
    5620:	ff 90       	pop	r15
    5622:	0f 91       	pop	r16
    5624:	1f 91       	pop	r17
    5626:	cf 91       	pop	r28
    5628:	df 91       	pop	r29
    562a:	99 27       	eor	r25, r25
    562c:	87 fd       	sbrc	r24, 7
    562e:	90 95       	com	r25
    5630:	08 95       	ret

00005632 <strnlen_P>:
    5632:	fc 01       	movw	r30, r24
    5634:	05 90       	lpm	r0, Z+
    5636:	61 50       	subi	r22, 0x01	; 1
    5638:	70 40       	sbci	r23, 0x00	; 0
    563a:	01 10       	cpse	r0, r1
    563c:	d8 f7       	brcc	.-10     	; 0x5634 <strnlen_P+0x2>
    563e:	80 95       	com	r24
    5640:	90 95       	com	r25
    5642:	8e 0f       	add	r24, r30
    5644:	9f 1f       	adc	r25, r31
    5646:	08 95       	ret

00005648 <memcpy>:
    5648:	fb 01       	movw	r30, r22
    564a:	dc 01       	movw	r26, r24
    564c:	02 c0       	rjmp	.+4      	; 0x5652 <memcpy+0xa>
    564e:	01 90       	ld	r0, Z+
    5650:	0d 92       	st	X+, r0
    5652:	41 50       	subi	r20, 0x01	; 1
    5654:	50 40       	sbci	r21, 0x00	; 0
    5656:	d8 f7       	brcc	.-10     	; 0x564e <memcpy+0x6>
    5658:	08 95       	ret

0000565a <strncmp>:
    565a:	fb 01       	movw	r30, r22
    565c:	dc 01       	movw	r26, r24
    565e:	41 50       	subi	r20, 0x01	; 1
    5660:	50 40       	sbci	r21, 0x00	; 0
    5662:	30 f0       	brcs	.+12     	; 0x5670 <strncmp+0x16>
    5664:	8d 91       	ld	r24, X+
    5666:	01 90       	ld	r0, Z+
    5668:	80 19       	sub	r24, r0
    566a:	19 f4       	brne	.+6      	; 0x5672 <strncmp+0x18>
    566c:	00 20       	and	r0, r0
    566e:	b9 f7       	brne	.-18     	; 0x565e <strncmp+0x4>
    5670:	88 1b       	sub	r24, r24
    5672:	99 0b       	sbc	r25, r25
    5674:	08 95       	ret

00005676 <strnlen>:
    5676:	fc 01       	movw	r30, r24
    5678:	61 50       	subi	r22, 0x01	; 1
    567a:	70 40       	sbci	r23, 0x00	; 0
    567c:	01 90       	ld	r0, Z+
    567e:	01 10       	cpse	r0, r1
    5680:	d8 f7       	brcc	.-10     	; 0x5678 <strnlen+0x2>
    5682:	80 95       	com	r24
    5684:	90 95       	com	r25
    5686:	8e 0f       	add	r24, r30
    5688:	9f 1f       	adc	r25, r31
    568a:	08 95       	ret

0000568c <fputc>:
    568c:	0f 93       	push	r16
    568e:	1f 93       	push	r17
    5690:	cf 93       	push	r28
    5692:	df 93       	push	r29
    5694:	fb 01       	movw	r30, r22
    5696:	23 81       	ldd	r18, Z+3	; 0x03
    5698:	21 fd       	sbrc	r18, 1
    569a:	03 c0       	rjmp	.+6      	; 0x56a2 <fputc+0x16>
    569c:	8f ef       	ldi	r24, 0xFF	; 255
    569e:	9f ef       	ldi	r25, 0xFF	; 255
    56a0:	2c c0       	rjmp	.+88     	; 0x56fa <fputc+0x6e>
    56a2:	22 ff       	sbrs	r18, 2
    56a4:	16 c0       	rjmp	.+44     	; 0x56d2 <fputc+0x46>
    56a6:	46 81       	ldd	r20, Z+6	; 0x06
    56a8:	57 81       	ldd	r21, Z+7	; 0x07
    56aa:	24 81       	ldd	r18, Z+4	; 0x04
    56ac:	35 81       	ldd	r19, Z+5	; 0x05
    56ae:	42 17       	cp	r20, r18
    56b0:	53 07       	cpc	r21, r19
    56b2:	44 f4       	brge	.+16     	; 0x56c4 <fputc+0x38>
    56b4:	a0 81       	ld	r26, Z
    56b6:	b1 81       	ldd	r27, Z+1	; 0x01
    56b8:	9d 01       	movw	r18, r26
    56ba:	2f 5f       	subi	r18, 0xFF	; 255
    56bc:	3f 4f       	sbci	r19, 0xFF	; 255
    56be:	31 83       	std	Z+1, r19	; 0x01
    56c0:	20 83       	st	Z, r18
    56c2:	8c 93       	st	X, r24
    56c4:	26 81       	ldd	r18, Z+6	; 0x06
    56c6:	37 81       	ldd	r19, Z+7	; 0x07
    56c8:	2f 5f       	subi	r18, 0xFF	; 255
    56ca:	3f 4f       	sbci	r19, 0xFF	; 255
    56cc:	37 83       	std	Z+7, r19	; 0x07
    56ce:	26 83       	std	Z+6, r18	; 0x06
    56d0:	14 c0       	rjmp	.+40     	; 0x56fa <fputc+0x6e>
    56d2:	8b 01       	movw	r16, r22
    56d4:	ec 01       	movw	r28, r24
    56d6:	fb 01       	movw	r30, r22
    56d8:	00 84       	ldd	r0, Z+8	; 0x08
    56da:	f1 85       	ldd	r31, Z+9	; 0x09
    56dc:	e0 2d       	mov	r30, r0
    56de:	09 95       	icall
    56e0:	89 2b       	or	r24, r25
    56e2:	e1 f6       	brne	.-72     	; 0x569c <fputc+0x10>
    56e4:	d8 01       	movw	r26, r16
    56e6:	16 96       	adiw	r26, 0x06	; 6
    56e8:	8d 91       	ld	r24, X+
    56ea:	9c 91       	ld	r25, X
    56ec:	17 97       	sbiw	r26, 0x07	; 7
    56ee:	01 96       	adiw	r24, 0x01	; 1
    56f0:	17 96       	adiw	r26, 0x07	; 7
    56f2:	9c 93       	st	X, r25
    56f4:	8e 93       	st	-X, r24
    56f6:	16 97       	sbiw	r26, 0x06	; 6
    56f8:	ce 01       	movw	r24, r28
    56fa:	df 91       	pop	r29
    56fc:	cf 91       	pop	r28
    56fe:	1f 91       	pop	r17
    5700:	0f 91       	pop	r16
    5702:	08 95       	ret

00005704 <__ultoa_invert>:
    5704:	fa 01       	movw	r30, r20
    5706:	aa 27       	eor	r26, r26
    5708:	28 30       	cpi	r18, 0x08	; 8
    570a:	51 f1       	breq	.+84     	; 0x5760 <__ultoa_invert+0x5c>
    570c:	20 31       	cpi	r18, 0x10	; 16
    570e:	81 f1       	breq	.+96     	; 0x5770 <__ultoa_invert+0x6c>
    5710:	e8 94       	clt
    5712:	6f 93       	push	r22
    5714:	6e 7f       	andi	r22, 0xFE	; 254
    5716:	6e 5f       	subi	r22, 0xFE	; 254
    5718:	7f 4f       	sbci	r23, 0xFF	; 255
    571a:	8f 4f       	sbci	r24, 0xFF	; 255
    571c:	9f 4f       	sbci	r25, 0xFF	; 255
    571e:	af 4f       	sbci	r26, 0xFF	; 255
    5720:	b1 e0       	ldi	r27, 0x01	; 1
    5722:	3e d0       	rcall	.+124    	; 0x57a0 <__ultoa_invert+0x9c>
    5724:	b4 e0       	ldi	r27, 0x04	; 4
    5726:	3c d0       	rcall	.+120    	; 0x57a0 <__ultoa_invert+0x9c>
    5728:	67 0f       	add	r22, r23
    572a:	78 1f       	adc	r23, r24
    572c:	89 1f       	adc	r24, r25
    572e:	9a 1f       	adc	r25, r26
    5730:	a1 1d       	adc	r26, r1
    5732:	68 0f       	add	r22, r24
    5734:	79 1f       	adc	r23, r25
    5736:	8a 1f       	adc	r24, r26
    5738:	91 1d       	adc	r25, r1
    573a:	a1 1d       	adc	r26, r1
    573c:	6a 0f       	add	r22, r26
    573e:	71 1d       	adc	r23, r1
    5740:	81 1d       	adc	r24, r1
    5742:	91 1d       	adc	r25, r1
    5744:	a1 1d       	adc	r26, r1
    5746:	20 d0       	rcall	.+64     	; 0x5788 <__ultoa_invert+0x84>
    5748:	09 f4       	brne	.+2      	; 0x574c <__ultoa_invert+0x48>
    574a:	68 94       	set
    574c:	3f 91       	pop	r19
    574e:	2a e0       	ldi	r18, 0x0A	; 10
    5750:	26 9f       	mul	r18, r22
    5752:	11 24       	eor	r1, r1
    5754:	30 19       	sub	r19, r0
    5756:	30 5d       	subi	r19, 0xD0	; 208
    5758:	31 93       	st	Z+, r19
    575a:	de f6       	brtc	.-74     	; 0x5712 <__ultoa_invert+0xe>
    575c:	cf 01       	movw	r24, r30
    575e:	08 95       	ret
    5760:	46 2f       	mov	r20, r22
    5762:	47 70       	andi	r20, 0x07	; 7
    5764:	40 5d       	subi	r20, 0xD0	; 208
    5766:	41 93       	st	Z+, r20
    5768:	b3 e0       	ldi	r27, 0x03	; 3
    576a:	0f d0       	rcall	.+30     	; 0x578a <__ultoa_invert+0x86>
    576c:	c9 f7       	brne	.-14     	; 0x5760 <__ultoa_invert+0x5c>
    576e:	f6 cf       	rjmp	.-20     	; 0x575c <__ultoa_invert+0x58>
    5770:	46 2f       	mov	r20, r22
    5772:	4f 70       	andi	r20, 0x0F	; 15
    5774:	40 5d       	subi	r20, 0xD0	; 208
    5776:	4a 33       	cpi	r20, 0x3A	; 58
    5778:	18 f0       	brcs	.+6      	; 0x5780 <__ultoa_invert+0x7c>
    577a:	49 5d       	subi	r20, 0xD9	; 217
    577c:	31 fd       	sbrc	r19, 1
    577e:	40 52       	subi	r20, 0x20	; 32
    5780:	41 93       	st	Z+, r20
    5782:	02 d0       	rcall	.+4      	; 0x5788 <__ultoa_invert+0x84>
    5784:	a9 f7       	brne	.-22     	; 0x5770 <__ultoa_invert+0x6c>
    5786:	ea cf       	rjmp	.-44     	; 0x575c <__ultoa_invert+0x58>
    5788:	b4 e0       	ldi	r27, 0x04	; 4
    578a:	a6 95       	lsr	r26
    578c:	97 95       	ror	r25
    578e:	87 95       	ror	r24
    5790:	77 95       	ror	r23
    5792:	67 95       	ror	r22
    5794:	ba 95       	dec	r27
    5796:	c9 f7       	brne	.-14     	; 0x578a <__ultoa_invert+0x86>
    5798:	00 97       	sbiw	r24, 0x00	; 0
    579a:	61 05       	cpc	r22, r1
    579c:	71 05       	cpc	r23, r1
    579e:	08 95       	ret
    57a0:	9b 01       	movw	r18, r22
    57a2:	ac 01       	movw	r20, r24
    57a4:	0a 2e       	mov	r0, r26
    57a6:	06 94       	lsr	r0
    57a8:	57 95       	ror	r21
    57aa:	47 95       	ror	r20
    57ac:	37 95       	ror	r19
    57ae:	27 95       	ror	r18
    57b0:	ba 95       	dec	r27
    57b2:	c9 f7       	brne	.-14     	; 0x57a6 <__ultoa_invert+0xa2>
    57b4:	62 0f       	add	r22, r18
    57b6:	73 1f       	adc	r23, r19
    57b8:	84 1f       	adc	r24, r20
    57ba:	95 1f       	adc	r25, r21
    57bc:	a0 1d       	adc	r26, r0
    57be:	08 95       	ret

000057c0 <_exit>:
    57c0:	f8 94       	cli

000057c2 <__stop_program>:
    57c2:	ff cf       	rjmp	.-2      	; 0x57c2 <__stop_program>
